
zephyr.elf:     file format elf32-xtensa-le


Disassembly of section .iram0.vectors:

40080000 <_WindowOverflow4>:
40080000:	49c500        	s32e	a0, a5, -16
40080003:	49d510        	s32e	a1, a5, -12
40080006:	49e520        	s32e	a2, a5, -8
40080009:	49f530        	s32e	a3, a5, -4
4008000c:	003400        	rfwo
	...

40080040 <_WindowUnderflow4>:
40080040:	09c500        	l32e	a0, a5, -16
40080043:	09d510        	l32e	a1, a5, -12
40080046:	09e520        	l32e	a2, a5, -8
40080049:	09f530        	l32e	a3, a5, -4
4008004c:	003500        	rfwu
	...

40080050 <_xt_alloca_exc>:
40080050:	034800        	rsr.windowbase	a0
40080053:	4080f0        	rotw	-1
40080056:	03e620        	rsr.ps	a2
40080059:	343820        	extui	a3, a2, 8, 4
4008005c:	303340        	xor	a3, a3, a4
4008005f:	03f440        	rsr.misc0	a4
40080062:	113380        	slli	a3, a3, 8
40080065:	302230        	xor	a2, a2, a3
40080068:	13e620        	wsr.ps	a2
4008006b:	002010        	rsync
4008006e:	ce74f7        	bbci	a4, 31, 40080040 <_WindowUnderflow4>
40080071:	4080f0        	rotw	-1
40080074:	4878e7        	bbci	a8, 30, 400800c0 <_WindowUnderflow8>
40080077:	4080f0        	rotw	-1
4008007a:	003086        	j	40080140 <_WindowUnderflow12>
4008007d:	000000        	ill

40080080 <_WindowOverflow8>:
40080080:	49c900        	s32e	a0, a9, -16
40080083:	09d100        	l32e	a0, a1, -12
40080086:	49d910        	s32e	a1, a9, -12
40080089:	49e920        	s32e	a2, a9, -8
4008008c:	49f930        	s32e	a3, a9, -4
4008008f:	498040        	s32e	a4, a0, -32
40080092:	499050        	s32e	a5, a0, -28
40080095:	49a060        	s32e	a6, a0, -24
40080098:	49b070        	s32e	a7, a0, -20
4008009b:	003400        	rfwo
	...

400800c0 <_WindowUnderflow8>:
400800c0:	09c900        	l32e	a0, a9, -16
400800c3:	09d910        	l32e	a1, a9, -12
400800c6:	09e920        	l32e	a2, a9, -8
400800c9:	09d170        	l32e	a7, a1, -12
400800cc:	09f930        	l32e	a3, a9, -4
400800cf:	098740        	l32e	a4, a7, -32
400800d2:	099750        	l32e	a5, a7, -28
400800d5:	09a760        	l32e	a6, a7, -24
400800d8:	09b770        	l32e	a7, a7, -20
400800db:	003500        	rfwu
	...

40080100 <_WindowOverflow12>:
40080100:	49cd00        	s32e	a0, a13, -16
40080103:	09d100        	l32e	a0, a1, -12
40080106:	49dd10        	s32e	a1, a13, -12
40080109:	49ed20        	s32e	a2, a13, -8
4008010c:	49fd30        	s32e	a3, a13, -4
4008010f:	494040        	s32e	a4, a0, -48
40080112:	495050        	s32e	a5, a0, -44
40080115:	496060        	s32e	a6, a0, -40
40080118:	497070        	s32e	a7, a0, -36
4008011b:	498080        	s32e	a8, a0, -32
4008011e:	499090        	s32e	a9, a0, -28
40080121:	49a0a0        	s32e	a10, a0, -24
40080124:	49b0b0        	s32e	a11, a0, -20
40080127:	003400        	rfwo
	...

40080140 <_WindowUnderflow12>:
40080140:	09cd00        	l32e	a0, a13, -16
40080143:	09dd10        	l32e	a1, a13, -12
40080146:	09ed20        	l32e	a2, a13, -8
40080149:	09d1b0        	l32e	a11, a1, -12
4008014c:	09fd30        	l32e	a3, a13, -4
4008014f:	094b40        	l32e	a4, a11, -48
40080152:	095b50        	l32e	a5, a11, -44
40080155:	096b60        	l32e	a6, a11, -40
40080158:	097b70        	l32e	a7, a11, -36
4008015b:	098b80        	l32e	a8, a11, -32
4008015e:	099b90        	l32e	a9, a11, -28
40080161:	09aba0        	l32e	a10, a11, -24
40080164:	09bbb0        	l32e	a11, a11, -20
40080167:	003500        	rfwu
	...

40080180 <_Level2Vector>:
40080180:	c0c112        	addi	a1, a1, -64
40080183:	8109      	s32i.n	a0, a1, 32
40080185:	a129      	s32i.n	a2, a1, 40
40080187:	b139      	s32i.n	a3, a1, 44
40080189:	03c200        	rsr.eps2	a0
4008018c:	6109      	s32i.n	a0, a1, 24
4008018e:	03b200        	rsr.epc2	a0
40080191:	7109      	s32i.n	a0, a1, 28
40080193:	000246        	j	400801a0 <_after_imms2>
	...

40080198 <_handle_excint_imm2>:
40080198:	101c      	movi.n	a0, 17
4008019a:	4008      	l32i.n	a0, a0, 16

4008019c <_c_handler_imm2>:
4008019c:	1458      	l32i.n	a5, a4, 4
4008019e:	4008      	l32i.n	a0, a0, 16

400801a0 <_after_imms2>:
400801a0:	ffff21        	l32r	a2, 4008019c <_c_handler_imm2> (40081458 <xtensa_int2_c>)
400801a3:	fffd01        	l32r	a0, 40080198 <_handle_excint_imm2> (4008101c <_handle_excint>)
400801a6:	0000a0        	jx	a0
	...

400801c0 <_Level3Vector>:
400801c0:	c0c112        	addi	a1, a1, -64
400801c3:	8109      	s32i.n	a0, a1, 32
400801c5:	a129      	s32i.n	a2, a1, 40
400801c7:	b139      	s32i.n	a3, a1, 44
400801c9:	03c300        	rsr.eps3	a0
400801cc:	6109      	s32i.n	a0, a1, 24
400801ce:	03b300        	rsr.epc3	a0
400801d1:	7109      	s32i.n	a0, a1, 28
400801d3:	000146        	j	400801dc <_after_imms3>
	...

400801d8 <_c_handler_imm3>:
400801d8:	1488      	l32i.n	a8, a4, 4
400801da:	4008      	l32i.n	a0, a0, 16

400801dc <_after_imms3>:
400801dc:	ffff21        	l32r	a2, 400801d8 <_c_handler_imm3> (40081488 <xtensa_int3_c>)
400801df:	ffee01        	l32r	a0, 40080198 <_handle_excint_imm2> (4008101c <_handle_excint>)
400801e2:	0000a0        	jx	a0
	...

40080200 <_Level4Vector>:
40080200:	c0c112        	addi	a1, a1, -64
40080203:	8109      	s32i.n	a0, a1, 32
40080205:	a129      	s32i.n	a2, a1, 40
40080207:	b139      	s32i.n	a3, a1, 44
40080209:	03c400        	rsr.eps4	a0
4008020c:	6109      	s32i.n	a0, a1, 24
4008020e:	03b400        	rsr.epc4	a0
40080211:	7109      	s32i.n	a0, a1, 28
40080213:	000146        	j	4008021c <_after_imms4>
	...

40080218 <_c_handler_imm4>:
40080218:	14b8      	l32i.n	a11, a4, 4
4008021a:	4008      	l32i.n	a0, a0, 16

4008021c <_after_imms4>:
4008021c:	ffff21        	l32r	a2, 40080218 <_c_handler_imm4> (400814b8 <xtensa_int4_c>)
4008021f:	ffde01        	l32r	a0, 40080198 <_handle_excint_imm2> (4008101c <_handle_excint>)
40080222:	0000a0        	jx	a0
	...

40080240 <_Level5Vector>:
40080240:	c0c112        	addi	a1, a1, -64
40080243:	8109      	s32i.n	a0, a1, 32
40080245:	a129      	s32i.n	a2, a1, 40
40080247:	b139      	s32i.n	a3, a1, 44
40080249:	03c500        	rsr.eps5	a0
4008024c:	6109      	s32i.n	a0, a1, 24
4008024e:	03b500        	rsr.epc5	a0
40080251:	7109      	s32i.n	a0, a1, 28
40080253:	000146        	j	4008025c <_after_imms5>
	...

40080258 <_c_handler_imm5>:
40080258:	14e8      	l32i.n	a14, a4, 4
4008025a:	4008      	l32i.n	a0, a0, 16

4008025c <_after_imms5>:
4008025c:	ffff21        	l32r	a2, 40080258 <_c_handler_imm5> (400814e8 <xtensa_int5_c>)
4008025f:	ffce01        	l32r	a0, 40080198 <_handle_excint_imm2> (4008101c <_handle_excint>)
40080262:	0000a0        	jx	a0
	...

40080280 <_Level6Vector>:
40080280:	c0c112        	addi	a1, a1, -64
40080283:	8109      	s32i.n	a0, a1, 32
40080285:	a129      	s32i.n	a2, a1, 40
40080287:	b139      	s32i.n	a3, a1, 44
40080289:	03c600        	rsr.eps6	a0
4008028c:	6109      	s32i.n	a0, a1, 24
4008028e:	03b600        	rsr.epc6	a0
40080291:	7109      	s32i.n	a0, a1, 28
40080293:	000146        	j	4008029c <_after_imms6>
	...

40080298 <_c_handler_imm6>:
40080298:	1518      	l32i.n	a1, a5, 4
4008029a:	4008      	l32i.n	a0, a0, 16

4008029c <_after_imms6>:
4008029c:	ffff21        	l32r	a2, 40080298 <_c_handler_imm6> (40081518 <xtensa_int6_c>)
4008029f:	ffbe01        	l32r	a0, 40080198 <_handle_excint_imm2> (4008101c <_handle_excint>)
400802a2:	0000a0        	jx	a0
	...

400802c0 <_Level7Vector>:
400802c0:	c0c112        	addi	a1, a1, -64
400802c3:	8109      	s32i.n	a0, a1, 32
400802c5:	a129      	s32i.n	a2, a1, 40
400802c7:	b139      	s32i.n	a3, a1, 44
400802c9:	03c700        	rsr.eps7	a0
400802cc:	6109      	s32i.n	a0, a1, 24
400802ce:	03b700        	rsr.epc7	a0
400802d1:	7109      	s32i.n	a0, a1, 28
400802d3:	000146        	j	400802dc <_after_imms7>
	...

400802d8 <_c_handler_imm7>:
400802d8:	081534        	lsi	f3, a5, 32
400802db:	40          	.byte 0x40

400802dc <_after_imms7>:
400802dc:	ffff21        	l32r	a2, 400802d8 <_c_handler_imm7> (40081534 <xtensa_int7_c>)
400802df:	ffae01        	l32r	a0, 40080198 <_handle_excint_imm2> (4008101c <_handle_excint>)
400802e2:	0000a0        	jx	a0
	...

40080300 <_KernelExceptionVector>:
40080300:	02af06        	j	40080dc0 <_Level1Vector>
	...

40080340 <_Level1RealVector>:
40080340:	13f400        	wsr.misc0	a0
40080343:	03e800        	rsr.exccause	a0
40080346:	025066        	bnei	a0, 5, 4008034c <_not_alloca>
40080349:	ff40c6        	j	40080050 <_xt_alloca_exc>

4008034c <_not_alloca>:
4008034c:	03f400        	rsr.misc0	a0
4008034f:	029b46        	j	40080dc0 <_Level1Vector>
	...

400803c0 <_DoubleExceptionVector>:
400803c0:	004140        	break	1, 4
400803c3:	fffe46        	j	400803c0 <_DoubleExceptionVector>
	...

Disassembly of section text:

40080400 <__esp_platform_start-0x314>:
40080400:	40080000 	
40080404:	00040023 	
40080408:	3ffc1efc 	
4008040c:	3ff480a4 	
40080410:	50d83aa1 	
40080414:	3ff4808c 	
40080418:	7fffffff 	
4008041c:	40009200 	
40080420:	3ffc1ce8 	
40080424:	400041a4 	
40080428:	3ffe01e0 	
4008042c:	000f4240 	
40080430:	04c4b400 	
40080434:	bff30000 	
40080438:	0032ffff 	
4008043c:	bff80000 	
40080440:	0001ffff 	
40080444:	c0000000 	
40080448:	00064eff 	
4008044c:	bff88000 	
40080450:	00007fff 	
40080454:	bff40000 	
40080458:	00001fff 	
4008045c:	3ffc1ed8 	
40080460:	4000681c 	
40080464:	3f4049c0 	
40080468:	3f4049a8 	
4008046c:	3f404630 	
40080470:	3f404654 	
40080474:	feffffff 	
40080478:	fdffffff 	
4008047c:	3f404674 	
40080480:	3f404694 	
40080484:	3f4046b4 	
40080488:	00000ffc 	
4008048c:	c0052000 	
40080490:	00051fff 	
40080494:	3f4046d8 	
40080498:	3f404700 	
4008049c:	3f404728 	
400804a0:	3ffc0050 	
400804a4:	3ffc0064 	
400804a8:	3ffc006c 	
400804ac:	3ffc0080 	
400804b0:	3ffc0094 	
400804b4:	3ffc00a8 	
400804b8:	3ffc00b0 	
400804bc:	3ffc00c0 	
400804c0:	3ffc00cc 	
400804c4:	3ffc00e4 	
400804c8:	3ffc00fc 	
400804cc:	3ffc0118 	
400804d0:	3ffc0130 	
400804d4:	3ffc014c 	
400804d8:	3ffc015c 	
400804dc:	3ffc0170 	
400804e0:	3ffc0188 	
400804e4:	3ffc01a0 	
400804e8:	3ffc01b4 	
400804ec:	3ffc01d0 	
400804f0:	3ffc01e8 	
400804f4:	3ffc01f8 	
400804f8:	3ffc020c 	
400804fc:	3ffc0224 	
40080500:	3ffc0238 	
40080504:	3ffc024c 	
40080508:	40081018 	
4008050c:	00001000 	
40080510:	00002000 	
40080514:	00020000 	
40080518:	00040000 	
4008051c:	00003000 	
40080520:	3ffc0960 	
40080524:	00000800 	
40080528:	00008000 	
4008052c:	00400000 	
40080530:	00800000 	
40080534:	08000000 	
40080538:	20000000 	
4008053c:	00408800 	
40080540:	00010000 	
40080544:	04000000 	
40080548:	80000000 	
4008054c:	00080000 	
40080550:	00100000 	
40080554:	00200000 	
40080558:	01000000 	
4008055c:	02000000 	
40080560:	10000000 	
40080564:	40000000 	
40080568:	03000000 	
4008056c:	400d05bc 	
40080570:	00050020 	
40080574:	3ffc034c 	
40080578:	3ffc0380 	
4008057c:	3ffc03a8 	
40080580:	3ffc03d0 	
40080584:	3ffc03f8 	
40080588:	3ffc0420 	
4008058c:	3ffc0444 	
40080590:	00004000 	
40080594:	3ffc0454 	
40080598:	40080fb3 	
4008059c:	3ffc0474 	
400805a0:	3ffc0490 	
400805a4:	3ffc04b4 	
400805a8:	3ffc04d0 	
400805ac:	3ffc04e0 	
400805b0:	3ffc1d18 	
400805b4:	3fffffff 	
400805b8:	3ffc1d1c 	
400805bc:	c0051ff0 	
400805c0:	00051fe0 	
400805c4:	3ffc052c 	
400805c8:	3ffc053c 	
400805cc:	3ffc054c 	
400805d0:	3ffc055c 	
400805d4:	3ffc056c 	
400805d8:	3ffc0574 	
400805dc:	3ffc1d20 	
400805e0:	3f404990 	
400805e4:	3f404a50 	
400805e8:	3ffc057c 	
400805ec:	3ffc058c 	
400805f0:	3ffc05a0 	
400805f4:	3ffc05b0 	
400805f8:	3ffc05bc 	
400805fc:	3ffc05cc 	
40080600:	3ffc05dc 	
40080604:	3ffc05f0 	
40080608:	3ffc05f8 	
4008060c:	3ffc060c 	
40080610:	3ffc063c 	
40080614:	3ffc066c 	
40080618:	3ffc1af8 	
4008061c:	3ffe5a30 	
40080620:	40081e3c 	
40080624:	3ffc065c 	
40080628:	3ffc1f39 	
4008062c:	3ffc1b90 	
40080630:	3ffc1f40 	
40080634:	3ffc0af8 	
40080638:	3ffe5230 	
4008063c:	40081a30 	
40080640:	3ffe5e30 	
40080644:	3ffc0664 	
40080648:	3ffc0a70 	
4008064c:	3ffc0a98 	
40080650:	40082340 	
40080654:	3f404a50 	
40080658:	3ffc1f24 	
4008065c:	3ffc1f24 	
40080660:	3ffc1f28 	
40080664:	3ffc1f2c 	
40080668:	3ffc1f18 	
4008066c:	3ffc1f14 	
40080670:	0fffffff 	
40080674:	cccccccd 	
40080678:	cccccccc 	
4008067c:	3ffc0048 	
40080680:	3ffc1f2c 	
40080684:	3ffc1c28 	
40080688:	0e4e1c00 	
4008068c:	4000cff8 	
40080690:	ffe03fff 	
40080694:	3ffc0a84 	
40080698:	3f404864 	
4008069c:	3f4048a8 	
400806a0:	3ffe6630 	
400806a4:	3ffc1c30 	
400806a8:	3ffc1f30 	
400806ac:	3ffc1f38 	
400806b0:	40082f98 	
400806b4:	fffbfff0 	
400806b8:	00005dc0 	
400806bc:	3ffc1ef8 	
400806c0:	057619f1 	
400806c4:	0002bb0b 	
400806c8:	00005dbf 	
400806cc:	3ffc0688 	
400806d0:	3ffc06cc 	
400806d4:	ffff87ff 	
400806d8:	00001800 	
400806dc:	00002800 	
400806e0:	00003800 	
400806e4:	0000e200 	
400806e8:	00000801 	
400806ec:	00021000 	
400806f0:	00007800 	
400806f4:	4000d280 	
400806f8:	3ffc0788 	
400806fc:	3ffc07ad 	
40080700:	3ffc07a8 	
40080704:	3ffc07b0 	
40080708:	3ffbfff4 	
4008070c:	40084184 	
40080710:	3f4049f0 	

40080714 <__esp_platform_start>:
40080714:	004136        	entry	a1, 32
40080717:	ff3a81        	l32r	a8, 40080400 <_init_end> (40080000 <_WindowOverflow4>)
4008071a:	13e780        	wsr.vecbase	a8
4008071d:	013a25        	call8	40081ac0 <z_bss_zero>
40080720:	ff3981        	l32r	a8, 40080404 <_init_end+0x4> (40023 <_image_irom_start+0x2672f>)
40080723:	13e680        	wsr.ps	a8
40080726:	ff3881        	l32r	a8, 40080408 <_init_end+0x8> (3ffc1efc <_kernel>)
40080729:	13f480        	wsr.misc0	a8
4008072c:	002010        	rsync
4008072f:	ff3791        	l32r	a9, 4008040c <_init_end+0xc> (3ff480a4 <GPIO+0x40a4>)
40080732:	ff3781        	l32r	a8, 40080410 <_init_end+0x10> (50d83aa1 <_rtc_bss_end+0xd83aa1>)
40080735:	0020c0        	memw
40080738:	006982        	s32i	a8, a9, 0
4008073b:	ff36a1        	l32r	a10, 40080414 <_init_end+0x14> (3ff4808c <GPIO+0x408c>)
4008073e:	0020c0        	memw
40080741:	002a82        	l32i	a8, a10, 0
40080744:	ff35b1        	l32r	a11, 40080418 <_init_end+0x18> (7fffffff <_rtc_bss_end+0x2fffffff>)
40080747:	1088b0        	and	a8, a8, a11
4008074a:	0020c0        	memw
4008074d:	006a82        	s32i	a8, a10, 0
40080750:	080c      	movi.n	a8, 0
40080752:	0020c0        	memw
40080755:	0989      	s32i.n	a8, a9, 0
40080757:	511ea5        	call8	400d1940 <esp_clk_init>
4008075a:	523865        	call8	400d2ae0 <esp_timer_early_init>
4008075d:	52f465        	call8	400d36a4 <esp_intr_initialize>
40080760:	013f25        	call8	40081b54 <z_cstart>
	...

40080764 <arch_printk_char_out>:
40080764:	004136        	entry	a1, 32
40080767:	079266        	bnei	a2, 10, 40080772 <arch_printk_char_out+0xe>
4008076a:	da0c      	movi.n	a10, 13
4008076c:	ff2c81        	l32r	a8, 4008041c <_init_end+0x1c> (40009200 <esp_rom_uart_tx_one_char>)
4008076f:	0008e0        	callx8	a8
40080772:	74a020        	extui	a10, a2, 0, 8
40080775:	ff2981        	l32r	a8, 4008041c <_init_end+0x1c> (40009200 <esp_rom_uart_tx_one_char>)
40080778:	0008e0        	callx8	a8
4008077b:	020c      	movi.n	a2, 0
4008077d:	f01d      	retw.n
	...

40080780 <regi2c_ctrl_write_reg>:
40080780:	004136        	entry	a1, 32
40080783:	74a020        	extui	a10, a2, 0, 8
40080786:	74b030        	extui	a11, a3, 0, 8
40080789:	74c040        	extui	a12, a4, 0, 8
4008078c:	74d050        	extui	a13, a5, 0, 8
4008078f:	006380        	rsil	a8, 3
40080792:	ff2361        	l32r	a6, 40080420 <_init_end+0x20> (3ffc1ce8 <mux>)
40080795:	0689      	s32i.n	a8, a6, 0
40080797:	ff2381        	l32r	a8, 40080424 <_init_end+0x24> (400041a4 <rom_i2c_writeReg>)
4008079a:	0008e0        	callx8	a8
4008079d:	0668      	l32i.n	a6, a6, 0
4008079f:	13e660        	wsr.ps	a6
400807a2:	002010        	rsync
400807a5:	f01d      	retw.n
	...

400807a8 <esp_clk_cpu_freq>:
400807a8:	004136        	entry	a1, 32
400807ab:	ff1f21        	l32r	a2, 40080428 <_init_end+0x28> (3ffe01e0 <g_ticks_per_us_pro>)
400807ae:	0228      	l32i.n	a2, a2, 0
400807b0:	ff1f81        	l32r	a8, 4008042c <_init_end+0x2c> (f4240 <_image_irom_start+0xda94c>)
400807b3:	822280        	mull	a2, a2, a8
400807b6:	f01d      	retw.n

400807b8 <esp_clk_apb_freq>:
400807b8:	004136        	entry	a1, 32
400807bb:	ff1b21        	l32r	a2, 40080428 <_init_end+0x28> (3ffe01e0 <g_ticks_per_us_pro>)
400807be:	0228      	l32i.n	a2, a2, 0
400807c0:	f84c      	movi.n	a8, 79
400807c2:	0a2827        	blt	a8, a2, 400807d0 <esp_clk_apb_freq+0x18>
400807c5:	ff1981        	l32r	a8, 4008042c <_init_end+0x2c> (f4240 <_image_irom_start+0xda94c>)
400807c8:	822280        	mull	a2, a2, a8
400807cb:	000106        	j	400807d3 <esp_clk_apb_freq+0x1b>
400807ce:	00          	.byte 00
400807cf:	00          	.byte 00
400807d0:	ff1821        	l32r	a2, 40080430 <_init_end+0x30> (4c4b400 <CONFIG_FLASH_SIZE+0x484b400>)
400807d3:	f01d      	retw.n
400807d5:	000000        	ill

400807d8 <ets_update_cpu_frequency>:
400807d8:	004136        	entry	a1, 32
400807db:	ff1381        	l32r	a8, 40080428 <_init_end+0x28> (3ffe01e0 <g_ticks_per_us_pro>)
400807de:	0829      	s32i.n	a2, a8, 0
400807e0:	f01d      	retw.n
	...

400807e4 <esp_ptr_executable>:
400807e4:	004136        	entry	a1, 32
400807e7:	ff1391        	l32r	a9, 40080434 <_init_end+0x34> (bff30000 <_rtc_bss_end+0x6ff30000>)
400807ea:	929a      	add.n	a9, a2, a9
400807ec:	01a082        	movi	a8, 1
400807ef:	ff12a1        	l32r	a10, 40080438 <_init_end+0x38> (32ffff <_image_irom_start+0x31670b>)
400807f2:	02ba97        	bgeu	a10, a9, 400807f8 <esp_ptr_executable+0x14>
400807f5:	00a082        	movi	a8, 0
400807f8:	748080        	extui	a8, a8, 0, 8
400807fb:	ff10a1        	l32r	a10, 4008043c <_init_end+0x3c> (bff80000 <_rtc_bss_end+0x6ff80000>)
400807fe:	a2aa      	add.n	a10, a2, a10
40080800:	01a092        	movi	a9, 1
40080803:	ff0fb1        	l32r	a11, 40080440 <_init_end+0x40> (1ffff <_image_irom_start+0x670b>)
40080806:	02bba7        	bgeu	a11, a10, 4008080c <esp_ptr_executable+0x28>
40080809:	00a092        	movi	a9, 0
4008080c:	749090        	extui	a9, a9, 0, 8
4008080f:	208890        	or	a8, a8, a9
40080812:	48ec      	bnez.n	a8, 4008083a <esp_ptr_executable+0x56>
40080814:	ff0c81        	l32r	a8, 40080444 <_init_end+0x44> (c0000000 <_rtc_bss_end+0x70000000>)
40080817:	828a      	add.n	a8, a2, a8
40080819:	ff0b91        	l32r	a9, 40080448 <_init_end+0x48> (64eff <_image_irom_start+0x4b60b>)
4008081c:	20b987        	bgeu	a9, a8, 40080840 <esp_ptr_executable+0x5c>
4008081f:	ff0b81        	l32r	a8, 4008044c <_init_end+0x4c> (bff88000 <_rtc_bss_end+0x6ff88000>)
40080822:	828a      	add.n	a8, a2, a8
40080824:	ff0b91        	l32r	a9, 40080450 <_init_end+0x50> (7fff <_image_irom_size+0x22b7>)
40080827:	1ab987        	bgeu	a9, a8, 40080845 <esp_ptr_executable+0x61>
4008082a:	ff0a81        	l32r	a8, 40080454 <_init_end+0x54> (bff40000 <_rtc_bss_end+0x6ff40000>)
4008082d:	228a      	add.n	a2, a2, a8
4008082f:	ff0a81        	l32r	a8, 40080458 <_init_end+0x58> (1fff <CONFIG_HEAP_MEM_POOL_SIZE+0xfff>)
40080832:	143827        	bltu	a8, a2, 4008084a <esp_ptr_executable+0x66>
40080835:	120c      	movi.n	a2, 1
40080837:	000446        	j	4008084c <esp_ptr_executable+0x68>
4008083a:	120c      	movi.n	a2, 1
4008083c:	000306        	j	4008084c <esp_ptr_executable+0x68>
4008083f:	00          	.byte 00
40080840:	120c      	movi.n	a2, 1
40080842:	000186        	j	4008084c <esp_ptr_executable+0x68>
40080845:	120c      	movi.n	a2, 1
40080847:	000046        	j	4008084c <esp_ptr_executable+0x68>
4008084a:	020c      	movi.n	a2, 0
4008084c:	f01d      	retw.n
	...

40080850 <z_xtensa_backtrace_get_start>:
40080850:	004136        	entry	a1, 32
40080853:	02aba5        	call8	4008330c <xthal_window_spill>
40080856:	002562        	l32i	a6, a5, 0
40080859:	072672        	l32i	a7, a6, 28
4008085c:	006272        	s32i	a7, a2, 0
4008085f:	8678      	l32i.n	a7, a6, 32
40080861:	0479      	s32i.n	a7, a4, 0
40080863:	40c662        	addi	a6, a6, 64
40080866:	0369      	s32i.n	a6, a3, 0
40080868:	f01d      	retw.n
	...

4008086c <shared_intr_isr>:
4008086c:	004136        	entry	a1, 32
4008086f:	1228      	l32i.n	a2, a2, 4
40080871:	006390        	rsil	a9, 3
40080874:	fefa81        	l32r	a8, 4008045c <_init_end+0x5c> (3ffc1ed8 <esp_intc_csec>)
40080877:	0899      	s32i.n	a9, a8, 0
40080879:	000746        	j	4008089a <shared_intr_isr+0x2e>
4008087c:	001282        	l16ui	a8, a2, 0
4008087f:	15e807        	bbsi	a8, 0, 40080898 <shared_intr_isr+0x2c>
40080882:	1288      	l32i.n	a8, a2, 4
40080884:	988c      	beqz.n	a8, 40080891 <shared_intr_isr+0x25>
40080886:	0020c0        	memw
40080889:	0898      	l32i.n	a9, a8, 0
4008088b:	022282        	l32i	a8, a2, 8
4008088e:	060987        	bnone	a9, a8, 40080898 <shared_intr_isr+0x2c>
40080891:	3288      	l32i.n	a8, a2, 12
40080893:	42a8      	l32i.n	a10, a2, 16
40080895:	0008e0        	callx8	a8
40080898:	5228      	l32i.n	a2, a2, 20
4008089a:	fde256        	bnez	a2, 4008087c <shared_intr_isr+0x10>
4008089d:	feef21        	l32r	a2, 4008045c <_init_end+0x5c> (3ffc1ed8 <esp_intc_csec>)
400808a0:	0228      	l32i.n	a2, a2, 0
400808a2:	13e620        	wsr.ps	a2
400808a5:	002010        	rsync
400808a8:	f01d      	retw.n
	...

400808ac <esp_intr_disable>:
400808ac:	004136        	entry	a1, 32
400808af:	0ba216        	beqz	a2, 4008096d <esp_intr_disable+0xc1>
400808b2:	006380        	rsil	a8, 3
400808b5:	08dd      	mov.n	a13, a8
400808b7:	fee991        	l32r	a9, 4008045c <_init_end+0x5c> (3ffc1ed8 <esp_intc_csec>)
400808ba:	0989      	s32i.n	a8, a9, 0
400808bc:	1288      	l32i.n	a8, a2, 4
400808be:	88bc      	beqz.n	a8, 400808fa <esp_intr_disable+0x4e>
400808c0:	001892        	l16ui	a9, a8, 0
400808c3:	1a0c      	movi.n	a10, 1
400808c5:	2099a0        	or	a9, a9, a10
400808c8:	005892        	s16i	a9, a8, 0
400808cb:	1288      	l32i.n	a8, a2, 4
400808cd:	08c8      	l32i.n	a12, a8, 0
400808cf:	74c1c0        	extui	a12, a12, 1, 8
400808d2:	23bc00        	sext	a11, a12, 7
400808d5:	0288      	l32i.n	a8, a2, 0
400808d7:	1898      	l32i.n	a9, a8, 4
400808d9:	000546        	j	400808f2 <esp_intr_disable+0x46>
400808dc:	0988      	l32i.n	a8, a9, 0
400808de:	748180        	extui	a8, a8, 1, 8
400808e1:	23ac00        	sext	a10, a12, 7
400808e4:	238800        	sext	a8, a8, 7
400808e7:	059a87        	bne	a10, a8, 400808f0 <esp_intr_disable+0x44>
400808ea:	001982        	l16ui	a8, a9, 0
400808ed:	186807        	bbci	a8, 0, 40080909 <esp_intr_disable+0x5d>
400808f0:	5998      	l32i.n	a9, a9, 20
400808f2:	fe6956        	bnez	a9, 400808dc <esp_intr_disable+0x30>
400808f5:	180c      	movi.n	a8, 1
400808f7:	000406        	j	4008090b <esp_intr_disable+0x5f>
400808fa:	0288      	l32i.n	a8, a2, 0
400808fc:	08b8      	l32i.n	a11, a8, 0
400808fe:	75b6b0        	extui	a11, a11, 22, 8
40080901:	23bb00        	sext	a11, a11, 7
40080904:	180c      	movi.n	a8, 1
40080906:	000046        	j	4008090b <esp_intr_disable+0x5f>
40080909:	080c      	movi.n	a8, 0
4008090b:	015b96        	bltz	a11, 40080924 <esp_intr_disable+0x78>
4008090e:	04b816        	beqz	a8, 4008095d <esp_intr_disable+0xb1>
40080911:	0228      	l32i.n	a2, a2, 0
40080913:	02a8      	l32i.n	a10, a2, 0
40080915:	6c0c      	movi.n	a12, 6
40080917:	05a0a0        	extui	a10, a10, 16, 1
4008091a:	fed181        	l32r	a8, 40080460 <_init_end+0x60> (4000681c <intr_matrix_set>)
4008091d:	0008e0        	callx8	a8
40080920:	000e46        	j	4008095d <esp_intr_disable+0xb1>
40080923:	00          	.byte 00
40080924:	0288      	l32i.n	a8, a2, 0
40080926:	0828      	l32i.n	a2, a8, 0
40080928:	052020        	extui	a2, a2, 16, 1
4008092b:	03eb90        	rsr.prid	a9
4008092e:	049d90        	extui	a9, a9, 13, 1
40080931:	0a1297        	beq	a2, a9, 4008093f <esp_intr_disable+0x93>
40080934:	13e6d0        	wsr.ps	a13
40080937:	002010        	rsync
4008093a:	a26c      	movi.n	a2, -22
4008093c:	000bc6        	j	4008096f <esp_intr_disable+0xc3>
4008093f:	0828      	l32i.n	a2, a8, 0
40080941:	452120        	extui	a2, a2, 17, 5
40080944:	180c      	movi.n	a8, 1
40080946:	401200        	ssl	a2
40080949:	a18800        	sll	a8, a8
4008094c:	03e490        	rsr.intenable	a9
4008094f:	f27c      	movi.n	a2, -1
40080951:	302280        	xor	a2, a2, a8
40080954:	102290        	and	a2, a2, a9
40080957:	13e420        	wsr.intenable	a2
4008095a:	002010        	rsync
4008095d:	febf21        	l32r	a2, 4008045c <_init_end+0x5c> (3ffc1ed8 <esp_intc_csec>)
40080960:	0228      	l32i.n	a2, a2, 0
40080962:	13e620        	wsr.ps	a2
40080965:	002010        	rsync
40080968:	020c      	movi.n	a2, 0
4008096a:	000046        	j	4008096f <esp_intr_disable+0xc3>
4008096d:	a26c      	movi.n	a2, -22
4008096f:	f01d      	retw.n
40080971:	000000        	ill

40080974 <gpio_esp32_fire_callbacks>:
40080974:	006136        	entry	a1, 48
40080977:	1288      	l32i.n	a8, a2, 4
40080979:	42a8      	l32i.n	a10, a2, 16
4008097b:	03f590        	rsr.misc1	a9
4008097e:	140992        	l8ui	a9, a9, 20
40080981:	38b8      	l32i.n	a11, a8, 12
40080983:	dbdc      	bnez.n	a11, 400809a4 <gpio_esp32_fire_callbacks+0x30>
40080985:	1888      	l32i.n	a8, a8, 4
40080987:	99cc      	bnez.n	a9, 40080994 <gpio_esp32_fire_callbacks+0x20>
40080989:	0020c0        	memw
4008098c:	1a28c2        	l32i	a12, a8, 104
4008098f:	0001c6        	j	4008099a <gpio_esp32_fire_callbacks+0x26>
40080992:	00          	.byte 00
40080993:	00          	.byte 00
40080994:	0020c0        	memw
40080997:	1828c2        	l32i	a12, a8, 96
4008099a:	0020c0        	memw
4008099d:	1368c2        	s32i	a12, a8, 76
400809a0:	0014c6        	j	400809f7 <gpio_esp32_fire_callbacks+0x83>
400809a3:	00          	.byte 00
400809a4:	1888      	l32i.n	a8, a8, 4
400809a6:	79dc      	bnez.n	a9, 400809c1 <gpio_esp32_fire_callbacks+0x4d>
400809a8:	0020c0        	memw
400809ab:	1f2892        	l32i	a9, a8, 124
400809ae:	0020c0        	memw
400809b1:	1199      	s32i.n	a9, a1, 4
400809b3:	0020c0        	memw
400809b6:	0401c2        	l8ui	a12, a1, 4
400809b9:	74c0c0        	extui	a12, a12, 0, 8
400809bc:	000586        	j	400809d6 <gpio_esp32_fire_callbacks+0x62>
400809bf:	00          	.byte 00
400809c0:	00          	.byte 00
400809c1:	0020c0        	memw
400809c4:	1d2892        	l32i	a9, a8, 116
400809c7:	0020c0        	memw
400809ca:	006192        	s32i	a9, a1, 0
400809cd:	0020c0        	memw
400809d0:	0001c2        	l8ui	a12, a1, 0
400809d3:	74c0c0        	extui	a12, a12, 0, 8
400809d6:	0020c0        	memw
400809d9:	162892        	l32i	a9, a8, 88
400809dc:	0020c0        	memw
400809df:	026192        	s32i	a9, a1, 8
400809e2:	7490c0        	extui	a9, a12, 0, 8
400809e5:	0020c0        	memw
400809e8:	084192        	s8i	a9, a1, 8
400809eb:	0020c0        	memw
400809ee:	022192        	l32i	a9, a1, 8
400809f1:	0020c0        	memw
400809f4:	166892        	s32i	a9, a8, 88
400809f7:	5c8c      	beqz.n	a12, 40080a00 <gpio_esp32_fire_callbacks+0x8c>
400809f9:	02bd      	mov.n	a11, a2
400809fb:	aa4b      	addi.n	a10, a10, 4
400809fd:	550d25        	call8	400d5ad0 <gpio_fire_callbacks>
40080a00:	f01d      	retw.n
	...

40080a04 <gpio_esp32_isr>:
40080a04:	004136        	entry	a1, 32
40080a07:	fe97a1        	l32r	a10, 40080464 <_init_end+0x64> (3f4049c0 <__device_dts_ord_11>)
40080a0a:	fff6a5        	call8	40080974 <gpio_esp32_fire_callbacks>
40080a0d:	fe96a1        	l32r	a10, 40080468 <_init_end+0x68> (3f4049a8 <__device_dts_ord_74>)
40080a10:	fff625        	call8	40080974 <gpio_esp32_fire_callbacks>
40080a13:	f01d      	retw.n
40080a15:	000000        	ill

40080a18 <spi_esp32_configure>:
40080a18:	00a136        	entry	a1, 80
40080a1b:	012252        	l32i	a5, a2, 4
40080a1e:	042242        	l32i	a4, a2, 16
40080a21:	70c422        	addi	a2, a4, 112
40080a24:	8129      	s32i.n	a2, a1, 32
40080a26:	f4a062        	movi	a6, 244
40080a29:	646a      	add.n	a6, a4, a6
40080a2b:	0428      	l32i.n	a2, a4, 0
40080a2d:	029237        	bne	a2, a3, 40080a33 <spi_esp32_configure+0x1b>
40080a30:	005906        	j	40080b98 <spi_esp32_configure+0x180>
40080a33:	15a8      	l32i.n	a10, a5, 4
40080a35:	026aa5        	call8	400830e0 <z_device_is_ready>
40080a38:	eacc      	bnez.n	a10, 40080a4a <spi_esp32_configure+0x32>
40080a3a:	5b4c      	movi.n	a11, 69
40080a3c:	fe8ca1        	l32r	a10, 4008046c <_init_end+0x6c> (3f404630 <esp32_gpio_ports_addrs+0x64>)
40080a3f:	4feca5        	call8	400d0908 <z_log_minimal_printk>
40080a42:	d26c      	movi.n	a2, -19
40080a44:	005486        	j	40080b9a <spi_esp32_configure+0x182>
40080a47:	00          	.byte 00
40080a48:	00          	.byte 00
40080a49:	00          	.byte 00
40080a4a:	0125a2        	l32i	a10, a5, 4
40080a4d:	022a22        	l32i	a2, a10, 8
40080a50:	002222        	l32i	a2, a2, 0
40080a53:	65b8      	l32i.n	a11, a5, 24
40080a55:	0002e0        	callx8	a2
40080a58:	0a2d      	mov.n	a2, a10
40080a5a:	ba8c      	beqz.n	a10, 40080a69 <spi_esp32_configure+0x51>
40080a5c:	5b4c      	movi.n	a11, 69
40080a5e:	fe84a1        	l32r	a10, 40080470 <_init_end+0x70> (3f404654 <esp32_gpio_ports_addrs+0x88>)
40080a61:	4fea65        	call8	400d0908 <z_log_minimal_printk>
40080a64:	b27c      	movi.n	a2, -5
40080a66:	004c06        	j	40080b9a <spi_esp32_configure+0x182>
40080a69:	1e2472        	l32i	a7, a4, 120
40080a6c:	00a082        	movi	a8, 0
40080a6f:	0020c0        	memw
40080a72:	056782        	s32i	a8, a7, 20
40080a75:	0020c0        	memw
40080a78:	072782        	l32i	a8, a7, 28
40080a7b:	fe7e91        	l32r	a9, 40080474 <_init_end+0x74> (feffffff <_rtc_bss_end+0xaeffffff>)
40080a7e:	108890        	and	a8, a8, a9
40080a81:	0020c0        	memw
40080a84:	7789      	s32i.n	a8, a7, 28
40080a86:	0020c0        	memw
40080a89:	7788      	l32i.n	a8, a7, 28
40080a8b:	fe7b91        	l32r	a9, 40080478 <_init_end+0x78> (fdffffff <_rtc_bss_end+0xadffffff>)
40080a8e:	108890        	and	a8, a8, a9
40080a91:	0020c0        	memw
40080a94:	7789      	s32i.n	a8, a7, 28
40080a96:	0020c0        	memw
40080a99:	e788      	l32i.n	a8, a7, 56
40080a9b:	096c      	movi.n	a9, -32
40080a9d:	108890        	and	a8, a8, a9
40080aa0:	0020c0        	memw
40080aa3:	e789      	s32i.n	a8, a7, 56
40080aa5:	0439      	s32i.n	a3, a4, 0
40080aa7:	021372        	l16ui	a7, a3, 4
40080aaa:	0e67b7        	bbci	a7, 11, 40080abc <spi_esp32_configure+0xa4>
40080aad:	5b4c      	movi.n	a11, 69
40080aaf:	fe73a1        	l32r	a10, 4008047c <_init_end+0x7c> (3f404674 <esp32_gpio_ports_addrs+0xa8>)
40080ab2:	4fe565        	call8	400d0908 <z_log_minimal_printk>
40080ab5:	7aaf22        	movi	a2, -134
40080ab8:	003786        	j	40080b9a <spi_esp32_configure+0x182>
40080abb:	00          	.byte 00
40080abc:	106707        	bbci	a7, 0, 40080ad0 <spi_esp32_configure+0xb8>
40080abf:	5b4c      	movi.n	a11, 69
40080ac1:	fe6fa1        	l32r	a10, 40080480 <_init_end+0x80> (3f404694 <esp32_gpio_ports_addrs+0xc8>)
40080ac4:	4fe425        	call8	400d0908 <z_log_minimal_printk>
40080ac7:	7aaf22        	movi	a2, -134
40080aca:	003306        	j	40080b9a <spi_esp32_configure+0x182>
40080acd:	00          	.byte 00
40080ace:	00          	.byte 00
40080acf:	00          	.byte 00
40080ad0:	0d6737        	bbci	a7, 3, 40080ae1 <spi_esp32_configure+0xc9>
40080ad3:	5b4c      	movi.n	a11, 69
40080ad5:	fe6ba1        	l32r	a10, 40080484 <_init_end+0x84> (3f4046b4 <esp32_gpio_ports_addrs+0xe8>)
40080ad8:	4fe2e5        	call8	400d0908 <z_log_minimal_printk>
40080adb:	7aaf22        	movi	a2, -134
40080ade:	002e06        	j	40080b9a <spi_esp32_configure+0x182>
40080ae1:	031382        	l16ui	a8, a3, 6
40080ae4:	f4a072        	movi	a7, 244
40080ae7:	747a      	add.n	a7, a4, a7
40080ae9:	3789      	s32i.n	a8, a7, 12
40080aeb:	0b0c      	movi.n	a11, 0
40080aed:	55a8      	l32i.n	a10, a5, 20
40080aef:	548625        	call8	400d5350 <pinctrl_apply_state>
40080af2:	7778      	l32i.n	a7, a7, 28
40080af4:	048170        	extui	a8, a7, 1, 1
40080af7:	1189      	s32i.n	a8, a1, 4
40080af9:	047470        	extui	a7, a7, 4, 1
40080afc:	2179      	s32i.n	a7, a1, 8
40080afe:	0378      	l32i.n	a7, a3, 0
40080b00:	3179      	s32i.n	a7, a1, 12
40080b02:	2578      	l32i.n	a7, a5, 8
40080b04:	002756        	bnez	a7, 40080b0a <spi_esp32_configure+0xf2>
40080b07:	80a072        	movi	a7, 128
40080b0a:	4179      	s32i.n	a7, a1, 16
40080b0c:	3578      	l32i.n	a7, a5, 12
40080b0e:	5179      	s32i.n	a7, a1, 20
40080b10:	1c0552        	l8ui	a5, a5, 28
40080b13:	170c      	movi.n	a7, 1
40080b15:	305570        	xor	a5, a5, a7
40080b18:	184152        	s8i	a5, a1, 24
40080b1b:	f4a052        	movi	a5, 244
40080b1e:	545a      	add.n	a5, a4, a5
40080b20:	10c5c2        	addi	a12, a5, 16
40080b23:	01bd      	mov.n	a11, a1
40080b25:	a14b      	addi.n	a10, a1, 4
40080b27:	500de5        	call8	400d0c04 <spi_hal_cal_clock_conf>
40080b2a:	5588      	l32i.n	a8, a5, 20
40080b2c:	496482        	s32i	a8, a4, 0x124
40080b2f:	021392        	l16ui	a9, a3, 4
40080b32:	049490        	extui	a9, a9, 4, 1
40080b35:	1199e0        	slli	a9, a9, 2
40080b38:	1c0582        	l8ui	a8, a5, 28
40080b3b:	ba7c      	movi.n	a10, -5
40080b3d:	1088a0        	and	a8, a8, a10
40080b40:	208890        	or	a8, a8, a9
40080b43:	1c4582        	s8i	a8, a5, 28
40080b46:	021392        	l16ui	a9, a3, 4
40080b49:	049490        	extui	a9, a9, 4, 1
40080b4c:	1199d0        	slli	a9, a9, 3
40080b4f:	7a7c      	movi.n	a10, -9
40080b51:	1088a0        	and	a8, a8, a10
40080b54:	208890        	or	a8, a8, a9
40080b57:	1c4582        	s8i	a8, a5, 28
40080b5a:	01d482        	addmi	a8, a4, 0x100
40080b5d:	424872        	s8i	a7, a8, 66
40080b60:	414872        	s8i	a7, a8, 65
40080b63:	404872        	s8i	a7, a8, 64
40080b66:	070c      	movi.n	a7, 0
40080b68:	516472        	s32i	a7, a4, 0x144
40080b6b:	0579      	s32i.n	a7, a5, 0
40080b6d:	021352        	l16ui	a5, a3, 4
40080b70:	046517        	bbci	a5, 1, 40080b78 <spi_esp32_configure+0x160>
40080b73:	150c      	movi.n	a5, 1
40080b75:	3d6452        	s32i	a5, a4, 244
40080b78:	021332        	l16ui	a3, a3, 4
40080b7b:	0f6327        	bbci	a3, 2, 40080b8e <spi_esp32_configure+0x176>
40080b7e:	f4a032        	movi	a3, 244
40080b81:	443a      	add.n	a4, a4, a3
40080b83:	0438      	l32i.n	a3, a4, 0
40080b85:	02a052        	movi	a5, 2
40080b88:	203350        	or	a3, a3, a5
40080b8b:	006432        	s32i	a3, a4, 0
40080b8e:	06bd      	mov.n	a11, a6
40080b90:	81a8      	l32i.n	a10, a1, 32
40080b92:	502c65        	call8	400d0e58 <spi_hal_setup_device>
40080b95:	000046        	j	40080b9a <spi_esp32_configure+0x182>
40080b98:	020c      	movi.n	a2, 0
40080b9a:	f01d      	retw.n

40080b9c <spi_esp32_transfer>:
40080b9c:	006136        	entry	a1, 48
40080b9f:	4238      	l32i.n	a3, a2, 16
40080ba1:	1258      	l32i.n	a5, a2, 4
40080ba3:	70c322        	addi	a2, a3, 112
40080ba6:	f4a042        	movi	a4, 244
40080ba9:	434a      	add.n	a4, a3, a4
40080bab:	1149      	s32i.n	a4, a1, 4
40080bad:	18a142        	movi	a4, 0x118
40080bb0:	434a      	add.n	a4, a3, a4
40080bb2:	2149      	s32i.n	a4, a1, 8
40080bb4:	1923a2        	l32i	a10, a3, 100
40080bb7:	5acc      	bnez.n	a10, 40080bc0 <spi_esp32_transfer+0x24>
40080bb9:	1b2342        	l32i	a4, a3, 108
40080bbc:	000346        	j	40080bcd <spi_esp32_transfer+0x31>
40080bbf:	00          	.byte 00
40080bc0:	1b2342        	l32i	a4, a3, 108
40080bc3:	448c      	beqz.n	a4, 40080bcb <spi_esp32_transfer+0x2f>
40080bc5:	634a40        	minu	a4, a10, a4
40080bc8:	000046        	j	40080bcd <spi_esp32_transfer+0x31>
40080bcb:	0a4d      	mov.n	a4, a10
40080bcd:	1d0552        	l8ui	a5, a5, 29
40080bd0:	658c      	beqz.n	a5, 40080bda <spi_esp32_transfer+0x3e>
40080bd2:	fe2d61        	l32r	a6, 40080488 <_init_end+0x88> (ffc <CONFIG_ISR_STACK_SIZE+0x7fc>)
40080bd5:	0000c6        	j	40080bdc <spi_esp32_transfer+0x40>
40080bd8:	00          	.byte 00
40080bd9:	00          	.byte 00
40080bda:	064c      	movi.n	a6, 64
40080bdc:	634460        	minu	a4, a4, a6
40080bdf:	1164d0        	slli	a6, a4, 3
40080be2:	0169      	s32i.n	a6, a1, 0
40080be4:	072516        	beqz	a5, 40080c5a <spi_esp32_transfer+0xbe>
40080be7:	26cc      	bnez.n	a6, 40080bed <spi_esp32_transfer+0x51>
40080be9:	850c      	movi.n	a5, 8
40080beb:	0159      	s32i.n	a5, a1, 0
40080bed:	182362        	l32i	a6, a3, 96
40080bf0:	c6ac      	beqz.n	a6, 40080c20 <spi_esp32_transfer+0x84>
40080bf2:	fe2651        	l32r	a5, 4008048c <_init_end+0x8c> (c0052000 <_rtc_bss_end+0x70052000>)
40080bf5:	565a      	add.n	a5, a6, a5
40080bf7:	fe2661        	l32r	a6, 40080490 <_init_end+0x90> (51fff <_image_irom_start+0x3870b>)
40080bfa:	20b657        	bgeu	a6, a5, 40080c1e <spi_esp32_transfer+0x82>
40080bfd:	5245e5        	call8	400d305c <__wrap_k_malloc>
40080c00:	0a6d      	mov.n	a6, a10
40080c02:	bacc      	bnez.n	a10, 40080c11 <spi_esp32_transfer+0x75>
40080c04:	5b4c      	movi.n	a11, 69
40080c06:	fe23a1        	l32r	a10, 40080494 <_init_end+0x94> (3f4046d8 <esp32_gpio_ports_addrs+0x10c>)
40080c09:	4fcfe5        	call8	400d0908 <z_log_minimal_printk>
40080c0c:	427c      	movi.n	a2, -12
40080c0e:	006146        	j	40080d97 <spi_esp32_transfer+0x1fb>
40080c11:	1923c2        	l32i	a12, a3, 100
40080c14:	1823b2        	l32i	a11, a3, 96
40080c17:	036565        	call8	4008426c <memcpy>
40080c1a:	000086        	j	40080c20 <spi_esp32_transfer+0x84>
40080c1d:	00          	.byte 00
40080c1e:	060c      	movi.n	a6, 0
40080c20:	1a2352        	l32i	a5, a3, 104
40080c23:	03d516        	beqz	a5, 40080c64 <spi_esp32_transfer+0xc8>
40080c26:	fe1971        	l32r	a7, 4008048c <_init_end+0x8c> (c0052000 <_rtc_bss_end+0x70052000>)
40080c29:	807570        	add	a7, a5, a7
40080c2c:	fe1981        	l32r	a8, 40080490 <_init_end+0x90> (51fff <_image_irom_start+0x3870b>)
40080c2f:	053877        	bltu	a8, a7, 40080c38 <spi_esp32_transfer+0x9c>
40080c32:	145050        	extui	a5, a5, 0, 2
40080c35:	029516        	beqz	a5, 40080c62 <spi_esp32_transfer+0xc6>
40080c38:	1b23a2        	l32i	a10, a3, 108
40080c3b:	11aad0        	slli	a10, a10, 3
40080c3e:	1fcaa2        	addi	a10, a10, 31
40080c41:	1b0c      	movi.n	a11, 1
40080c43:	41a3a0        	srli	a10, a10, 3
40080c46:	5242a5        	call8	400d3070 <__wrap_k_calloc>
40080c49:	0a5d      	mov.n	a5, a10
40080c4b:	5adc      	bnez.n	a10, 40080c64 <spi_esp32_transfer+0xc8>
40080c4d:	5b4c      	movi.n	a11, 69
40080c4f:	fe12a1        	l32r	a10, 40080498 <_init_end+0x98> (3f404700 <esp32_gpio_ports_addrs+0x134>)
40080c52:	4fcb65        	call8	400d0908 <z_log_minimal_printk>
40080c55:	427c      	movi.n	a2, -12
40080c57:	004f06        	j	40080d97 <spi_esp32_transfer+0x1fb>
40080c5a:	060c      	movi.n	a6, 0
40080c5c:	065d      	mov.n	a5, a6
40080c5e:	000086        	j	40080c64 <spi_esp32_transfer+0xc8>
40080c61:	00          	.byte 00
40080c62:	050c      	movi.n	a5, 0
40080c64:	1e23a2        	l32i	a10, a3, 120
40080c67:	40a0c2        	movi	a12, 64
40080c6a:	00a0b2        	movi	a11, 0
40080c6d:	80a072        	movi	a7, 128
40080c70:	80aa70        	add	a10, a10, a7
40080c73:	0364a5        	call8	400842bc <memset>
40080c76:	46cc      	bnez.n	a6, 40080c7e <spi_esp32_transfer+0xe2>
40080c78:	182372        	l32i	a7, a3, 96
40080c7b:	000046        	j	40080c80 <spi_esp32_transfer+0xe4>
40080c7e:	067d      	mov.n	a7, a6
40080c80:	4e6372        	s32i	a7, a3, 0x138
40080c83:	55cc      	bnez.n	a5, 40080c8c <spi_esp32_transfer+0xf0>
40080c85:	1a2382        	l32i	a8, a3, 104
40080c88:	000086        	j	40080c8e <spi_esp32_transfer+0xf2>
40080c8b:	00          	.byte 00
40080c8c:	058d      	mov.n	a8, a5
40080c8e:	01d372        	addmi	a7, a3, 0x100
40080c91:	4f6382        	s32i	a8, a3, 0x13c
40080c94:	0188      	l32i.n	a8, a1, 0
40080c96:	4a6382        	s32i	a8, a3, 0x128
40080c99:	4b6382        	s32i	a8, a3, 0x12c
40080c9c:	21c8      	l32i.n	a12, a1, 8
40080c9e:	11b8      	l32i.n	a11, a1, 4
40080ca0:	20a220        	or	a10, a2, a2
40080ca3:	503ce5        	call8	400d1070 <spi_hal_setup_trans>
40080ca6:	21c8      	l32i.n	a12, a1, 8
40080ca8:	11b8      	l32i.n	a11, a1, 4
40080caa:	02ad      	mov.n	a10, a2
40080cac:	505ee5        	call8	400d129c <spi_hal_prepare_data>
40080caf:	02ad      	mov.n	a10, a2
40080cb1:	507ce5        	call8	400d1480 <spi_hal_user_start>
40080cb4:	4807d2        	l8ui	a13, a7, 72
40080cb7:	192372        	l32i	a7, a3, 100
40080cba:	04b716        	beqz	a7, 40080d09 <spi_esp32_transfer+0x16d>
40080cbd:	0cb747        	bgeu	a7, a4, 40080ccd <spi_esp32_transfer+0x131>
40080cc0:	5b4c      	movi.n	a11, 69
40080cc2:	fdf6a1        	l32r	a10, 4008049c <_init_end+0x9c> (3f404728 <esp32_gpio_ports_addrs+0x15c>)
40080cc5:	4fc425        	call8	400d0908 <z_log_minimal_printk>
40080cc8:	000f46        	j	40080d09 <spi_esp32_transfer+0x16d>
40080ccb:	00          	.byte 00
40080ccc:	00          	.byte 00
40080ccd:	c07740        	sub	a7, a7, a4
40080cd0:	196372        	s32i	a7, a3, 100
40080cd3:	025756        	bnez	a7, 40080cfc <spi_esp32_transfer+0x160>
40080cd6:	142372        	l32i	a7, a3, 80
40080cd9:	08c772        	addi	a7, a7, 8
40080cdc:	146372        	s32i	a7, a3, 80
40080cdf:	152372        	l32i	a7, a3, 84
40080ce2:	ffc772        	addi	a7, a7, -1
40080ce5:	156372        	s32i	a7, a3, 84
40080ce8:	64c3c2        	addi	a12, a3, 100
40080ceb:	54c3b2        	addi	a11, a3, 84
40080cee:	50c3a2        	addi	a10, a3, 80
40080cf1:	5502a5        	call8	400d5d1c <spi_context_get_next_buf>
40080cf4:	1863a2        	s32i	a10, a3, 96
40080cf7:	000386        	j	40080d09 <spi_esp32_transfer+0x16d>
40080cfa:	00          	.byte 00
40080cfb:	00          	.byte 00
40080cfc:	182372        	l32i	a7, a3, 96
40080cff:	678c      	beqz.n	a7, 40080d09 <spi_esp32_transfer+0x16d>
40080d01:	82dd40        	mull	a13, a13, a4
40080d04:	77da      	add.n	a7, a7, a13
40080d06:	186372        	s32i	a7, a3, 96
40080d09:	20a220        	or	a10, a2, a2
40080d0c:	54aea5        	call8	400d57f8 <spi_hal_usr_is_done>
40080d0f:	ff6a16        	beqz	a10, 40080d09 <spi_esp32_transfer+0x16d>
40080d12:	20a220        	or	a10, a2, a2
40080d15:	507825        	call8	400d1498 <spi_hal_fetch_result>
40080d18:	858c      	beqz.n	a5, 40080d24 <spi_esp32_transfer+0x188>
40080d1a:	04cd      	mov.n	a12, a4
40080d1c:	05bd      	mov.n	a11, a5
40080d1e:	1a23a2        	l32i	a10, a3, 104
40080d21:	0354a5        	call8	4008426c <memcpy>
40080d24:	01d322        	addmi	a2, a3, 0x100
40080d27:	4802d2        	l8ui	a13, a2, 72
40080d2a:	1b2322        	l32i	a2, a3, 108
40080d2d:	04c216        	beqz	a2, 40080d7d <spi_esp32_transfer+0x1e1>
40080d30:	0db247        	bgeu	a2, a4, 40080d41 <spi_esp32_transfer+0x1a5>
40080d33:	5b4c      	movi.n	a11, 69
40080d35:	fdd9a1        	l32r	a10, 4008049c <_init_end+0x9c> (3f404728 <esp32_gpio_ports_addrs+0x15c>)
40080d38:	4fbce5        	call8	400d0908 <z_log_minimal_printk>
40080d3b:	000f86        	j	40080d7d <spi_esp32_transfer+0x1e1>
40080d3e:	00          	.byte 00
40080d3f:	00          	.byte 00
40080d40:	00          	.byte 00
40080d41:	c02240        	sub	a2, a2, a4
40080d44:	1b6322        	s32i	a2, a3, 108
40080d47:	023256        	bnez	a2, 40080d6e <spi_esp32_transfer+0x1d2>
40080d4a:	162322        	l32i	a2, a3, 88
40080d4d:	08c222        	addi	a2, a2, 8
40080d50:	166322        	s32i	a2, a3, 88
40080d53:	172322        	l32i	a2, a3, 92
40080d56:	ffc222        	addi	a2, a2, -1
40080d59:	176322        	s32i	a2, a3, 92
40080d5c:	6cc3c2        	addi	a12, a3, 108
40080d5f:	5cc3b2        	addi	a11, a3, 92
40080d62:	58c3a2        	addi	a10, a3, 88
40080d65:	54fb65        	call8	400d5d1c <spi_context_get_next_buf>
40080d68:	1a63a2        	s32i	a10, a3, 104
40080d6b:	000386        	j	40080d7d <spi_esp32_transfer+0x1e1>
40080d6e:	1a2322        	l32i	a2, a3, 104
40080d71:	008216        	beqz	a2, 40080d7d <spi_esp32_transfer+0x1e1>
40080d74:	82dd40        	mull	a13, a13, a4
40080d77:	8022d0        	add	a2, a2, a13
40080d7a:	1a6322        	s32i	a2, a3, 104
40080d7d:	005616        	beqz	a6, 40080d86 <spi_esp32_transfer+0x1ea>
40080d80:	20a660        	or	a10, a6, a6
40080d83:	020225        	call8	40082da4 <k_free>
40080d86:	00b516        	beqz	a5, 40080d95 <spi_esp32_transfer+0x1f9>
40080d89:	20a550        	or	a10, a5, a5
40080d8c:	020165        	call8	40082da4 <k_free>
40080d8f:	00a022        	movi	a2, 0
40080d92:	000046        	j	40080d97 <spi_esp32_transfer+0x1fb>
40080d95:	020c      	movi.n	a2, 0
40080d97:	f01d      	retw.n
40080d99:	000000        	ill

40080d9c <spi_esp32_isr>:
40080d9c:	004136        	entry	a1, 32
40080d9f:	1248      	l32i.n	a4, a2, 4
40080da1:	042232        	l32i	a3, a2, 16
40080da4:	20a220        	or	a10, a2, a2
40080da7:	ffdf65        	call8	40080b9c <spi_esp32_transfer>
40080daa:	03ad      	mov.n	a10, a3
40080dac:	54f9e5        	call8	400d5d4c <spi_esp32_transfer_ongoing>
40080daf:	ff1a56        	bnez	a10, 40080da4 <spi_esp32_isr+0x8>
40080db2:	0d0c      	movi.n	a13, 0
40080db4:	04c8      	l32i.n	a12, a4, 0
40080db6:	03bd      	mov.n	a11, a3
40080db8:	02ad      	mov.n	a10, a2
40080dba:	544c65        	call8	400d5280 <spi_esp32_complete>
40080dbd:	f01d      	retw.n
	...

40080dc0 <_Level1Vector>:
40080dc0:	c0c112        	addi	a1, a1, -64
40080dc3:	8109      	s32i.n	a0, a1, 32
40080dc5:	a129      	s32i.n	a2, a1, 40
40080dc7:	b139      	s32i.n	a3, a1, 44
40080dc9:	03e600        	rsr.ps	a0
40080dcc:	026c      	movi.n	a2, -32
40080dce:	100020        	and	a0, a0, a2
40080dd1:	6109      	s32i.n	a0, a1, 24
40080dd3:	03b100        	rsr.epc1	a0
40080dd6:	7109      	s32i.n	a0, a1, 28
40080dd8:	000206        	j	40080de4 <_after_imms1>
	...

40080ddc <_handle_excint_imm1>:
40080ddc:	101c      	movi.n	a0, 17
40080dde:	4008      	l32i.n	a0, a0, 16

40080de0 <_c_handler_imm1>:
40080de0:	081574        	lsi	f7, a5, 32
40080de3:	40          	.byte 0x40

40080de4 <_after_imms1>:
40080de4:	ffff21        	l32r	a2, 40080de0 <_c_handler_imm1> (40081574 <xtensa_excint1_c>)
40080de7:	fffd01        	l32r	a0, 40080ddc <_handle_excint_imm1> (4008101c <_handle_excint>)
40080dea:	0000a0        	jx	a0
40080ded:	000000        	ill

40080df0 <arch_cpu_idle>:
40080df0:	004136        	entry	a1, 32
40080df3:	5490a5        	call8	400d56fc <sys_trace_idle>
40080df6:	007000        	waiti	0
40080df9:	f01d      	retw.n
	...

40080dfc <z_xtensa_exccause>:
40080dfc:	004136        	entry	a1, 32
40080dff:	f83c      	movi.n	a8, 63
40080e01:	02b827        	bgeu	a8, a2, 40080e07 <z_xtensa_exccause+0xb>
40080e04:	002506        	j	40080e9c <z_xtensa_exccause+0xa0>
40080e07:	fdbf81        	l32r	a8, 40080504 <_init_end+0x104> (3ffc024c <timeout_list+0x204>)
40080e0a:	a02280        	addx4	a2, a2, a8
40080e0d:	0228      	l32i.n	a2, a2, 0
40080e0f:	0002a0        	jx	a2
40080e12:	fda321        	l32r	a2, 400804a0 <_init_end+0xa0> (3ffc0050 <timeout_list+0x8>)
40080e15:	002306        	j	40080ea5 <z_xtensa_exccause+0xa9>
40080e18:	fda421        	l32r	a2, 400804a8 <_init_end+0xa8> (3ffc006c <timeout_list+0x24>)
40080e1b:	002186        	j	40080ea5 <z_xtensa_exccause+0xa9>
40080e1e:	fda321        	l32r	a2, 400804ac <_init_end+0xac> (3ffc0080 <timeout_list+0x38>)
40080e21:	002006        	j	40080ea5 <z_xtensa_exccause+0xa9>
40080e24:	fda321        	l32r	a2, 400804b0 <_init_end+0xb0> (3ffc0094 <timeout_list+0x4c>)
40080e27:	001e86        	j	40080ea5 <z_xtensa_exccause+0xa9>
40080e2a:	fda221        	l32r	a2, 400804b4 <_init_end+0xb4> (3ffc00a8 <timeout_list+0x60>)
40080e2d:	001d06        	j	40080ea5 <z_xtensa_exccause+0xa9>
40080e30:	fda221        	l32r	a2, 400804b8 <_init_end+0xb8> (3ffc00b0 <timeout_list+0x68>)
40080e33:	001b86        	j	40080ea5 <z_xtensa_exccause+0xa9>
40080e36:	fda121        	l32r	a2, 400804bc <_init_end+0xbc> (3ffc00c0 <timeout_list+0x78>)
40080e39:	001a06        	j	40080ea5 <z_xtensa_exccause+0xa9>
40080e3c:	fda121        	l32r	a2, 400804c0 <_init_end+0xc0> (3ffc00cc <timeout_list+0x84>)
40080e3f:	001886        	j	40080ea5 <z_xtensa_exccause+0xa9>
40080e42:	fda021        	l32r	a2, 400804c4 <_init_end+0xc4> (3ffc00e4 <timeout_list+0x9c>)
40080e45:	001706        	j	40080ea5 <z_xtensa_exccause+0xa9>
40080e48:	fda021        	l32r	a2, 400804c8 <_init_end+0xc8> (3ffc00fc <timeout_list+0xb4>)
40080e4b:	001586        	j	40080ea5 <z_xtensa_exccause+0xa9>
40080e4e:	fd9f21        	l32r	a2, 400804cc <_init_end+0xcc> (3ffc0118 <timeout_list+0xd0>)
40080e51:	001406        	j	40080ea5 <z_xtensa_exccause+0xa9>
40080e54:	fd9f21        	l32r	a2, 400804d0 <_init_end+0xd0> (3ffc0130 <timeout_list+0xe8>)
40080e57:	001286        	j	40080ea5 <z_xtensa_exccause+0xa9>
40080e5a:	fd9e21        	l32r	a2, 400804d4 <_init_end+0xd4> (3ffc014c <timeout_list+0x104>)
40080e5d:	001106        	j	40080ea5 <z_xtensa_exccause+0xa9>
40080e60:	fd9e21        	l32r	a2, 400804d8 <_init_end+0xd8> (3ffc015c <timeout_list+0x114>)
40080e63:	000f86        	j	40080ea5 <z_xtensa_exccause+0xa9>
40080e66:	fd9d21        	l32r	a2, 400804dc <_init_end+0xdc> (3ffc0170 <timeout_list+0x128>)
40080e69:	000e06        	j	40080ea5 <z_xtensa_exccause+0xa9>
40080e6c:	fd9d21        	l32r	a2, 400804e0 <_init_end+0xe0> (3ffc0188 <timeout_list+0x140>)
40080e6f:	000c86        	j	40080ea5 <z_xtensa_exccause+0xa9>
40080e72:	fd9c21        	l32r	a2, 400804e4 <_init_end+0xe4> (3ffc01a0 <timeout_list+0x158>)
40080e75:	000b06        	j	40080ea5 <z_xtensa_exccause+0xa9>
40080e78:	fd9c21        	l32r	a2, 400804e8 <_init_end+0xe8> (3ffc01b4 <timeout_list+0x16c>)
40080e7b:	000986        	j	40080ea5 <z_xtensa_exccause+0xa9>
40080e7e:	fd9b21        	l32r	a2, 400804ec <_init_end+0xec> (3ffc01d0 <timeout_list+0x188>)
40080e81:	000806        	j	40080ea5 <z_xtensa_exccause+0xa9>
40080e84:	fd9b21        	l32r	a2, 400804f0 <_init_end+0xf0> (3ffc01e8 <timeout_list+0x1a0>)
40080e87:	000686        	j	40080ea5 <z_xtensa_exccause+0xa9>
40080e8a:	fd9a21        	l32r	a2, 400804f4 <_init_end+0xf4> (3ffc01f8 <timeout_list+0x1b0>)
40080e8d:	000506        	j	40080ea5 <z_xtensa_exccause+0xa9>
40080e90:	fd9a21        	l32r	a2, 400804f8 <_init_end+0xf8> (3ffc020c <timeout_list+0x1c4>)
40080e93:	000386        	j	40080ea5 <z_xtensa_exccause+0xa9>
40080e96:	fd9921        	l32r	a2, 400804fc <_init_end+0xfc> (3ffc0224 <timeout_list+0x1dc>)
40080e99:	000206        	j	40080ea5 <z_xtensa_exccause+0xa9>
40080e9c:	fd9921        	l32r	a2, 40080500 <_init_end+0x100> (3ffc0238 <timeout_list+0x1f0>)
40080e9f:	000086        	j	40080ea5 <z_xtensa_exccause+0xa9>
40080ea2:	fd8021        	l32r	a2, 400804a4 <_init_end+0xa4> (3ffc0064 <timeout_list+0x1c>)
40080ea5:	f01d      	retw.n
	...

40080ea8 <z_xtensa_fatal_error>:
40080ea8:	004136        	entry	a1, 32
40080eab:	939c      	beqz.n	a3, 40080ec8 <z_xtensa_fatal_error+0x20>
40080ead:	006340        	rsil	a4, 3
40080eb0:	03ad      	mov.n	a10, a3
40080eb2:	0050e5        	call8	400813c0 <z_xtensa_dump_stack>
40080eb5:	018b65        	call8	4008276c <z_impl_z_current_get>
40080eb8:	0acd      	mov.n	a12, a10
40080eba:	20b330        	or	a11, a3, a3
40080ebd:	02ad      	mov.n	a10, a2
40080ebf:	522fe5        	call8	400d31bc <coredump>
40080ec2:	13e640        	wsr.ps	a4
40080ec5:	002010        	rsync
40080ec8:	20b330        	or	a11, a3, a3
40080ecb:	64a0a2        	movi	a10, 100
40080ece:	007fa5        	call8	400816c8 <z_xtensa_backtrace_print>
40080ed1:	03bd      	mov.n	a11, a3
40080ed3:	02ad      	mov.n	a10, a2
40080ed5:	00a725        	call8	40081948 <z_fatal_error>
40080ed8:	f01d      	retw.n
	...

40080edc <xtensa_spill_reg_windows>:
40080edc:	10ccc0        	and	a12, a12, a12
40080edf:	408030        	rotw	3
40080ee2:	10ccc0        	and	a12, a12, a12
40080ee5:	408030        	rotw	3
40080ee8:	10ccc0        	and	a12, a12, a12
40080eeb:	408030        	rotw	3
40080eee:	10ccc0        	and	a12, a12, a12
40080ef1:	408030        	rotw	3
40080ef4:	10ccc0        	and	a12, a12, a12
40080ef7:	408040        	rotw	4
40080efa:	f00d      	ret.n

40080efc <xtensa_save_high_regs>:
40080efc:	034920        	rsr.windowstart	a2
40080eff:	113200        	slli	a3, a2, 16
40080f02:	202230        	or	a2, a2, a3
40080f05:	034830        	rsr.windowbase	a3
40080f08:	400300        	ssr	a3
40080f0b:	912020        	srl	a2, a2
40080f0e:	013d      	mov.n	a3, a1
40080f10:	28e217        	bbsi	a2, 1, 40080f3c <_high_gpr_spill_done>
40080f13:	f0c112        	addi	a1, a1, -16
40080f16:	0149      	s32i.n	a4, a1, 0
40080f18:	1159      	s32i.n	a5, a1, 4
40080f1a:	2169      	s32i.n	a6, a1, 8
40080f1c:	3179      	s32i.n	a7, a1, 12
40080f1e:	1ae227        	bbsi	a2, 2, 40080f3c <_high_gpr_spill_done>
40080f21:	f0c112        	addi	a1, a1, -16
40080f24:	0189      	s32i.n	a8, a1, 0
40080f26:	1199      	s32i.n	a9, a1, 4
40080f28:	21a9      	s32i.n	a10, a1, 8
40080f2a:	31b9      	s32i.n	a11, a1, 12
40080f2c:	0ce237        	bbsi	a2, 3, 40080f3c <_high_gpr_spill_done>
40080f2f:	f0c112        	addi	a1, a1, -16
40080f32:	01c9      	s32i.n	a12, a1, 0
40080f34:	11d9      	s32i.n	a13, a1, 4
40080f36:	0261e2        	s32i	a14, a1, 8
40080f39:	0361f2        	s32i	a15, a1, 12

40080f3c <_high_gpr_spill_done>:
40080f3c:	fcc112        	addi	a1, a1, -4
40080f3f:	0139      	s32i.n	a3, a1, 0
40080f41:	f00d      	ret.n
	...

40080f44 <xtensa_restore_high_regs>:
40080f44:	0128      	l32i.n	a2, a1, 0
40080f46:	114b      	addi.n	a1, a1, 4
40080f48:	023d      	mov.n	a3, a2
40080f4a:	261127        	beq	a1, a2, 40080f74 <_high_restore_done>
40080f4d:	f0c222        	addi	a2, a2, -16
40080f50:	0248      	l32i.n	a4, a2, 0
40080f52:	1258      	l32i.n	a5, a2, 4
40080f54:	2268      	l32i.n	a6, a2, 8
40080f56:	3278      	l32i.n	a7, a2, 12
40080f58:	181127        	beq	a1, a2, 40080f74 <_high_restore_done>
40080f5b:	f0c222        	addi	a2, a2, -16
40080f5e:	0288      	l32i.n	a8, a2, 0
40080f60:	1298      	l32i.n	a9, a2, 4
40080f62:	22a8      	l32i.n	a10, a2, 8
40080f64:	32b8      	l32i.n	a11, a2, 12
40080f66:	0a1127        	beq	a1, a2, 40080f74 <_high_restore_done>
40080f69:	f0c222        	addi	a2, a2, -16
40080f6c:	02c8      	l32i.n	a12, a2, 0
40080f6e:	12d8      	l32i.n	a13, a2, 4
40080f70:	22e8      	l32i.n	a14, a2, 8
40080f72:	32f8      	l32i.n	a15, a2, 12

40080f74 <_high_restore_done>:
40080f74:	031d      	mov.n	a1, a3
40080f76:	f00d      	ret.n
	...

40080f79 <_restore_context>:
40080f79:	fffc85        	call0	40080f44 <xtensa_restore_high_regs>
40080f7c:	7108      	l32i.n	a0, a1, 28
40080f7e:	13b500        	wsr.epc5	a0
40080f81:	6108      	l32i.n	a0, a1, 24
40080f83:	13c500        	wsr.eps5	a0
40080f86:	5108      	l32i.n	a0, a1, 20
40080f88:	130300        	wsr.sar	a0
40080f8b:	4108      	l32i.n	a0, a1, 16
40080f8d:	130000        	wsr.lbeg	a0
40080f90:	3108      	l32i.n	a0, a1, 12
40080f92:	130100        	wsr.lend	a0
40080f95:	2108      	l32i.n	a0, a1, 8
40080f97:	130200        	wsr.lcount	a0
40080f9a:	0108      	l32i.n	a0, a1, 0
40080f9c:	130c00        	wsr.scompare1	a0
40080f9f:	002010        	rsync
40080fa2:	8108      	l32i.n	a0, a1, 32
40080fa4:	a128      	l32i.n	a2, a1, 40
40080fa6:	b138      	l32i.n	a3, a1, 44
40080fa8:	40c112        	addi	a1, a1, 64
40080fab:	003510        	rfi	5
	...

40080fb0 <xtensa_arch_except>:
40080fb0:	002136        	entry	a1, 16

40080fb3 <xtensa_arch_except_epc>:
40080fb3:	000000        	ill
40080fb6:	f01d      	retw.n

40080fb8 <xtensa_switch>:
40080fb8:	002136        	entry	a1, 16
40080fbb:	10ccc0        	and	a12, a12, a12
40080fbe:	408030        	rotw	3
40080fc1:	10ccc0        	and	a12, a12, a12
40080fc4:	408030        	rotw	3
40080fc7:	10ccc0        	and	a12, a12, a12
40080fca:	408030        	rotw	3
40080fcd:	10ccc0        	and	a12, a12, a12
40080fd0:	408030        	rotw	3
40080fd3:	10ccc0        	and	a12, a12, a12
40080fd6:	408040        	rotw	4
40080fd9:	c0c112        	addi	a1, a1, -64
40080fdc:	8109      	s32i.n	a0, a1, 32
40080fde:	a129      	s32i.n	a2, a1, 40
40080fe0:	b139      	s32i.n	a3, a1, 44
40080fe2:	030300        	rsr.sar	a0
40080fe5:	5109      	s32i.n	a0, a1, 20
40080fe7:	030000        	rsr.lbeg	a0
40080fea:	4109      	s32i.n	a0, a1, 16
40080fec:	030100        	rsr.lend	a0
40080fef:	3109      	s32i.n	a0, a1, 12
40080ff1:	030200        	rsr.lcount	a0
40080ff4:	2109      	s32i.n	a0, a1, 8
40080ff6:	03e800        	rsr.exccause	a0
40080ff9:	1109      	s32i.n	a0, a1, 4
40080ffb:	030c00        	rsr.scompare1	a0
40080ffe:	0109      	s32i.n	a0, a1, 0
40081000:	03e600        	rsr.ps	a0
40081003:	6109      	s32i.n	a0, a1, 24
40081005:	fd4001        	l32r	a0, 40080508 <_init_end+0x108> (40081018 <_switch_restore_pc>)
40081008:	7109      	s32i.n	a0, a1, 28
4008100a:	ffef05        	call0	40080efc <xtensa_save_high_regs>
4008100d:	0128      	l32i.n	a2, a1, 0
4008100f:	b238      	l32i.n	a3, a2, 44
40081011:	0319      	s32i.n	a1, a3, 0
40081013:	a218      	l32i.n	a1, a2, 40
40081015:	ffd806        	j	40080f79 <_restore_context>

40081018 <_switch_restore_pc>:
40081018:	f01d      	retw.n
	...

4008101c <_handle_excint>:
4008101c:	9129      	s32i.n	a2, a1, 36
4008101e:	030300        	rsr.sar	a0
40081021:	5109      	s32i.n	a0, a1, 20
40081023:	030000        	rsr.lbeg	a0
40081026:	4109      	s32i.n	a0, a1, 16
40081028:	030100        	rsr.lend	a0
4008102b:	3109      	s32i.n	a0, a1, 12
4008102d:	030200        	rsr.lcount	a0
40081030:	026102        	s32i	a0, a1, 8
40081033:	03e800        	rsr.exccause	a0
40081036:	016102        	s32i	a0, a1, 4
40081039:	030c00        	rsr.scompare1	a0
4008103c:	0109      	s32i.n	a0, a1, 0
4008103e:	ffebc5        	call0	40080efc <xtensa_save_high_regs>
40081041:	0128      	l32i.n	a2, a1, 0
40081043:	9228      	l32i.n	a2, a2, 36
40081045:	03e600        	rsr.ps	a0
40081048:	f30c      	movi.n	a3, 15
4008104a:	100030        	and	a0, a0, a3
4008104d:	00b056        	bnez	a0, 4008105c <_not_l1>
40081050:	03e600        	rsr.ps	a0
40081053:	01a032        	movi	a3, 1
40081056:	200030        	or	a0, a0, a3
40081059:	13e600        	wsr.ps	a0

4008105c <_not_l1>:
4008105c:	03e600        	rsr.ps	a0
4008105f:	f36c      	movi.n	a3, -17
40081061:	100030        	and	a0, a0, a3
40081064:	13e600        	wsr.ps	a0
40081067:	002010        	rsync
4008106a:	03f530        	rsr.misc1	a3
4008106d:	0308      	l32i.n	a0, a3, 0
4008106f:	708c      	beqz.n	a0, 4008107a <_switch_stacks_3>
40081071:	001b      	addi.n	a0, a0, 1
40081073:	0309      	s32i.n	a0, a3, 0
40081075:	013d      	mov.n	a3, a1
40081077:	000206        	j	40081083 <_do_call_3>

4008107a <_switch_stacks_3>:
4008107a:	01c002        	addi	a0, a0, 1
4008107d:	006302        	s32i	a0, a3, 0
40081080:	012332        	l32i	a3, a3, 4

40081083 <_do_call_3>:
40081083:	036d      	mov.n	a6, a3
40081085:	01ad      	mov.n	a10, a1
40081087:	013d      	mov.n	a3, a1
40081089:	02bd      	mov.n	a11, a2
4008108b:	0118      	l32i.n	a1, a1, 0
4008108d:	8108      	l32i.n	a0, a1, 32
4008108f:	40c112        	addi	a1, a1, 64
40081092:	000095        	call4	4008109c <_xstack_call0_5>
40081095:	031d      	mov.n	a1, a3
40081097:	062d      	mov.n	a2, a6
40081099:	000386        	j	400810ab <_xstack_returned_5>

4008109c <_xstack_call0_5>:
4008109c:	002136        	entry	a1, 16
4008109f:	021d      	mov.n	a1, a2
400810a1:	000055        	call4	400810a8 <_xstack_call1_5>
400810a4:	062d      	mov.n	a2, a6
400810a6:	f01d      	retw.n

400810a8 <_xstack_call1_5>:
400810a8:	0007a0        	jx	a7

400810ab <_xstack_returned_5>:
400810ab:	006700        	rsil	a0, 7
400810ae:	03f530        	rsr.misc1	a3
400810b1:	0308      	l32i.n	a0, a3, 0
400810b3:	000b      	addi.n	a0, a0, -1
400810b5:	0309      	s32i.n	a0, a3, 0
400810b7:	261617        	beq	a6, a1, 400810e1 <_restore_3>
400810ba:	0118      	l32i.n	a1, a1, 0
400810bc:	8108      	l32i.n	a0, a1, 32
400810be:	40c112        	addi	a1, a1, 64
400810c1:	10ccc0        	and	a12, a12, a12
400810c4:	408030        	rotw	3
400810c7:	10ccc0        	and	a12, a12, a12
400810ca:	408030        	rotw	3
400810cd:	10ccc0        	and	a12, a12, a12
400810d0:	408030        	rotw	3
400810d3:	10ccc0        	and	a12, a12, a12
400810d6:	408030        	rotw	3
400810d9:	10ccc0        	and	a12, a12, a12
400810dc:	408040        	rotw	4
400810df:	061d      	mov.n	a1, a6

400810e1 <_restore_3>:
400810e1:	ffa506        	j	40080f79 <_restore_context>

400810e4 <_xtensa_handle_one_int1>:
400810e4:	004136        	entry	a1, 32
400810e7:	648020        	extui	a8, a2, 0, 7
400810ea:	e8ac      	beqz.n	a8, 4008111c <_xtensa_handle_one_int1+0x38>
400810ec:	248020        	extui	a8, a2, 0, 3
400810ef:	d88c      	beqz.n	a8, 40081100 <_xtensa_handle_one_int1+0x1c>
400810f1:	6de207        	bbsi	a2, 0, 40081162 <_xtensa_handle_one_int1+0x7e>
400810f4:	71e217        	bbsi	a2, 1, 40081169 <_xtensa_handle_one_int1+0x85>
400810f7:	75e227        	bbsi	a2, 2, 40081170 <_xtensa_handle_one_int1+0x8c>
400810fa:	020c      	movi.n	a2, 0
400810fc:	003786        	j	400811de <_xtensa_handle_one_int1+0xfa>
400810ff:	00          	.byte 00
40081100:	881c      	movi.n	a8, 24
40081102:	0a0287        	bnone	a2, a8, 40081110 <_xtensa_handle_one_int1+0x2c>
40081105:	6fe237        	bbsi	a2, 3, 40081178 <_xtensa_handle_one_int1+0x94>
40081108:	73e247        	bbsi	a2, 4, 4008117f <_xtensa_handle_one_int1+0x9b>
4008110b:	020c      	movi.n	a2, 0
4008110d:	003346        	j	400811de <_xtensa_handle_one_int1+0xfa>
40081110:	72e257        	bbsi	a2, 5, 40081186 <_xtensa_handle_one_int1+0xa2>
40081113:	76e267        	bbsi	a2, 6, 4008118d <_xtensa_handle_one_int1+0xa9>
40081116:	020c      	movi.n	a2, 0
40081118:	003086        	j	400811de <_xtensa_handle_one_int1+0xfa>
4008111b:	00          	.byte 00
4008111c:	80a782        	movi	a8, 0x780
4008111f:	1d0287        	bnone	a2, a8, 40081140 <_xtensa_handle_one_int1+0x5c>
40081122:	80a182        	movi	a8, 0x180
40081125:	0b0287        	bnone	a2, a8, 40081134 <_xtensa_handle_one_int1+0x50>
40081128:	68e277        	bbsi	a2, 7, 40081194 <_xtensa_handle_one_int1+0xb0>
4008112b:	6de287        	bbsi	a2, 8, 4008119c <_xtensa_handle_one_int1+0xb8>
4008112e:	020c      	movi.n	a2, 0
40081130:	002a86        	j	400811de <_xtensa_handle_one_int1+0xfa>
40081133:	00          	.byte 00
40081134:	6ce297        	bbsi	a2, 9, 400811a4 <_xtensa_handle_one_int1+0xc0>
40081137:	71e2a7        	bbsi	a2, 10, 400811ac <_xtensa_handle_one_int1+0xc8>
4008113a:	020c      	movi.n	a2, 0
4008113c:	002786        	j	400811de <_xtensa_handle_one_int1+0xfa>
4008113f:	00          	.byte 00
40081140:	fcf781        	l32r	a8, 4008051c <_init_end+0x11c> (3000 <CONFIG_SYS_CLOCK_TICKS_PER_SEC+0x8f0>)
40081143:	0a0287        	bnone	a2, a8, 40081151 <_xtensa_handle_one_int1+0x6d>
40081146:	6ae2c7        	bbsi	a2, 12, 400811b4 <_xtensa_handle_one_int1+0xd0>
40081149:	6fe2d7        	bbsi	a2, 13, 400811bc <_xtensa_handle_one_int1+0xd8>
4008114c:	020c      	movi.n	a2, 0
4008114e:	002306        	j	400811de <_xtensa_handle_one_int1+0xfa>
40081151:	71f217        	bbsi	a2, 17, 400811c6 <_xtensa_handle_one_int1+0xe2>
40081154:	02f227        	bbsi	a2, 18, 4008115a <_xtensa_handle_one_int1+0x76>
40081157:	002046        	j	400811dc <_xtensa_handle_one_int1+0xf8>
4008115a:	281c      	movi.n	a8, 18
4008115c:	fcef21        	l32r	a2, 40080518 <_init_end+0x118> (40000 <_image_irom_start+0x2670c>)
4008115f:	001a06        	j	400811cb <_xtensa_handle_one_int1+0xe7>
40081162:	080c      	movi.n	a8, 0
40081164:	120c      	movi.n	a2, 1
40081166:	001846        	j	400811cb <_xtensa_handle_one_int1+0xe7>
40081169:	180c      	movi.n	a8, 1
4008116b:	220c      	movi.n	a2, 2
4008116d:	001686        	j	400811cb <_xtensa_handle_one_int1+0xe7>
40081170:	280c      	movi.n	a8, 2
40081172:	420c      	movi.n	a2, 4
40081174:	0014c6        	j	400811cb <_xtensa_handle_one_int1+0xe7>
40081177:	00          	.byte 00
40081178:	380c      	movi.n	a8, 3
4008117a:	820c      	movi.n	a2, 8
4008117c:	0012c6        	j	400811cb <_xtensa_handle_one_int1+0xe7>
4008117f:	480c      	movi.n	a8, 4
40081181:	021c      	movi.n	a2, 16
40081183:	001106        	j	400811cb <_xtensa_handle_one_int1+0xe7>
40081186:	580c      	movi.n	a8, 5
40081188:	022c      	movi.n	a2, 32
4008118a:	000f46        	j	400811cb <_xtensa_handle_one_int1+0xe7>
4008118d:	680c      	movi.n	a8, 6
4008118f:	024c      	movi.n	a2, 64
40081191:	000d86        	j	400811cb <_xtensa_handle_one_int1+0xe7>
40081194:	780c      	movi.n	a8, 7
40081196:	80a022        	movi	a2, 128
40081199:	000b86        	j	400811cb <_xtensa_handle_one_int1+0xe7>
4008119c:	880c      	movi.n	a8, 8
4008119e:	00a122        	movi	a2, 0x100
400811a1:	000986        	j	400811cb <_xtensa_handle_one_int1+0xe7>
400811a4:	980c      	movi.n	a8, 9
400811a6:	00a222        	movi	a2, 0x200
400811a9:	000786        	j	400811cb <_xtensa_handle_one_int1+0xe7>
400811ac:	a80c      	movi.n	a8, 10
400811ae:	00a422        	movi	a2, 0x400
400811b1:	000586        	j	400811cb <_xtensa_handle_one_int1+0xe7>
400811b4:	c80c      	movi.n	a8, 12
400811b6:	fcd521        	l32r	a2, 4008050c <_init_end+0x10c> (1000 <CONFIG_HEAP_MEM_POOL_SIZE>)
400811b9:	000386        	j	400811cb <_xtensa_handle_one_int1+0xe7>
400811bc:	d80c      	movi.n	a8, 13
400811be:	fcd421        	l32r	a2, 40080510 <_init_end+0x110> (2000 <CONFIG_HEAP_MEM_POOL_SIZE+0x1000>)
400811c1:	000186        	j	400811cb <_xtensa_handle_one_int1+0xe7>
400811c4:	00          	.byte 00
400811c5:	00          	.byte 00
400811c6:	181c      	movi.n	a8, 17
400811c8:	fcd321        	l32r	a2, 40080514 <_init_end+0x114> (20000 <_image_irom_start+0x670c>)
400811cb:	fcd591        	l32r	a9, 40080520 <_init_end+0x120> (3ffc0960 <_sw_isr_table>)
400811ce:	b08890        	addx8	a8, a8, a9
400811d1:	1898      	l32i.n	a9, a8, 4
400811d3:	08a8      	l32i.n	a10, a8, 0
400811d5:	0009e0        	callx8	a9
400811d8:	000086        	j	400811de <_xtensa_handle_one_int1+0xfa>
400811db:	00          	.byte 00
400811dc:	020c      	movi.n	a2, 0
400811de:	f01d      	retw.n

400811e0 <_xtensa_handle_one_int3>:
400811e0:	004136        	entry	a1, 32
400811e3:	fcd681        	l32r	a8, 4008053c <_init_end+0x13c> (408800 <CONFIG_FLASH_SIZE+0x8800>)
400811e6:	0e0287        	bnone	a2, a8, 400811f8 <_xtensa_handle_one_int3+0x18>
400811e9:	1ce2b7        	bbsi	a2, 11, 40081209 <_xtensa_handle_one_int3+0x29>
400811ec:	21e2f7        	bbsi	a2, 15, 40081211 <_xtensa_handle_one_int3+0x31>
400811ef:	26f267        	bbsi	a2, 22, 40081219 <_xtensa_handle_one_int3+0x39>
400811f2:	020c      	movi.n	a2, 0
400811f4:	001286        	j	40081242 <_xtensa_handle_one_int3+0x62>
400811f7:	00          	.byte 00
400811f8:	25f277        	bbsi	a2, 23, 40081221 <_xtensa_handle_one_int3+0x41>
400811fb:	2bf2b7        	bbsi	a2, 27, 4008122a <_xtensa_handle_one_int3+0x4a>
400811fe:	3e72d7        	bbci	a2, 29, 40081240 <_xtensa_handle_one_int3+0x60>
40081201:	d81c      	movi.n	a8, 29
40081203:	fccd21        	l32r	a2, 40080538 <_init_end+0x138> (20000000 <CONFIG_SYS_CLOCK_HW_CYCLES_PER_SEC+0x11b1e400>)
40081206:	000946        	j	4008122f <_xtensa_handle_one_int3+0x4f>
40081209:	b80c      	movi.n	a8, 11
4008120b:	fcc621        	l32r	a2, 40080524 <_init_end+0x124> (800 <CONFIG_ISR_STACK_SIZE>)
4008120e:	000746        	j	4008122f <_xtensa_handle_one_int3+0x4f>
40081211:	f80c      	movi.n	a8, 15
40081213:	fcc521        	l32r	a2, 40080528 <_init_end+0x128> (8000 <_image_irom_size+0x22b8>)
40081216:	000546        	j	4008122f <_xtensa_handle_one_int3+0x4f>
40081219:	681c      	movi.n	a8, 22
4008121b:	fcc421        	l32r	a2, 4008052c <_init_end+0x12c> (400000 <CONFIG_FLASH_SIZE>)
4008121e:	000346        	j	4008122f <_xtensa_handle_one_int3+0x4f>
40081221:	781c      	movi.n	a8, 23
40081223:	fcc321        	l32r	a2, 40080530 <_init_end+0x130> (800000 <CONFIG_FLASH_SIZE+0x400000>)
40081226:	000146        	j	4008122f <_xtensa_handle_one_int3+0x4f>
40081229:	00          	.byte 00
4008122a:	b81c      	movi.n	a8, 27
4008122c:	fcc221        	l32r	a2, 40080534 <_init_end+0x134> (8000000 <CONFIG_FLASH_SIZE+0x7c00000>)
4008122f:	fcbc91        	l32r	a9, 40080520 <_init_end+0x120> (3ffc0960 <_sw_isr_table>)
40081232:	b08890        	addx8	a8, a8, a9
40081235:	1898      	l32i.n	a9, a8, 4
40081237:	08a8      	l32i.n	a10, a8, 0
40081239:	0009e0        	callx8	a9
4008123c:	000086        	j	40081242 <_xtensa_handle_one_int3+0x62>
4008123f:	00          	.byte 00
40081240:	020c      	movi.n	a2, 0
40081242:	f01d      	retw.n

40081244 <_xtensa_handle_one_int5>:
40081244:	004136        	entry	a1, 32
40081247:	0df207        	bbsi	a2, 16, 40081258 <_xtensa_handle_one_int5+0x14>
4008124a:	14f2a7        	bbsi	a2, 26, 40081262 <_xtensa_handle_one_int5+0x1e>
4008124d:	0262d6        	bgez	a2, 40081277 <_xtensa_handle_one_int5+0x33>
40081250:	f81c      	movi.n	a8, 31
40081252:	fcbd21        	l32r	a2, 40080548 <_init_end+0x148> (80000000 <_rtc_bss_end+0x30000000>)
40081255:	000386        	j	40081267 <_xtensa_handle_one_int5+0x23>
40081258:	081c      	movi.n	a8, 16
4008125a:	fcb921        	l32r	a2, 40080540 <_init_end+0x140> (10000 <CONFIG_ESP_HEAP_MEM_POOL_REGION_1_SIZE+0x4000>)
4008125d:	000186        	j	40081267 <_xtensa_handle_one_int5+0x23>
40081260:	00          	.byte 00
40081261:	00          	.byte 00
40081262:	a81c      	movi.n	a8, 26
40081264:	fcb821        	l32r	a2, 40080544 <_init_end+0x144> (4000000 <CONFIG_FLASH_SIZE+0x3c00000>)
40081267:	fcae91        	l32r	a9, 40080520 <_init_end+0x120> (3ffc0960 <_sw_isr_table>)
4008126a:	b08890        	addx8	a8, a8, a9
4008126d:	1898      	l32i.n	a9, a8, 4
4008126f:	08a8      	l32i.n	a10, a8, 0
40081271:	0009e0        	callx8	a9
40081274:	000046        	j	40081279 <_xtensa_handle_one_int5+0x35>
40081277:	020c      	movi.n	a2, 0
40081279:	f01d      	retw.n
	...

4008127c <_xtensa_handle_one_int2>:
4008127c:	004136        	entry	a1, 32
4008127f:	0df237        	bbsi	a2, 19, 40081290 <_xtensa_handle_one_int2+0x14>
40081282:	14f247        	bbsi	a2, 20, 4008129a <_xtensa_handle_one_int2+0x1e>
40081285:	277257        	bbci	a2, 21, 400812b0 <_xtensa_handle_one_int2+0x34>
40081288:	581c      	movi.n	a8, 21
4008128a:	fcb221        	l32r	a2, 40080554 <_init_end+0x154> (200000 <_image_irom_start+0x1e670c>)
4008128d:	000386        	j	4008129f <_xtensa_handle_one_int2+0x23>
40081290:	381c      	movi.n	a8, 19
40081292:	fcae21        	l32r	a2, 4008054c <_init_end+0x14c> (80000 <_image_irom_start+0x6670c>)
40081295:	000186        	j	4008129f <_xtensa_handle_one_int2+0x23>
40081298:	00          	.byte 00
40081299:	00          	.byte 00
4008129a:	481c      	movi.n	a8, 20
4008129c:	fcad21        	l32r	a2, 40080550 <_init_end+0x150> (100000 <_image_irom_start+0xe670c>)
4008129f:	fca091        	l32r	a9, 40080520 <_init_end+0x120> (3ffc0960 <_sw_isr_table>)
400812a2:	b08890        	addx8	a8, a8, a9
400812a5:	1898      	l32i.n	a9, a8, 4
400812a7:	08a8      	l32i.n	a10, a8, 0
400812a9:	0009e0        	callx8	a9
400812ac:	000086        	j	400812b2 <_xtensa_handle_one_int2+0x36>
400812af:	00          	.byte 00
400812b0:	020c      	movi.n	a2, 0
400812b2:	f01d      	retw.n

400812b4 <_xtensa_handle_one_int4>:
400812b4:	004136        	entry	a1, 32
400812b7:	fcac81        	l32r	a8, 40080568 <_init_end+0x168> (3000000 <CONFIG_FLASH_SIZE+0x2c00000>)
400812ba:	0a0287        	bnone	a2, a8, 400812c8 <_xtensa_handle_one_int4+0x14>
400812bd:	15f287        	bbsi	a2, 24, 400812d6 <_xtensa_handle_one_int4+0x22>
400812c0:	1af297        	bbsi	a2, 25, 400812de <_xtensa_handle_one_int4+0x2a>
400812c3:	020c      	movi.n	a2, 0
400812c5:	000d46        	j	400812fe <_xtensa_handle_one_int4+0x4a>
400812c8:	1af2c7        	bbsi	a2, 28, 400812e6 <_xtensa_handle_one_int4+0x32>
400812cb:	2d72e7        	bbci	a2, 30, 400812fc <_xtensa_handle_one_int4+0x48>
400812ce:	e81c      	movi.n	a8, 30
400812d0:	fca521        	l32r	a2, 40080564 <_init_end+0x164> (40000000 <dram0_seg_1_heap+0x195d0>)
400812d3:	000506        	j	400812eb <_xtensa_handle_one_int4+0x37>
400812d6:	881c      	movi.n	a8, 24
400812d8:	fca021        	l32r	a2, 40080558 <_init_end+0x158> (1000000 <CONFIG_FLASH_SIZE+0xc00000>)
400812db:	000306        	j	400812eb <_xtensa_handle_one_int4+0x37>
400812de:	981c      	movi.n	a8, 25
400812e0:	fc9f21        	l32r	a2, 4008055c <_init_end+0x15c> (2000000 <CONFIG_FLASH_SIZE+0x1c00000>)
400812e3:	000106        	j	400812eb <_xtensa_handle_one_int4+0x37>
400812e6:	c81c      	movi.n	a8, 28
400812e8:	fc9e21        	l32r	a2, 40080560 <_init_end+0x160> (10000000 <CONFIG_SYS_CLOCK_HW_CYCLES_PER_SEC+0x1b1e400>)
400812eb:	fc8d91        	l32r	a9, 40080520 <_init_end+0x120> (3ffc0960 <_sw_isr_table>)
400812ee:	b08890        	addx8	a8, a8, a9
400812f1:	1898      	l32i.n	a9, a8, 4
400812f3:	08a8      	l32i.n	a10, a8, 0
400812f5:	0009e0        	callx8	a9
400812f8:	000086        	j	400812fe <_xtensa_handle_one_int4+0x4a>
400812fb:	00          	.byte 00
400812fc:	020c      	movi.n	a2, 0
400812fe:	f01d      	retw.n

40081300 <xtensa_int1_c>:
40081300:	004136        	entry	a1, 32
40081303:	03e230        	rsr.interrupt	a3
40081306:	03e480        	rsr.intenable	a8
40081309:	103380        	and	a3, a3, a8
4008130c:	0001c6        	j	40081317 <xtensa_int1_c+0x17>
4008130f:	00          	.byte 00
40081310:	00          	.byte 00
40081311:	3033a0        	xor	a3, a3, a10
40081314:	13e3a0        	wsr.intclear	a10
40081317:	03ad      	mov.n	a10, a3
40081319:	ffdca5        	call8	400810e4 <_xtensa_handle_one_int1>
4008131c:	ff1a56        	bnez	a10, 40081311 <xtensa_int1_c+0x11>
4008131f:	fc3a31        	l32r	a3, 40080408 <_init_end+0x8> (3ffc1efc <_kernel>)
40081322:	0338      	l32i.n	a3, a3, 0
40081324:	0623f6        	bgeui	a3, 2, 4008132e <xtensa_int1_c+0x2e>
40081327:	02ad      	mov.n	a10, a2
40081329:	00d925        	call8	400820bc <z_get_next_switch_handle>
4008132c:	0a2d      	mov.n	a2, a10
4008132e:	f01d      	retw.n

40081330 <xtensa_init_stack>:
40081330:	004136        	entry	a1, 32
40081333:	f87c      	movi.n	a8, -1
40081335:	256282        	s32i	a8, a2, 148
40081338:	d0c322        	addi	a2, a3, -48
4008133b:	0c3c      	movi.n	a12, 48
4008133d:	0b0c      	movi.n	a11, 0
4008133f:	02ad      	mov.n	a10, a2
40081341:	02f7a5        	call8	400842bc <memset>
40081344:	ecc382        	addi	a8, a3, -20
40081347:	fc8991        	l32r	a9, 4008056c <_init_end+0x16c> (400d05bc <z_thread_entry>)
4008134a:	0899      	s32i.n	a9, a8, 0
4008134c:	e8c382        	addi	a8, a3, -24
4008134f:	fc8891        	l32r	a9, 40080570 <_init_end+0x170> (50020 <_image_irom_start+0x3672c>)
40081352:	0899      	s32i.n	a9, a8, 0
40081354:	ccc382        	addi	a8, a3, -52
40081357:	0859      	s32i.n	a5, a8, 0
40081359:	c8c352        	addi	a5, a3, -56
4008135c:	0549      	s32i.n	a4, a5, 0
4008135e:	c4c352        	addi	a5, a3, -60
40081361:	040c      	movi.n	a4, 0
40081363:	0549      	s32i.n	a4, a5, 0
40081365:	c0c352        	addi	a5, a3, -64
40081368:	0549      	s32i.n	a4, a5, 0
4008136a:	bcc352        	addi	a5, a3, -68
4008136d:	0549      	s32i.n	a4, a5, 0
4008136f:	b8c352        	addi	a5, a3, -72
40081372:	0549      	s32i.n	a4, a5, 0
40081374:	b4c342        	addi	a4, a3, -76
40081377:	0479      	s32i.n	a7, a4, 0
40081379:	b0c342        	addi	a4, a3, -80
4008137c:	0469      	s32i.n	a6, a4, 0
4008137e:	acc332        	addi	a3, a3, -84
40081381:	0329      	s32i.n	a2, a3, 0
40081383:	032d      	mov.n	a2, a3
40081385:	f01d      	retw.n
	...

40081388 <arch_new_thread>:
40081388:	004136        	entry	a1, 32
4008138b:	20e770        	or	a14, a7, a7
4008138e:	0821f2        	l32i	a15, a1, 32
40081391:	20d660        	or	a13, a6, a6
40081394:	05cd      	mov.n	a12, a5
40081396:	04bd      	mov.n	a11, a4
40081398:	02ad      	mov.n	a10, a2
4008139a:	fff965        	call8	40081330 <xtensa_init_stack>
4008139d:	2362a2        	s32i	a10, a2, 140
400813a0:	f01d      	retw.n
	...

400813a4 <z_irq_spurious>:
400813a4:	004136        	entry	a1, 32
400813a7:	03e2c0        	rsr.interrupt	a12
400813aa:	03e4d0        	rsr.intenable	a13
400813ad:	45a0b2        	movi	a11, 69
400813b0:	fc71a1        	l32r	a10, 40080574 <_init_end+0x174> (3ffc034c <timeout_list+0x304>)
400813b3:	4f5565        	call8	400d0908 <z_log_minimal_printk>
400813b6:	00a0b2        	movi	a11, 0
400813b9:	1a0c      	movi.n	a10, 1
400813bb:	ffaee5        	call8	40080ea8 <z_xtensa_fatal_error>
400813be:	f01d      	retw.n

400813c0 <z_xtensa_dump_stack>:
400813c0:	004136        	entry	a1, 32
400813c3:	002232        	l32i	a3, a2, 0
400813c6:	0b23f2        	l32i	a15, a3, 44
400813c9:	a3e8      	l32i.n	a14, a3, 40
400813cb:	40c3d2        	addi	a13, a3, 64
400813ce:	83c8      	l32i.n	a12, a3, 32
400813d0:	5b4c      	movi.n	a11, 69
400813d2:	fc69a1        	l32r	a10, 40080578 <_init_end+0x178> (3ffc0380 <timeout_list+0x338>)
400813d5:	4f5325        	call8	400d0908 <z_log_minimal_printk>
400813d8:	c02320        	sub	a2, a3, a2
400813db:	081c      	movi.n	a8, 16
400813dd:	1ba827        	bge	a8, a2, 400813fc <z_xtensa_dump_stack+0x3c>
400813e0:	f0c382        	addi	a8, a3, -16
400813e3:	f4c392        	addi	a9, a3, -12
400813e6:	f8c3a2        	addi	a10, a3, -8
400813e9:	fcc3b2        	addi	a11, a3, -4
400813ec:	0bf8      	l32i.n	a15, a11, 0
400813ee:	0ae8      	l32i.n	a14, a10, 0
400813f0:	09d8      	l32i.n	a13, a9, 0
400813f2:	08c8      	l32i.n	a12, a8, 0
400813f4:	5b4c      	movi.n	a11, 69
400813f6:	fc61a1        	l32r	a10, 4008057c <_init_end+0x17c> (3ffc03a8 <timeout_list+0x360>)
400813f9:	4f50e5        	call8	400d0908 <z_log_minimal_printk>
400813fc:	082c      	movi.n	a8, 32
400813fe:	1ba827        	bge	a8, a2, 4008141d <z_xtensa_dump_stack+0x5d>
40081401:	e0c382        	addi	a8, a3, -32
40081404:	e4c392        	addi	a9, a3, -28
40081407:	e8c3a2        	addi	a10, a3, -24
4008140a:	ecc3b2        	addi	a11, a3, -20
4008140d:	0bf8      	l32i.n	a15, a11, 0
4008140f:	0ae8      	l32i.n	a14, a10, 0
40081411:	09d8      	l32i.n	a13, a9, 0
40081413:	08c8      	l32i.n	a12, a8, 0
40081415:	5b4c      	movi.n	a11, 69
40081417:	fc5aa1        	l32r	a10, 40080580 <_init_end+0x180> (3ffc03d0 <timeout_list+0x388>)
4008141a:	4f4ee5        	call8	400d0908 <z_log_minimal_printk>
4008141d:	083c      	movi.n	a8, 48
4008141f:	1ba827        	bge	a8, a2, 4008143e <z_xtensa_dump_stack+0x7e>
40081422:	d0c322        	addi	a2, a3, -48
40081425:	d4c382        	addi	a8, a3, -44
40081428:	d8c392        	addi	a9, a3, -40
4008142b:	dcc3a2        	addi	a10, a3, -36
4008142e:	0af8      	l32i.n	a15, a10, 0
40081430:	09e8      	l32i.n	a14, a9, 0
40081432:	08d8      	l32i.n	a13, a8, 0
40081434:	02c8      	l32i.n	a12, a2, 0
40081436:	5b4c      	movi.n	a11, 69
40081438:	fc53a1        	l32r	a10, 40080584 <_init_end+0x184> (3ffc03f8 <timeout_list+0x3b0>)
4008143b:	4f4ce5        	call8	400d0908 <z_log_minimal_printk>
4008143e:	23e8      	l32i.n	a14, a3, 8
40081440:	33d8      	l32i.n	a13, a3, 12
40081442:	43c8      	l32i.n	a12, a3, 16
40081444:	5b4c      	movi.n	a11, 69
40081446:	fc50a1        	l32r	a10, 40080588 <_init_end+0x188> (3ffc0420 <timeout_list+0x3d8>)
40081449:	4f4be5        	call8	400d0908 <z_log_minimal_printk>
4008144c:	53c8      	l32i.n	a12, a3, 20
4008144e:	5b4c      	movi.n	a11, 69
40081450:	fc4fa1        	l32r	a10, 4008058c <_init_end+0x18c> (3ffc0444 <timeout_list+0x3fc>)
40081453:	4f4b65        	call8	400d0908 <z_log_minimal_printk>
40081456:	f01d      	retw.n

40081458 <xtensa_int2_c>:
40081458:	004136        	entry	a1, 32
4008145b:	03e230        	rsr.interrupt	a3
4008145e:	03e480        	rsr.intenable	a8
40081461:	103380        	and	a3, a3, a8
40081464:	0001c6        	j	4008146f <xtensa_int2_c+0x17>
40081467:	00          	.byte 00
40081468:	00          	.byte 00
40081469:	3033a0        	xor	a3, a3, a10
4008146c:	13e3a0        	wsr.intclear	a10
4008146f:	03ad      	mov.n	a10, a3
40081471:	ffe0a5        	call8	4008127c <_xtensa_handle_one_int2>
40081474:	ff1a56        	bnez	a10, 40081469 <xtensa_int2_c+0x11>
40081477:	fbe431        	l32r	a3, 40080408 <_init_end+0x8> (3ffc1efc <_kernel>)
4008147a:	0338      	l32i.n	a3, a3, 0
4008147c:	0623f6        	bgeui	a3, 2, 40081486 <xtensa_int2_c+0x2e>
4008147f:	02ad      	mov.n	a10, a2
40081481:	00c3a5        	call8	400820bc <z_get_next_switch_handle>
40081484:	0a2d      	mov.n	a2, a10
40081486:	f01d      	retw.n

40081488 <xtensa_int3_c>:
40081488:	004136        	entry	a1, 32
4008148b:	03e230        	rsr.interrupt	a3
4008148e:	03e480        	rsr.intenable	a8
40081491:	103380        	and	a3, a3, a8
40081494:	0001c6        	j	4008149f <xtensa_int3_c+0x17>
40081497:	00          	.byte 00
40081498:	00          	.byte 00
40081499:	3033a0        	xor	a3, a3, a10
4008149c:	13e3a0        	wsr.intclear	a10
4008149f:	03ad      	mov.n	a10, a3
400814a1:	ffd3e5        	call8	400811e0 <_xtensa_handle_one_int3>
400814a4:	ff1a56        	bnez	a10, 40081499 <xtensa_int3_c+0x11>
400814a7:	fbd831        	l32r	a3, 40080408 <_init_end+0x8> (3ffc1efc <_kernel>)
400814aa:	0338      	l32i.n	a3, a3, 0
400814ac:	0623f6        	bgeui	a3, 2, 400814b6 <xtensa_int3_c+0x2e>
400814af:	02ad      	mov.n	a10, a2
400814b1:	00c0a5        	call8	400820bc <z_get_next_switch_handle>
400814b4:	0a2d      	mov.n	a2, a10
400814b6:	f01d      	retw.n

400814b8 <xtensa_int4_c>:
400814b8:	004136        	entry	a1, 32
400814bb:	03e230        	rsr.interrupt	a3
400814be:	03e480        	rsr.intenable	a8
400814c1:	103380        	and	a3, a3, a8
400814c4:	000146        	j	400814cd <xtensa_int4_c+0x15>
400814c7:	3033a0        	xor	a3, a3, a10
400814ca:	13e3a0        	wsr.intclear	a10
400814cd:	20a330        	or	a10, a3, a3
400814d0:	ffde25        	call8	400812b4 <_xtensa_handle_one_int4>
400814d3:	ff0a56        	bnez	a10, 400814c7 <xtensa_int4_c+0xf>
400814d6:	fbcc31        	l32r	a3, 40080408 <_init_end+0x8> (3ffc1efc <_kernel>)
400814d9:	002332        	l32i	a3, a3, 0
400814dc:	0623f6        	bgeui	a3, 2, 400814e6 <xtensa_int4_c+0x2e>
400814df:	02ad      	mov.n	a10, a2
400814e1:	00bda5        	call8	400820bc <z_get_next_switch_handle>
400814e4:	0a2d      	mov.n	a2, a10
400814e6:	f01d      	retw.n

400814e8 <xtensa_int5_c>:
400814e8:	004136        	entry	a1, 32
400814eb:	03e230        	rsr.interrupt	a3
400814ee:	03e480        	rsr.intenable	a8
400814f1:	103380        	and	a3, a3, a8
400814f4:	0001c6        	j	400814ff <xtensa_int5_c+0x17>
400814f7:	00          	.byte 00
400814f8:	00          	.byte 00
400814f9:	3033a0        	xor	a3, a3, a10
400814fc:	13e3a0        	wsr.intclear	a10
400814ff:	03ad      	mov.n	a10, a3
40081501:	ffd425        	call8	40081244 <_xtensa_handle_one_int5>
40081504:	ff1a56        	bnez	a10, 400814f9 <xtensa_int5_c+0x11>
40081507:	fbc031        	l32r	a3, 40080408 <_init_end+0x8> (3ffc1efc <_kernel>)
4008150a:	0338      	l32i.n	a3, a3, 0
4008150c:	0623f6        	bgeui	a3, 2, 40081516 <xtensa_int5_c+0x2e>
4008150f:	02ad      	mov.n	a10, a2
40081511:	00baa5        	call8	400820bc <z_get_next_switch_handle>
40081514:	0a2d      	mov.n	a2, a10
40081516:	f01d      	retw.n

40081518 <xtensa_int6_c>:
40081518:	004136        	entry	a1, 32
4008151b:	03e280        	rsr.interrupt	a8
4008151e:	03e480        	rsr.intenable	a8
40081521:	fbb981        	l32r	a8, 40080408 <_init_end+0x8> (3ffc1efc <_kernel>)
40081524:	0888      	l32i.n	a8, a8, 0
40081526:	0628f6        	bgeui	a8, 2, 40081530 <xtensa_int6_c+0x18>
40081529:	02ad      	mov.n	a10, a2
4008152b:	00b925        	call8	400820bc <z_get_next_switch_handle>
4008152e:	0a2d      	mov.n	a2, a10
40081530:	f01d      	retw.n
	...

40081534 <xtensa_int7_c>:
40081534:	004136        	entry	a1, 32
40081537:	03e230        	rsr.interrupt	a3
4008153a:	03e480        	rsr.intenable	a8
4008153d:	103380        	and	a3, a3, a8
40081540:	0ce3e7        	bbsi	a3, 14, 40081550 <xtensa_int7_c+0x1c>
40081543:	fbb131        	l32r	a3, 40080408 <_init_end+0x8> (3ffc1efc <_kernel>)
40081546:	0338      	l32i.n	a3, a3, 0
40081548:	2523f6        	bgeui	a3, 2, 40081571 <xtensa_int7_c+0x3d>
4008154b:	000646        	j	40081568 <xtensa_int7_c+0x34>
4008154e:	00          	.byte 00
4008154f:	00          	.byte 00
40081550:	fbf481        	l32r	a8, 40080520 <_init_end+0x120> (3ffc0960 <_sw_isr_table>)
40081553:	1d2892        	l32i	a9, a8, 116
40081556:	1c28a2        	l32i	a10, a8, 112
40081559:	0009e0        	callx8	a9
4008155c:	fc0d81        	l32r	a8, 40080590 <_init_end+0x190> (4000 <CONFIG_COVERAGE_GCOV_HEAP_SIZE>)
4008155f:	303380        	xor	a3, a3, a8
40081562:	13e380        	wsr.intclear	a8
40081565:	fff5c6        	j	40081540 <xtensa_int7_c+0xc>
40081568:	20a220        	or	a10, a2, a2
4008156b:	00b525        	call8	400820bc <z_get_next_switch_handle>
4008156e:	202aa0        	or	a2, a10, a10
40081571:	000090        	retw

40081574 <xtensa_excint1_c>:
40081574:	008136        	entry	a1, 64
40081577:	0258      	l32i.n	a5, a2, 0
40081579:	03e840        	rsr.exccause	a4
4008157c:	094466        	bnei	a4, 4, 40081589 <xtensa_excint1_c+0x15>
4008157f:	02ad      	mov.n	a10, a2
40081581:	ffd7e5        	call8	40081300 <xtensa_int1_c>
40081584:	0a2d      	mov.n	a2, a10
40081586:	003006        	j	4008164a <xtensa_excint1_c+0xd6>
40081589:	1c1466        	bnei	a4, 1, 400815a9 <xtensa_excint1_c+0x35>
4008158c:	0725d2        	l32i	a13, a5, 28
4008158f:	0625c2        	l32i	a12, a5, 24
40081592:	45a0b2        	movi	a11, 69
40081595:	fbffa1        	l32r	a10, 40080594 <_init_end+0x194> (3ffc0454 <timeout_list+0x40c>)
40081598:	4f36e5        	call8	400d0908 <z_log_minimal_printk>
4008159b:	02ad      	mov.n	a10, a2
4008159d:	ffe225        	call8	400813c0 <z_xtensa_dump_stack>
400815a0:	7538      	l32i.n	a3, a5, 28
400815a2:	333b      	addi.n	a3, a3, 3
400815a4:	7539      	s32i.n	a3, a5, 28
400815a6:	002446        	j	4008163b <xtensa_excint1_c+0xc7>
400815a9:	6538      	l32i.n	a3, a5, 24
400815ab:	7578      	l32i.n	a7, a5, 28
400815ad:	076d      	mov.n	a6, a7
400815af:	03ee80        	rsr.excvaddr	a8
400815b2:	4189      	s32i.n	a8, a1, 16
400815b4:	fbf981        	l32r	a8, 40080598 <_init_end+0x198> (40080fb3 <xtensa_arch_except_epc>)
400815b7:	139787        	bne	a7, a8, 400815ce <xtensa_excint1_c+0x5a>
400815ba:	74dc      	bnez.n	a4, 400815d5 <xtensa_excint1_c+0x61>
400815bc:	f43c      	movi.n	a4, 63
400815be:	13e840        	wsr.exccause	a4
400815c1:	a568      	l32i.n	a6, a5, 40
400815c3:	5169      	s32i.n	a6, a1, 20
400815c5:	773b      	addi.n	a7, a7, 3
400815c7:	7579      	s32i.n	a7, a5, 28
400815c9:	076d      	mov.n	a6, a7
400815cb:	000286        	j	400815d9 <xtensa_excint1_c+0x65>
400815ce:	080c      	movi.n	a8, 0
400815d0:	5189      	s32i.n	a8, a1, 20
400815d2:	0000c6        	j	400815d9 <xtensa_excint1_c+0x65>
400815d5:	080c      	movi.n	a8, 0
400815d7:	5189      	s32i.n	a8, a1, 20
400815d9:	5b4c      	movi.n	a11, 69
400815db:	fbf0a1        	l32r	a10, 4008059c <_init_end+0x19c> (3ffc0474 <timeout_list+0x42c>)
400815de:	4f32a5        	call8	400d0908 <z_log_minimal_printk>
400815e1:	03f570        	rsr.misc1	a7
400815e4:	140772        	l8ui	a7, a7, 20
400815e7:	04ad      	mov.n	a10, a4
400815e9:	ff8125        	call8	40080dfc <z_xtensa_exccause>
400815ec:	0aed      	mov.n	a14, a10
400815ee:	04dd      	mov.n	a13, a4
400815f0:	07cd      	mov.n	a12, a7
400815f2:	5b4c      	movi.n	a11, 69
400815f4:	fbeba1        	l32r	a10, 400805a0 <_init_end+0x1a0> (3ffc0490 <timeout_list+0x448>)
400815f7:	4f3125        	call8	400d0908 <z_log_minimal_printk>
400815fa:	41d8      	l32i.n	a13, a1, 16
400815fc:	06cd      	mov.n	a12, a6
400815fe:	5b4c      	movi.n	a11, 69
40081600:	fbe9a1        	l32r	a10, 400805a4 <_init_end+0x1a4> (3ffc04b4 <timeout_list+0x46c>)
40081603:	4f3065        	call8	400d0908 <z_log_minimal_printk>
40081606:	65c8      	l32i.n	a12, a5, 24
40081608:	5b4c      	movi.n	a11, 69
4008160a:	fbe7a1        	l32r	a10, 400805a8 <_init_end+0x1a8> (3ffc04d0 <timeout_list+0x488>)
4008160d:	4f2fa5        	call8	400d0908 <z_log_minimal_printk>
40081610:	054230        	extui	a4, a3, 18, 1
40081613:	345830        	extui	a5, a3, 8, 4
40081616:	156030        	extui	a6, a3, 16, 2
40081619:	2169      	s32i.n	a6, a1, 8
4008161b:	1159      	s32i.n	a5, a1, 4
4008161d:	0149      	s32i.n	a4, a1, 0
4008161f:	14f630        	extui	a15, a3, 6, 2
40081622:	04e530        	extui	a14, a3, 5, 1
40081625:	04d430        	extui	a13, a3, 4, 1
40081628:	34c030        	extui	a12, a3, 0, 4
4008162b:	45a0b2        	movi	a11, 69
4008162e:	fbdfa1        	l32r	a10, 400805ac <_init_end+0x1ac> (3ffc04e0 <timeout_list+0x498>)
40081631:	4f2d65        	call8	400d0908 <z_log_minimal_printk>
40081634:	02bd      	mov.n	a11, a2
40081636:	51a8      	l32i.n	a10, a1, 20
40081638:	ff86e5        	call8	40080ea8 <z_xtensa_fatal_error>
4008163b:	fb7331        	l32r	a3, 40080408 <_init_end+0x8> (3ffc1efc <_kernel>)
4008163e:	0338      	l32i.n	a3, a3, 0
40081640:	0623f6        	bgeui	a3, 2, 4008164a <xtensa_excint1_c+0xd6>
40081643:	02ad      	mov.n	a10, a2
40081645:	00a765        	call8	400820bc <z_get_next_switch_handle>
40081648:	0a2d      	mov.n	a2, a10
4008164a:	f01d      	retw.n

4008164c <z_xtensa_cpu_process_stack_pc>:
4008164c:	004136        	entry	a1, 32
4008164f:	0262d6        	bgez	a2, 40081679 <z_xtensa_cpu_process_stack_pc+0x2d>
40081652:	fbd781        	l32r	a8, 400805b0 <_init_end+0x1b0> (3ffc1d18 <cause>)
40081655:	0898      	l32i.n	a9, a8, 0
40081657:	481c      	movi.n	a8, 20
40081659:	101987        	beq	a9, a8, 4008166d <z_xtensa_cpu_process_stack_pc+0x21>
4008165c:	fbd681        	l32r	a8, 400805b4 <_init_end+0x1b4> (3fffffff <dram0_seg_1_heap+0x195cf>)
4008165f:	102280        	and	a2, a2, a8
40081662:	fbd581        	l32r	a8, 400805b8 <_init_end+0x1b8> (3ffc1d1c <mask>)
40081665:	0888      	l32i.n	a8, a8, 0
40081667:	202280        	or	a2, a2, a8
4008166a:	0002c6        	j	40081679 <z_xtensa_cpu_process_stack_pc+0x2d>
4008166d:	fbd181        	l32r	a8, 400805b4 <_init_end+0x1b4> (3fffffff <dram0_seg_1_heap+0x195cf>)
40081670:	102280        	and	a2, a2, a8
40081673:	fbbc81        	l32r	a8, 40080564 <_init_end+0x164> (40000000 <dram0_seg_1_heap+0x195d0>)
40081676:	202280        	or	a2, a2, a8
40081679:	fdc222        	addi	a2, a2, -3
4008167c:	f01d      	retw.n
	...

40081680 <z_xtensa_backtrace_get_next_frame>:
40081680:	004136        	entry	a1, 32
40081683:	012282        	l32i	a8, a2, 4
40081686:	0222a2        	l32i	a10, a2, 8
40081689:	02a9      	s32i.n	a10, a2, 0
4008168b:	f0c892        	addi	a9, a8, -16
4008168e:	0998      	l32i.n	a9, a9, 0
40081690:	2299      	s32i.n	a9, a2, 8
40081692:	f4c882        	addi	a8, a8, -12
40081695:	0888      	l32i.n	a8, a8, 0
40081697:	1289      	s32i.n	a8, a2, 4
40081699:	fbc821        	l32r	a2, 400805bc <_init_end+0x1bc> (c0051ff0 <_rtc_bss_end+0x70051ff0>)
4008169c:	282a      	add.n	a2, a8, a2
4008169e:	fbc891        	l32r	a9, 400805c0 <_init_end+0x1c0> (51fe0 <_image_irom_start+0x386ec>)
400816a1:	113927        	bltu	a9, a2, 400816b6 <z_xtensa_backtrace_get_next_frame+0x36>
400816a4:	348080        	extui	a8, a8, 0, 4
400816a7:	18dc      	bnez.n	a8, 400816bc <z_xtensa_backtrace_get_next_frame+0x3c>
400816a9:	fffa25        	call8	4008164c <z_xtensa_cpu_process_stack_pc>
400816ac:	ff1365        	call8	400807e4 <esp_ptr_executable>
400816af:	ea8c      	beqz.n	a10, 400816c1 <z_xtensa_backtrace_get_next_frame+0x41>
400816b1:	120c      	movi.n	a2, 1
400816b3:	000306        	j	400816c3 <z_xtensa_backtrace_get_next_frame+0x43>
400816b6:	020c      	movi.n	a2, 0
400816b8:	0001c6        	j	400816c3 <z_xtensa_backtrace_get_next_frame+0x43>
400816bb:	00          	.byte 00
400816bc:	020c      	movi.n	a2, 0
400816be:	000046        	j	400816c3 <z_xtensa_backtrace_get_next_frame+0x43>
400816c1:	020c      	movi.n	a2, 0
400816c3:	f01d      	retw.n
400816c5:	000000        	ill

400816c8 <z_xtensa_backtrace_print>:
400816c8:	006136        	entry	a1, 48
400816cb:	0212e6        	bgei	a2, 1, 400816d1 <z_xtensa_backtrace_print+0x9>
400816ce:	003886        	j	400817b4 <z_xtensa_backtrace_print+0xec>
400816d1:	03dd      	mov.n	a13, a3
400816d3:	c18b      	addi.n	a12, a1, 8
400816d5:	04c1b2        	addi	a11, a1, 4
400816d8:	20a110        	or	a10, a1, a1
400816db:	ff1765        	call8	40080850 <z_xtensa_backtrace_get_start>
400816de:	0348      	l32i.n	a4, a3, 0
400816e0:	1448      	l32i.n	a4, a4, 4
400816e2:	043d      	mov.n	a3, a4
400816e4:	fbb341        	l32r	a4, 400805b0 <_init_end+0x1b0> (3ffc1d18 <cause>)
400816e7:	0439      	s32i.n	a3, a4, 0
400816e9:	441c      	movi.n	a4, 20
400816eb:	0d1347        	beq	a3, a4, 400816fc <z_xtensa_backtrace_print+0x34>
400816ee:	0138      	l32i.n	a3, a1, 0
400816f0:	fb5541        	l32r	a4, 40080444 <_init_end+0x44> (c0000000 <_rtc_bss_end+0x70000000>)
400816f3:	103340        	and	a3, a3, a4
400816f6:	fbb041        	l32r	a4, 400805b8 <_init_end+0x1b8> (3ffc1d1c <mask>)
400816f9:	006432        	s32i	a3, a4, 0
400816fc:	fbb2a1        	l32r	a10, 400805c4 <_init_end+0x1c4> (3ffc052c <timeout_list+0x4e4>)
400816ff:	02ac25        	call8	400841c0 <printk>
40081702:	0021a2        	l32i	a10, a1, 0
40081705:	fff465        	call8	4008164c <z_xtensa_cpu_process_stack_pc>
40081708:	11c8      	l32i.n	a12, a1, 4
4008170a:	0abd      	mov.n	a11, a10
4008170c:	fbafa1        	l32r	a10, 400805c8 <_init_end+0x1c8> (3ffc053c <timeout_list+0x4f4>)
4008170f:	02ab25        	call8	400841c0 <printk>
40081712:	1148      	l32i.n	a4, a1, 4
40081714:	fbaa31        	l32r	a3, 400805bc <_init_end+0x1bc> (c0051ff0 <_rtc_bss_end+0x70051ff0>)
40081717:	343a      	add.n	a3, a4, a3
40081719:	fba981        	l32r	a8, 400805c0 <_init_end+0x1c0> (51fe0 <_image_irom_start+0x386ec>)
4008171c:	093837        	bltu	a8, a3, 40081729 <z_xtensa_backtrace_print+0x61>
4008171f:	344040        	extui	a4, a4, 0, 4
40081722:	848c      	beqz.n	a4, 4008172e <z_xtensa_backtrace_print+0x66>
40081724:	030c      	movi.n	a3, 0
40081726:	0001c6        	j	40081731 <z_xtensa_backtrace_print+0x69>
40081729:	030c      	movi.n	a3, 0
4008172b:	000086        	j	40081731 <z_xtensa_backtrace_print+0x69>
4008172e:	01a032        	movi	a3, 1
40081731:	018316        	beqz	a3, 4008174d <z_xtensa_backtrace_print+0x85>
40081734:	01a8      	l32i.n	a10, a1, 0
40081736:	fff165        	call8	4008164c <z_xtensa_cpu_process_stack_pc>
40081739:	ff0aa5        	call8	400807e4 <esp_ptr_executable>
4008173c:	2adc      	bnez.n	a10, 40081752 <z_xtensa_backtrace_print+0x8a>
4008173e:	fb9c31        	l32r	a3, 400805b0 <_init_end+0x1b0> (3ffc1d18 <cause>)
40081741:	0348      	l32i.n	a4, a3, 0
40081743:	431c      	movi.n	a3, 20
40081745:	0f9437        	bne	a4, a3, 40081758 <z_xtensa_backtrace_print+0x90>
40081748:	040c      	movi.n	a4, 0
4008174a:	000b46        	j	4008177b <z_xtensa_backtrace_print+0xb3>
4008174d:	140c      	movi.n	a4, 1
4008174f:	000a06        	j	4008177b <z_xtensa_backtrace_print+0xb3>
40081752:	040c      	movi.n	a4, 0
40081754:	0008c6        	j	4008177b <z_xtensa_backtrace_print+0xb3>
40081757:	00          	.byte 00
40081758:	140c      	movi.n	a4, 1
4008175a:	000746        	j	4008177b <z_xtensa_backtrace_print+0xb3>
4008175d:	20a110        	or	a10, a1, a1
40081760:	fff1e5        	call8	40081680 <z_xtensa_backtrace_get_next_frame>
40081763:	002a56        	bnez	a10, 40081769 <z_xtensa_backtrace_print+0xa1>
40081766:	01a042        	movi	a4, 1
40081769:	0021a2        	l32i	a10, a1, 0
4008176c:	ffede5        	call8	4008164c <z_xtensa_cpu_process_stack_pc>
4008176f:	11c8      	l32i.n	a12, a1, 4
40081771:	0abd      	mov.n	a11, a10
40081773:	fb95a1        	l32r	a10, 400805c8 <_init_end+0x1c8> (3ffc053c <timeout_list+0x4f4>)
40081776:	02a4a5        	call8	400841c0 <printk>
40081779:	032d      	mov.n	a2, a3
4008177b:	320b      	addi.n	a3, a2, -1
4008177d:	728c      	beqz.n	a2, 40081788 <z_xtensa_backtrace_print+0xc0>
4008177f:	022122        	l32i	a2, a1, 8
40081782:	002216        	beqz	a2, 40081788 <z_xtensa_backtrace_print+0xc0>
40081785:	fd4416        	beqz	a4, 4008175d <z_xtensa_backtrace_print+0x95>
40081788:	948c      	beqz.n	a4, 40081795 <z_xtensa_backtrace_print+0xcd>
4008178a:	fb90a1        	l32r	a10, 400805cc <_init_end+0x1cc> (3ffc054c <timeout_list+0x504>)
4008178d:	02a325        	call8	400841c0 <printk>
40081790:	f27c      	movi.n	a2, -1
40081792:	000546        	j	400817ab <z_xtensa_backtrace_print+0xe3>
40081795:	022122        	l32i	a2, a1, 8
40081798:	00d216        	beqz	a2, 400817a9 <z_xtensa_backtrace_print+0xe1>
4008179b:	fb8da1        	l32r	a10, 400805d0 <_init_end+0x1d0> (3ffc055c <timeout_list+0x514>)
4008179e:	02a225        	call8	400841c0 <printk>
400817a1:	00a022        	movi	a2, 0
400817a4:	0000c6        	j	400817ab <z_xtensa_backtrace_print+0xe3>
400817a7:	00          	.byte 00
400817a8:	00          	.byte 00
400817a9:	020c      	movi.n	a2, 0
400817ab:	fb8aa1        	l32r	a10, 400805d4 <_init_end+0x1d4> (3ffc056c <timeout_list+0x524>)
400817ae:	02a125        	call8	400841c0 <printk>
400817b1:	000046        	j	400817b6 <z_xtensa_backtrace_print+0xee>
400817b4:	f27c      	movi.n	a2, -1
400817b6:	f01d      	retw.n

400817b8 <arch_coredump_info_dump>:
400817b8:	006136        	entry	a1, 48
400817bb:	fb8731        	l32r	a3, 400805d8 <_init_end+0x1d8> (3ffc0574 <timeout_list+0x52c>)
400817be:	0388      	l32i.n	a8, a3, 0
400817c0:	040332        	l8ui	a3, a3, 4
400817c3:	0189      	s32i.n	a8, a1, 0
400817c5:	044132        	s8i	a3, a1, 4
400817c8:	0e4216        	beqz	a2, 400818b0 <arch_coredump_info_dump+0xf8>
400817cb:	fb8431        	l32r	a3, 400805dc <_init_end+0x1dc> (3ffc1d20 <arch_blk>)
400817ce:	68a0c2        	movi	a12, 104
400817d1:	0b0c      	movi.n	a11, 0
400817d3:	03ad      	mov.n	a10, a3
400817d5:	02ae65        	call8	400842bc <memset>
400817d8:	280c      	movi.n	a8, 2
400817da:	014382        	s8i	a8, a3, 1
400817dd:	0a0c      	movi.n	a10, 0
400817df:	0243a2        	s8i	a10, a3, 2
400817e2:	004382        	s8i	a8, a3, 0
400817e5:	180c      	movi.n	a8, 1
400817e7:	034382        	s8i	a8, a3, 3
400817ea:	03e880        	rsr.exccause	a8
400817ed:	2389      	s32i.n	a8, a3, 8
400817ef:	0288      	l32i.n	a8, a2, 0
400817f1:	7898      	l32i.n	a9, a8, 28
400817f3:	1399      	s32i.n	a9, a3, 4
400817f5:	03ee90        	rsr.excvaddr	a9
400817f8:	3399      	s32i.n	a9, a3, 12
400817fa:	6898      	l32i.n	a9, a8, 24
400817fc:	5399      	s32i.n	a9, a3, 20
400817fe:	0898      	l32i.n	a9, a8, 0
40081800:	6399      	s32i.n	a9, a3, 24
40081802:	5898      	l32i.n	a9, a8, 20
40081804:	4399      	s32i.n	a9, a3, 16
40081806:	8898      	l32i.n	a9, a8, 32
40081808:	7399      	s32i.n	a9, a3, 28
4008180a:	40c892        	addi	a9, a8, 64
4008180d:	8399      	s32i.n	a9, a3, 32
4008180f:	a898      	l32i.n	a9, a8, 40
40081811:	9399      	s32i.n	a9, a3, 36
40081813:	b898      	l32i.n	a9, a8, 44
40081815:	a399      	s32i.n	a9, a3, 40
40081817:	c02820        	sub	a2, a8, a2
4008181a:	031c      	movi.n	a3, 16
4008181c:	1ea327        	bge	a3, a2, 4008183e <arch_coredump_info_dump+0x86>
4008181f:	f0c832        	addi	a3, a8, -16
40081822:	0398      	l32i.n	a9, a3, 0
40081824:	fb6e31        	l32r	a3, 400805dc <_init_end+0x1dc> (3ffc1d20 <arch_blk>)
40081827:	b399      	s32i.n	a9, a3, 44
40081829:	f4c892        	addi	a9, a8, -12
4008182c:	0998      	l32i.n	a9, a9, 0
4008182e:	c399      	s32i.n	a9, a3, 48
40081830:	f8c892        	addi	a9, a8, -8
40081833:	0998      	l32i.n	a9, a9, 0
40081835:	d399      	s32i.n	a9, a3, 52
40081837:	fcc892        	addi	a9, a8, -4
4008183a:	0998      	l32i.n	a9, a9, 0
4008183c:	e399      	s32i.n	a9, a3, 56
4008183e:	032c      	movi.n	a3, 32
40081840:	21a327        	bge	a3, a2, 40081865 <arch_coredump_info_dump+0xad>
40081843:	e0c832        	addi	a3, a8, -32
40081846:	0398      	l32i.n	a9, a3, 0
40081848:	fb6531        	l32r	a3, 400805dc <_init_end+0x1dc> (3ffc1d20 <arch_blk>)
4008184b:	f399      	s32i.n	a9, a3, 60
4008184d:	e4c892        	addi	a9, a8, -28
40081850:	0998      	l32i.n	a9, a9, 0
40081852:	106392        	s32i	a9, a3, 64
40081855:	e8c892        	addi	a9, a8, -24
40081858:	0998      	l32i.n	a9, a9, 0
4008185a:	116392        	s32i	a9, a3, 68
4008185d:	ecc892        	addi	a9, a8, -20
40081860:	0998      	l32i.n	a9, a9, 0
40081862:	126392        	s32i	a9, a3, 72
40081865:	033c      	movi.n	a3, 48
40081867:	22a327        	bge	a3, a2, 4008188d <arch_coredump_info_dump+0xd5>
4008186a:	d0c822        	addi	a2, a8, -48
4008186d:	0238      	l32i.n	a3, a2, 0
4008186f:	fb5b21        	l32r	a2, 400805dc <_init_end+0x1dc> (3ffc1d20 <arch_blk>)
40081872:	136232        	s32i	a3, a2, 76
40081875:	d4c832        	addi	a3, a8, -44
40081878:	0338      	l32i.n	a3, a3, 0
4008187a:	146232        	s32i	a3, a2, 80
4008187d:	d8c832        	addi	a3, a8, -40
40081880:	0338      	l32i.n	a3, a3, 0
40081882:	156232        	s32i	a3, a2, 84
40081885:	dcc832        	addi	a3, a8, -36
40081888:	0338      	l32i.n	a3, a3, 0
4008188a:	166232        	s32i	a3, a2, 88
4008188d:	042832        	l32i	a3, a8, 16
40081890:	fb5321        	l32r	a2, 400805dc <_init_end+0x1dc> (3ffc1d20 <arch_blk>)
40081893:	176232        	s32i	a3, a2, 92
40081896:	032832        	l32i	a3, a8, 12
40081899:	186232        	s32i	a3, a2, 96
4008189c:	2838      	l32i.n	a3, a8, 8
4008189e:	196232        	s32i	a3, a2, 100
400818a1:	5b0c      	movi.n	a11, 5
400818a3:	01ad      	mov.n	a10, a1
400818a5:	518725        	call8	400d3118 <coredump_buffer_output>
400818a8:	68a0b2        	movi	a11, 104
400818ab:	02ad      	mov.n	a10, a2
400818ad:	5186a5        	call8	400d3118 <coredump_buffer_output>
400818b0:	f01d      	retw.n
	...

400818b4 <arch_coredump_tgt_code_get>:
400818b4:	004136        	entry	a1, 32
400818b7:	520c      	movi.n	a2, 5
400818b9:	f01d      	retw.n
	...

400818bc <z_device_state_init>:
400818bc:	004136        	entry	a1, 32
400818bf:	fb4881        	l32r	a8, 400805e0 <_init_end+0x1e0> (3f404990 <__device_dts_ord_5>)
400818c2:	000086        	j	400818c8 <z_device_state_init+0xc>
400818c5:	18c882        	addi	a8, a8, 24
400818c8:	fb4791        	l32r	a9, 400805e4 <_init_end+0x1e4> (3f404a50 <__devicehdl_dts_ord_77>)
400818cb:	f63897        	bltu	a8, a9, 400818c5 <z_device_state_init+0x9>
400818ce:	f01d      	retw.n

400818d0 <reason_to_str>:
400818d0:	004136        	entry	a1, 32
400818d3:	2252f6        	bgeui	a2, 5, 400818f9 <reason_to_str+0x29>
400818d6:	fb4a81        	l32r	a8, 40080600 <_init_end+0x200> (3ffc05dc <timeout_list+0x594>)
400818d9:	a02280        	addx4	a2, a2, a8
400818dc:	0228      	l32i.n	a2, a2, 0
400818de:	0002a0        	jx	a2
400818e1:	fb4121        	l32r	a2, 400805e8 <_init_end+0x1e8> (3ffc057c <timeout_list+0x534>)
400818e4:	000686        	j	40081902 <reason_to_str+0x32>
400818e7:	fb4221        	l32r	a2, 400805f0 <_init_end+0x1f0> (3ffc05a0 <timeout_list+0x558>)
400818ea:	000506        	j	40081902 <reason_to_str+0x32>
400818ed:	fb4121        	l32r	a2, 400805f4 <_init_end+0x1f4> (3ffc05b0 <timeout_list+0x568>)
400818f0:	000386        	j	40081902 <reason_to_str+0x32>
400818f3:	fb4121        	l32r	a2, 400805f8 <_init_end+0x1f8> (3ffc05bc <timeout_list+0x574>)
400818f6:	000206        	j	40081902 <reason_to_str+0x32>
400818f9:	fb4021        	l32r	a2, 400805fc <_init_end+0x1fc> (3ffc05cc <timeout_list+0x584>)
400818fc:	000086        	j	40081902 <reason_to_str+0x32>
400818ff:	fb3b21        	l32r	a2, 400805ec <_init_end+0x1ec> (3ffc058c <timeout_list+0x544>)
40081902:	f01d      	retw.n

40081904 <thread_name_get>:
40081904:	004136        	entry	a1, 32
40081907:	012216        	beqz	a2, 4008191d <thread_name_get+0x19>
4008190a:	20a220        	or	a10, a2, a2
4008190d:	018365        	call8	40083144 <k_thread_name_get>
40081910:	202aa0        	or	a2, a10, a10
40081913:	da8c      	beqz.n	a10, 40081924 <thread_name_get+0x20>
40081915:	000a82        	l8ui	a8, a10, 0
40081918:	089c      	beqz.n	a8, 4008192c <thread_name_get+0x28>
4008191a:	000446        	j	4008192f <thread_name_get+0x2b>
4008191d:	fb3921        	l32r	a2, 40080604 <_init_end+0x204> (3ffc05f0 <timeout_list+0x5a8>)
40081920:	0002c6        	j	4008192f <thread_name_get+0x2b>
40081923:	00          	.byte 00
40081924:	fb3821        	l32r	a2, 40080604 <_init_end+0x204> (3ffc05f0 <timeout_list+0x5a8>)
40081927:	000106        	j	4008192f <thread_name_get+0x2b>
4008192a:	00          	.byte 00
4008192b:	00          	.byte 00
4008192c:	fb3621        	l32r	a2, 40080604 <_init_end+0x204> (3ffc05f0 <timeout_list+0x5a8>)
4008192f:	f01d      	retw.n
40081931:	000000        	ill

40081934 <k_sys_fatal_error_handler>:
40081934:	004136        	entry	a1, 32
40081937:	45a0b2        	movi	a11, 69
4008193a:	fb33a1        	l32r	a10, 40080608 <_init_end+0x208> (3ffc05f8 <timeout_list+0x5b0>)
4008193d:	4efca5        	call8	400d0908 <z_log_minimal_printk>
40081940:	20a220        	or	a10, a2, a2
40081943:	017c65        	call8	40083108 <arch_system_halt>
	...

40081948 <z_fatal_error>:
40081948:	004136        	entry	a1, 32
4008194b:	006350        	rsil	a5, 3
4008194e:	00e1e5        	call8	4008276c <z_impl_z_current_get>
40081951:	0a4d      	mov.n	a4, a10
40081953:	02ad      	mov.n	a10, a2
40081955:	fff7a5        	call8	400818d0 <reason_to_str>
40081958:	0e0c      	movi.n	a14, 0
4008195a:	0add      	mov.n	a13, a10
4008195c:	02cd      	mov.n	a12, a2
4008195e:	5b4c      	movi.n	a11, 69
40081960:	fb2ba1        	l32r	a10, 4008060c <_init_end+0x20c> (3ffc060c <timeout_list+0x5c4>)
40081963:	4efa65        	call8	400d0908 <z_log_minimal_printk>
40081966:	04ad      	mov.n	a10, a4
40081968:	fff9a5        	call8	40081904 <thread_name_get>
4008196b:	0add      	mov.n	a13, a10
4008196d:	04cd      	mov.n	a12, a4
4008196f:	45a0b2        	movi	a11, 69
40081972:	fb27a1        	l32r	a10, 40080610 <_init_end+0x210> (3ffc063c <timeout_list+0x5f4>)
40081975:	4ef925        	call8	400d0908 <z_log_minimal_printk>
40081978:	03bd      	mov.n	a11, a3
4008197a:	02ad      	mov.n	a10, a2
4008197c:	fffb65        	call8	40081934 <k_sys_fatal_error_handler>
4008197f:	13e650        	wsr.ps	a5
40081982:	002010        	rsync
40081985:	04ad      	mov.n	a10, a4
40081987:	00e465        	call8	400827cc <z_impl_k_thread_abort>
4008198a:	f01d      	retw.n

4008198c <z_sys_init_run_level>:
4008198c:	004136        	entry	a1, 32
4008198f:	fb2131        	l32r	a3, 40080614 <_init_end+0x214> (3ffc066c <levels$0>)
40081992:	a03230        	addx4	a3, a2, a3
40081995:	0338      	l32i.n	a3, a3, 0
40081997:	000bc6        	j	400819ca <z_sys_init_run_level+0x3e>
4008199a:	1348      	l32i.n	a4, a3, 4
4008199c:	002382        	l32i	a8, a3, 0
4008199f:	04ad      	mov.n	a10, a4
400819a1:	0008e0        	callx8	a8
400819a4:	04ac      	beqz.n	a4, 400819c8 <z_sys_init_run_level+0x3c>
400819a6:	1a9c      	beqz.n	a10, 400819bb <z_sys_init_run_level+0x2f>
400819a8:	002ad6        	bgez	a10, 400819ae <z_sys_init_run_level+0x22>
400819ab:	60a0a0        	neg	a10, a10
400819ae:	ffa082        	movi	a8, 255
400819b1:	01a8a7        	bge	a8, a10, 400819b6 <z_sys_init_run_level+0x2a>
400819b4:	08ad      	mov.n	a10, a8
400819b6:	3488      	l32i.n	a8, a4, 12
400819b8:	0048a2        	s8i	a10, a8, 0
400819bb:	3488      	l32i.n	a8, a4, 12
400819bd:	010842        	l8ui	a4, a8, 1
400819c0:	190c      	movi.n	a9, 1
400819c2:	204490        	or	a4, a4, a9
400819c5:	014842        	s8i	a4, a8, 1
400819c8:	338b      	addi.n	a3, a3, 8
400819ca:	821b      	addi.n	a8, a2, 1
400819cc:	fb1241        	l32r	a4, 40080614 <_init_end+0x214> (3ffc066c <levels$0>)
400819cf:	a08840        	addx4	a8, a8, a4
400819d2:	0848      	l32i.n	a4, a8, 0
400819d4:	c23347        	bltu	a3, a4, 4008199a <z_sys_init_run_level+0xe>
400819d7:	f01d      	retw.n
400819d9:	000000        	ill

400819dc <init_idle_thread>:
400819dc:	006136        	entry	a1, 48
400819df:	b03220        	addx8	a3, a2, a2
400819e2:	804330        	add	a4, a3, a3
400819e5:	903320        	addx2	a3, a3, a2
400819e8:	fb0c51        	l32r	a5, 40080618 <_init_end+0x218> (3ffc1af8 <z_idle_threads>)
400819eb:	b03350        	addx8	a3, a3, a5
400819ee:	118260        	slli	a8, a2, 10
400819f1:	90e220        	addx2	a14, a2, a2
400819f4:	fb0c91        	l32r	a9, 40080624 <_init_end+0x224> (3ffc065c <timeout_list+0x614>)
400819f7:	036192        	s32i	a9, a1, 12
400819fa:	01a092        	movi	a9, 1
400819fd:	2199      	s32i.n	a9, a1, 8
400819ff:	f90c      	movi.n	a9, 15
40081a01:	1199      	s32i.n	a9, a1, 4
40081a03:	0f0c      	movi.n	a15, 0
40081a05:	01f9      	s32i.n	a15, a1, 0
40081a07:	fa8091        	l32r	a9, 40080408 <_init_end+0x8> (3ffc1efc <_kernel>)
40081a0a:	b0ee90        	addx8	a14, a14, a9
40081a0d:	fb04d1        	l32r	a13, 40080620 <_init_end+0x220> (40081e3c <idle>)
40081a10:	00a4c2        	movi	a12, 0x400
40081a13:	fb02b1        	l32r	a11, 4008061c <_init_end+0x21c> (3ffe5a30 <z_idle_stacks>)
40081a16:	bb8a      	add.n	a11, a11, a8
40081a18:	03ad      	mov.n	a10, a3
40081a1a:	002e25        	call8	40081cfc <z_setup_new_thread>
40081a1d:	0d0332        	l8ui	a3, a3, 13
40081a20:	242a      	add.n	a2, a4, a2
40081a22:	b02250        	addx8	a2, a2, a5
40081a25:	b47c      	movi.n	a4, -5
40081a27:	103340        	and	a3, a3, a4
40081a2a:	0d4232        	s8i	a3, a2, 13
40081a2d:	f01d      	retw.n
	...

40081a30 <bg_thread_main>:
40081a30:	004136        	entry	a1, 32
40081a33:	fafd81        	l32r	a8, 40080628 <_init_end+0x228> (3ffc1f39 <z_sys_post_kernel>)
40081a36:	190c      	movi.n	a9, 1
40081a38:	004892        	s8i	a9, a8, 0
40081a3b:	3a0c      	movi.n	a10, 3
40081a3d:	fff4e5        	call8	4008198c <z_sys_init_run_level>
40081a40:	013d65        	call8	40082e18 <boot_banner>
40081a43:	4a0c      	movi.n	a10, 4
40081a45:	fff465        	call8	4008198c <z_sys_init_run_level>
40081a48:	0037e5        	call8	40081dc8 <z_init_static_threads>
40081a4b:	4ea3a5        	call8	400d0484 <main>
40081a4e:	faf791        	l32r	a9, 4008062c <_init_end+0x22c> (3ffc1b90 <z_main_thread>)
40081a51:	0c0982        	l8ui	a8, a9, 12
40081a54:	ea7c      	movi.n	a10, -2
40081a56:	1088a0        	and	a8, a8, a10
40081a59:	0c4982        	s8i	a8, a9, 12
40081a5c:	f01d      	retw.n
	...

40081a60 <arch_switch>:
40081a60:	004136        	entry	a1, 32
40081a63:	20b330        	or	a11, a3, a3
40081a66:	20a220        	or	a10, a2, a2
40081a69:	ff54e5        	call8	40080fb8 <xtensa_switch>
40081a6c:	000090        	retw
	...

40081a70 <z_swap_unlocked>:
40081a70:	004136        	entry	a1, 32
40081a73:	006320        	rsil	a2, 3
40081a76:	fa6431        	l32r	a3, 40080408 <_init_end+0x8> (3ffc1efc <_kernel>)
40081a79:	022342        	l32i	a4, a3, 8
40081a7c:	537c      	movi.n	a3, -11
40081a7e:	226432        	s32i	a3, a4, 136
40081a81:	006330        	rsil	a3, 3
40081a84:	005565        	call8	40081fdc <z_swap_next_thread>
40081a87:	0a3d      	mov.n	a3, a10
40081a89:	1314a7        	beq	a4, a10, 40081aa0 <z_swap_unlocked+0x30>
40081a8c:	fa5f81        	l32r	a8, 40080408 <_init_end+0x8> (3ffc1efc <_kernel>)
40081a8f:	28a9      	s32i.n	a10, a8, 8
40081a91:	004b25        	call8	40081f44 <z_reset_time_slice>
40081a94:	8ca0b2        	movi	a11, 140
40081a97:	80b4b0        	add	a11, a4, a11
40081a9a:	2323a2        	l32i	a10, a3, 140
40081a9d:	fffc25        	call8	40081a60 <arch_switch>
40081aa0:	13e620        	wsr.ps	a2
40081aa3:	002010        	rsync
40081aa6:	f01d      	retw.n

40081aa8 <switch_to_main_thread>:
40081aa8:	004136        	entry	a1, 32
40081aab:	fffc65        	call8	40081a70 <z_swap_unlocked>
	...

40081ab0 <z_early_memset>:
40081ab0:	004136        	entry	a1, 32
40081ab3:	04cd      	mov.n	a12, a4
40081ab5:	03bd      	mov.n	a11, a3
40081ab7:	02ad      	mov.n	a10, a2
40081ab9:	028025        	call8	400842bc <memset>
40081abc:	f01d      	retw.n
	...

40081ac0 <z_bss_zero>:
40081ac0:	004136        	entry	a1, 32
40081ac3:	fadca1        	l32r	a10, 40080634 <_init_end+0x234> (3ffc0af8 <kheap__system_heap>)
40081ac6:	fadac1        	l32r	a12, 40080630 <_init_end+0x230> (3ffc1f40 <__bss_end>)
40081ac9:	c0cca0        	sub	a12, a12, a10
40081acc:	0b0c      	movi.n	a11, 0
40081ace:	fffe25        	call8	40081ab0 <z_early_memset>
40081ad1:	f01d      	retw.n
	...

40081ad4 <z_init_cpu>:
40081ad4:	004136        	entry	a1, 32
40081ad7:	02ad      	mov.n	a10, a2
40081ad9:	fff025        	call8	400819dc <init_idle_thread>
40081adc:	b08220        	addx8	a8, a2, a2
40081adf:	908820        	addx2	a8, a8, a2
40081ae2:	facd91        	l32r	a9, 40080618 <_init_end+0x218> (3ffc1af8 <z_idle_threads>)
40081ae5:	b08890        	addx8	a8, a8, a9
40081ae8:	fa48a1        	l32r	a10, 40080408 <_init_end+0x8> (3ffc1efc <_kernel>)
40081aeb:	909220        	addx2	a9, a2, a2
40081aee:	b099a0        	addx8	a9, a9, a10
40081af1:	3989      	s32i.n	a8, a9, 12
40081af3:	144922        	s8i	a2, a9, 20
40081af6:	118250        	slli	a8, a2, 11
40081af9:	facf91        	l32r	a9, 40080638 <_init_end+0x238> (3ffe5230 <z_interrupt_stacks>)
40081afc:	889a      	add.n	a8, a8, a9
40081afe:	08d882        	addmi	a8, a8, 0x800
40081b01:	902220        	addx2	a2, a2, a2
40081b04:	b022a0        	addx8	a2, a2, a10
40081b07:	1289      	s32i.n	a8, a2, 4
40081b09:	f01d      	retw.n
	...

40081b0c <prepare_multithreading>:
40081b0c:	006136        	entry	a1, 48
40081b0f:	00abe5        	call8	400825cc <z_sched_init>
40081b12:	fac641        	l32r	a4, 4008062c <_init_end+0x22c> (3ffc1b90 <z_main_thread>)
40081b15:	fa3c21        	l32r	a2, 40080408 <_init_end+0x8> (3ffc1efc <_kernel>)
40081b18:	6249      	s32i.n	a4, a2, 24
40081b1a:	faca21        	l32r	a2, 40080644 <_init_end+0x244> (3ffc0664 <timeout_list+0x61c>)
40081b1d:	3129      	s32i.n	a2, a1, 12
40081b1f:	120c      	movi.n	a2, 1
40081b21:	2129      	s32i.n	a2, a1, 8
40081b23:	030c      	movi.n	a3, 0
40081b25:	1139      	s32i.n	a3, a1, 4
40081b27:	0139      	s32i.n	a3, a1, 0
40081b29:	03fd      	mov.n	a15, a3
40081b2b:	03ed      	mov.n	a14, a3
40081b2d:	fac3d1        	l32r	a13, 4008063c <_init_end+0x23c> (40081a30 <bg_thread_main>)
40081b30:	fa7dc1        	l32r	a12, 40080524 <_init_end+0x124> (800 <CONFIG_ISR_STACK_SIZE>)
40081b33:	fac3b1        	l32r	a11, 40080640 <_init_end+0x240> (3ffe5e30 <z_main_stack>)
40081b36:	04ad      	mov.n	a10, a4
40081b38:	001c25        	call8	40081cfc <z_setup_new_thread>
40081b3b:	0a2d      	mov.n	a2, a10
40081b3d:	0d0482        	l8ui	a8, a4, 13
40081b40:	b97c      	movi.n	a9, -5
40081b42:	108890        	and	a8, a8, a9
40081b45:	0d4482        	s8i	a8, a4, 13
40081b48:	04ad      	mov.n	a10, a4
40081b4a:	0079a5        	call8	400822e4 <z_ready_thread>
40081b4d:	03ad      	mov.n	a10, a3
40081b4f:	fff865        	call8	40081ad4 <z_init_cpu>
40081b52:	f01d      	retw.n

40081b54 <z_cstart>:
40081b54:	018136        	entry	a1, 192
40081b57:	00a0a2        	movi	a10, 0
40081b5a:	ffe325        	call8	4008198c <z_sys_init_run_level>
40081b5d:	fa2a21        	l32r	a2, 40080408 <_init_end+0x8> (3ffc1efc <_kernel>)
40081b60:	00a082        	movi	a8, 0
40081b63:	0289      	s32i.n	a8, a2, 0
40081b65:	13f520        	wsr.misc1	a2
40081b68:	190c      	movi.n	a9, 1
40081b6a:	0d4192        	s8i	a9, a1, 13
40081b6d:	0c4192        	s8i	a9, a1, 12
40081b70:	1f6182        	s32i	a8, a1, 124
40081b73:	206182        	s32i	a8, a1, 128
40081b76:	01ad      	mov.n	a10, a1
40081b78:	012925        	call8	40082e0c <k_thread_system_pool_assign>
40081b7b:	2219      	s32i.n	a1, a2, 8
40081b7d:	ffd3e5        	call8	400818bc <z_device_state_init>
40081b80:	1a0c      	movi.n	a10, 1
40081b82:	ffe0a5        	call8	4008198c <z_sys_init_run_level>
40081b85:	2a0c      	movi.n	a10, 2
40081b87:	ffe065        	call8	4008198c <z_sys_init_run_level>
40081b8a:	fff825        	call8	40081b0c <prepare_multithreading>
40081b8d:	fff1a5        	call8	40081aa8 <switch_to_main_thread>

40081b90 <k_heap_init>:
40081b90:	004136        	entry	a1, 32
40081b93:	20a220        	or	a10, a2, a2
40081b96:	0cc282        	addi	a8, a2, 12
40081b99:	036282        	s32i	a8, a2, 12
40081b9c:	4289      	s32i.n	a8, a2, 16
40081b9e:	04cd      	mov.n	a12, a4
40081ba0:	03bd      	mov.n	a11, a3
40081ba2:	4ecd25        	call8	400d0874 <sys_heap_init>
40081ba5:	f01d      	retw.n
	...

40081ba8 <statics_init>:
40081ba8:	004136        	entry	a1, 32
40081bab:	faa721        	l32r	a2, 40080648 <_init_end+0x248> (3ffc0a70 <_internal_heap_1>)
40081bae:	000386        	j	40081bc0 <statics_init+0x18>
40081bb1:	0222c2        	l32i	a12, a2, 8
40081bb4:	0122b2        	l32i	a11, a2, 4
40081bb7:	20a220        	or	a10, a2, a2
40081bba:	fffd65        	call8	40081b90 <k_heap_init>
40081bbd:	14c222        	addi	a2, a2, 20
40081bc0:	faa381        	l32r	a8, 4008064c <_init_end+0x24c> (3ffc0a98 <log_const_cbprintf_package>)
40081bc3:	ea3287        	bltu	a2, a8, 40081bb1 <statics_init+0x9>
40081bc6:	020c      	movi.n	a2, 0
40081bc8:	f01d      	retw.n
	...

40081bcc <k_heap_aligned_alloc>:
40081bcc:	006136        	entry	a1, 48
40081bcf:	0179      	s32i.n	a7, a1, 0
40081bd1:	025d      	mov.n	a5, a2
40081bd3:	1139      	s32i.n	a3, a1, 4
40081bd5:	2149      	s32i.n	a4, a1, 8
40081bd7:	06ad      	mov.n	a10, a6
40081bd9:	01b8      	l32i.n	a11, a1, 0
40081bdb:	010225        	call8	40082bfc <sys_clock_timeout_end_calc>
40081bde:	0a4d      	mov.n	a4, a10
40081be0:	0b7d      	mov.n	a7, a11
40081be2:	0128      	l32i.n	a2, a1, 0
40081be4:	080666        	bnei	a6, -1, 40081bf0 <k_heap_aligned_alloc+0x24>
40081be7:	050266        	bnei	a2, -1, 40081bf0 <k_heap_aligned_alloc+0x24>
40081bea:	ffaf42        	movi	a4, -1
40081bed:	fa0a71        	l32r	a7, 40080418 <_init_end+0x18> (7fffffff <_rtc_bss_end+0x2fffffff>)
40081bf0:	14c522        	addi	a2, a5, 20
40081bf3:	0129      	s32i.n	a2, a1, 0
40081bf5:	006330        	rsil	a3, 3
40081bf8:	060c      	movi.n	a6, 0
40081bfa:	062d      	mov.n	a2, a6
40081bfc:	000f06        	j	40081c3c <k_heap_aligned_alloc+0x70>
40081bff:	00          	.byte 00
40081c00:	0221c2        	l32i	a12, a1, 8
40081c03:	0121b2        	l32i	a11, a1, 4
40081c06:	05ad      	mov.n	a10, a5
40081c08:	4eb8a5        	call8	400d0794 <sys_heap_aligned_alloc>
40081c0b:	0a2d      	mov.n	a2, a10
40081c0d:	00f6a5        	call8	40082b78 <sys_clock_tick_get>
40081c10:	b2ec      	bnez.n	a2, 40081c3f <k_heap_aligned_alloc+0x73>
40081c12:	c0e4a0        	sub	a14, a4, a10
40081c15:	180c      	movi.n	a8, 1
40081c17:	0134e7        	bltu	a4, a14, 40081c1c <k_heap_aligned_alloc+0x50>
40081c1a:	080c      	movi.n	a8, 0
40081c1c:	c0f7b0        	sub	a15, a7, a11
40081c1f:	c0ff80        	sub	a15, a15, a8
40081c22:	031fe6        	bgei	a15, 1, 40081c29 <k_heap_aligned_alloc+0x5d>
40081c25:	6fdc      	bnez.n	a15, 40081c3f <k_heap_aligned_alloc+0x73>
40081c27:	4e9c      	beqz.n	a14, 40081c3f <k_heap_aligned_alloc+0x73>
40081c29:	06cc      	bnez.n	a6, 40081c2d <k_heap_aligned_alloc+0x61>
40081c2b:	160c      	movi.n	a6, 1
40081c2d:	0cc5c2        	addi	a12, a5, 12
40081c30:	20b330        	or	a11, a3, a3
40081c33:	0021a2        	l32i	a10, a1, 0
40081c36:	008265        	call8	4008245c <z_pend_curr>
40081c39:	006330        	rsil	a3, 3
40081c3c:	fc0216        	beqz	a2, 40081c00 <k_heap_aligned_alloc+0x34>
40081c3f:	13e630        	wsr.ps	a3
40081c42:	002010        	rsync
40081c45:	f01d      	retw.n
	...

40081c48 <k_heap_free>:
40081c48:	004136        	entry	a1, 32
40081c4b:	20b330        	or	a11, a3, a3
40081c4e:	14c252        	addi	a5, a2, 20
40081c51:	006340        	rsil	a4, 3
40081c54:	043d      	mov.n	a3, a4
40081c56:	02ad      	mov.n	a10, a2
40081c58:	4eaa65        	call8	400d0700 <sys_heap_free>
40081c5b:	a2cb      	addi.n	a10, a2, 12
40081c5d:	0094a5        	call8	400825a8 <z_unpend_all>
40081c60:	8a8c      	beqz.n	a10, 40081c6c <k_heap_free+0x24>
40081c62:	04bd      	mov.n	a11, a4
40081c64:	05ad      	mov.n	a10, a5
40081c66:	004265        	call8	4008208c <z_reschedule>
40081c69:	000146        	j	40081c72 <k_heap_free+0x2a>
40081c6c:	13e640        	wsr.ps	a4
40081c6f:	002010        	rsync
40081c72:	f01d      	retw.n

40081c74 <z_thread_monitor_exit>:
40081c74:	004136        	entry	a1, 32
40081c77:	0063a0        	rsil	a10, 3
40081c7a:	f9e381        	l32r	a8, 40080408 <_init_end+0x8> (3ffc1efc <_kernel>)
40081c7d:	9888      	l32i.n	a8, a8, 36
40081c7f:	0c9827        	bne	a8, a2, 40081c8f <z_thread_monitor_exit+0x1b>
40081c82:	152882        	l32i	a8, a8, 84
40081c85:	f9e021        	l32r	a2, 40080408 <_init_end+0x8> (3ffc1efc <_kernel>)
40081c88:	9289      	s32i.n	a8, a2, 36
40081c8a:	000486        	j	40081ca0 <z_thread_monitor_exit+0x2c>
40081c8d:	098d      	mov.n	a8, a9
40081c8f:	005816        	beqz	a8, 40081c98 <z_thread_monitor_exit+0x24>
40081c92:	152892        	l32i	a9, a8, 84
40081c95:	f49927        	bne	a9, a2, 40081c8d <z_thread_monitor_exit+0x19>
40081c98:	488c      	beqz.n	a8, 40081ca0 <z_thread_monitor_exit+0x2c>
40081c9a:	152222        	l32i	a2, a2, 84
40081c9d:	156822        	s32i	a2, a8, 84
40081ca0:	13e6a0        	wsr.ps	a10
40081ca3:	002010        	rsync
40081ca6:	f01d      	retw.n

40081ca8 <z_impl_k_thread_name_set>:
40081ca8:	004136        	entry	a1, 32
40081cab:	03bd      	mov.n	a11, a3
40081cad:	42cc      	bnez.n	a2, 40081cb5 <z_impl_k_thread_name_set+0xd>
40081caf:	f9d621        	l32r	a2, 40080408 <_init_end+0x8> (3ffc1efc <_kernel>)
40081cb2:	022222        	l32i	a2, a2, 8
40081cb5:	1fa0c2        	movi	a12, 31
40081cb8:	58c2a2        	addi	a10, a2, 88
40081cbb:	025565        	call8	40084210 <strncpy>
40081cbe:	00a082        	movi	a8, 0
40081cc1:	774282        	s8i	a8, a2, 119
40081cc4:	00a022        	movi	a2, 0
40081cc7:	f01d      	retw.n
40081cc9:	000000        	ill

40081ccc <z_impl_k_thread_start>:
40081ccc:	004136        	entry	a1, 32
40081ccf:	02ad      	mov.n	a10, a2
40081cd1:	0063e5        	call8	40082310 <z_sched_start>
40081cd4:	f01d      	retw.n
	...

40081cd8 <schedule_new_thread>:
40081cd8:	004136        	entry	a1, 32
40081cdb:	208540        	or	a8, a5, a4
40081cde:	68cc      	bnez.n	a8, 40081ce8 <schedule_new_thread+0x10>
40081ce0:	02ad      	mov.n	a10, a2
40081ce2:	fffea5        	call8	40081ccc <z_impl_k_thread_start>
40081ce5:	000386        	j	40081cf7 <schedule_new_thread+0x1f>
40081ce8:	20c440        	or	a12, a4, a4
40081ceb:	20d550        	or	a13, a5, a5
40081cee:	fa58b1        	l32r	a11, 40080650 <_init_end+0x250> (40082340 <z_thread_timeout>)
40081cf1:	18c2a2        	addi	a10, a2, 24
40081cf4:	00c0e5        	call8	40082904 <z_add_timeout>
40081cf7:	000090        	retw
	...

40081cfc <z_setup_new_thread>:
40081cfc:	006136        	entry	a1, 48
40081cff:	38c282        	addi	a8, a2, 56
40081d02:	e289      	s32i.n	a8, a2, 56
40081d04:	f289      	s32i.n	a8, a2, 60
40081d06:	e1d8      	l32i.n	a13, a1, 56
40081d08:	4c0c      	movi.n	a12, 4
40081d0a:	d1b8      	l32i.n	a11, a1, 52
40081d0c:	02ad      	mov.n	a10, a2
40081d0e:	0143e5        	call8	4008314c <z_init_thread_base>
40081d11:	04cd      	mov.n	a12, a4
40081d13:	03bd      	mov.n	a11, a3
40081d15:	02ad      	mov.n	a10, a2
40081d17:	013fe5        	call8	40083114 <setup_thread_stack>
40081d1a:	0a4d      	mov.n	a4, a10
40081d1c:	c188      	l32i.n	a8, a1, 48
40081d1e:	0189      	s32i.n	a8, a1, 0
40081d20:	07fd      	mov.n	a15, a7
40081d22:	06ed      	mov.n	a14, a6
40081d24:	05dd      	mov.n	a13, a5
40081d26:	0acd      	mov.n	a12, a10
40081d28:	03bd      	mov.n	a11, a3
40081d2a:	02ad      	mov.n	a10, a2
40081d2c:	ff65a5        	call8	40081388 <arch_new_thread>
40081d2f:	030c      	movi.n	a3, 0
40081d31:	d239      	s32i.n	a3, a2, 52
40081d33:	116252        	s32i	a5, a2, 68
40081d36:	126262        	s32i	a6, a2, 72
40081d39:	136272        	s32i	a7, a2, 76
40081d3c:	c138      	l32i.n	a3, a1, 48
40081d3e:	146232        	s32i	a3, a2, 80
40081d41:	006350        	rsil	a5, 3
40081d44:	f9b131        	l32r	a3, 40080408 <_init_end+0x8> (3ffc1efc <_kernel>)
40081d47:	9368      	l32i.n	a6, a3, 36
40081d49:	156262        	s32i	a6, a2, 84
40081d4c:	9329      	s32i.n	a2, a3, 36
40081d4e:	13e650        	wsr.ps	a5
40081d51:	002010        	rsync
40081d54:	f138      	l32i.n	a3, a1, 60
40081d56:	039c      	beqz.n	a3, 40081d6a <z_setup_new_thread+0x6e>
40081d58:	fc1c      	movi.n	a12, 31
40081d5a:	03bd      	mov.n	a11, a3
40081d5c:	58c2a2        	addi	a10, a2, 88
40081d5f:	024b25        	call8	40084210 <strncpy>
40081d62:	030c      	movi.n	a3, 0
40081d64:	774232        	s8i	a3, a2, 119
40081d67:	000106        	j	40081d6f <z_setup_new_thread+0x73>
40081d6a:	030c      	movi.n	a3, 0
40081d6c:	584232        	s8i	a3, a2, 88
40081d6f:	f9a631        	l32r	a3, 40080408 <_init_end+0x8> (3ffc1efc <_kernel>)
40081d72:	2338      	l32i.n	a3, a3, 8
40081d74:	242332        	l32i	a3, a3, 144
40081d77:	246232        	s32i	a3, a2, 144
40081d7a:	042d      	mov.n	a2, a4
40081d7c:	f01d      	retw.n
	...

40081d80 <z_impl_k_thread_create>:
40081d80:	008136        	entry	a1, 64
40081d83:	20f770        	or	a15, a7, a7
40081d86:	142172        	l32i	a7, a1, 80
40081d89:	152182        	l32i	a8, a1, 84
40081d8c:	046182        	s32i	a8, a1, 16
40081d8f:	00a082        	movi	a8, 0
40081d92:	3189      	s32i.n	a8, a1, 12
40081d94:	122182        	l32i	a8, a1, 72
40081d97:	2189      	s32i.n	a8, a1, 8
40081d99:	112182        	l32i	a8, a1, 68
40081d9c:	1189      	s32i.n	a8, a1, 4
40081d9e:	102182        	l32i	a8, a1, 64
40081da1:	0189      	s32i.n	a8, a1, 0
40081da3:	06ed      	mov.n	a14, a6
40081da5:	05dd      	mov.n	a13, a5
40081da7:	04cd      	mov.n	a12, a4
40081da9:	03bd      	mov.n	a11, a3
40081dab:	02ad      	mov.n	a10, a2
40081dad:	fff4e5        	call8	40081cfc <z_setup_new_thread>
40081db0:	4188      	l32i.n	a8, a1, 16
40081db2:	020766        	bnei	a7, -1, 40081db8 <z_impl_k_thread_create+0x38>
40081db5:	0b0826        	beqi	a8, -1, 40081dc4 <z_impl_k_thread_create+0x44>
40081db8:	20c770        	or	a12, a7, a7
40081dbb:	0421d2        	l32i	a13, a1, 16
40081dbe:	20a220        	or	a10, a2, a2
40081dc1:	fff165        	call8	40081cd8 <schedule_new_thread>
40081dc4:	f01d      	retw.n
	...

40081dc8 <z_init_static_threads>:
40081dc8:	006136        	entry	a1, 48
40081dcb:	fa2221        	l32r	a2, 40080654 <_init_end+0x254> (3f404a50 <__devicehdl_dts_ord_77>)
40081dce:	000a46        	j	40081dfb <z_init_static_threads+0x33>
40081dd1:	00          	.byte 00
40081dd2:	0a2282        	l32i	a8, a2, 40
40081dd5:	036182        	s32i	a8, a1, 12
40081dd8:	8288      	l32i.n	a8, a2, 32
40081dda:	2189      	s32i.n	a8, a1, 8
40081ddc:	7288      	l32i.n	a8, a2, 28
40081dde:	1189      	s32i.n	a8, a1, 4
40081de0:	6288      	l32i.n	a8, a2, 24
40081de2:	0189      	s32i.n	a8, a1, 0
40081de4:	52f8      	l32i.n	a15, a2, 20
40081de6:	42e8      	l32i.n	a14, a2, 16
40081de8:	32d8      	l32i.n	a13, a2, 12
40081dea:	22c8      	l32i.n	a12, a2, 8
40081dec:	12b8      	l32i.n	a11, a2, 4
40081dee:	0022a2        	l32i	a10, a2, 0
40081df1:	fff0a5        	call8	40081cfc <z_setup_new_thread>
40081df4:	0288      	l32i.n	a8, a2, 0
40081df6:	d829      	s32i.n	a2, a8, 52
40081df8:	2cc222        	addi	a2, a2, 44
40081dfb:	fa1681        	l32r	a8, 40080654 <_init_end+0x254> (3f404a50 <__devicehdl_dts_ord_77>)
40081dfe:	d03287        	bltu	a2, a8, 40081dd2 <z_init_static_threads+0xa>
40081e01:	001b25        	call8	40081fb4 <k_sched_lock>
40081e04:	fa1421        	l32r	a2, 40080654 <_init_end+0x254> (3f404a50 <__devicehdl_dts_ord_77>)
40081e07:	000906        	j	40081e2f <z_init_static_threads+0x67>
40081e0a:	0922c2        	l32i	a12, a2, 36
40081e0d:	1b0c26        	beqi	a12, -1, 40081e2c <z_init_static_threads+0x64>
40081e10:	00a082        	movi	a8, 0
40081e13:	53cc80        	max	a12, a12, a8
40081e16:	31dfc0        	srai	a13, a12, 31
40081e19:	a80c      	movi.n	a8, 10
40081e1b:	82d8d0        	mull	a13, a8, a13
40081e1e:	a298c0        	muluh	a9, a8, a12
40081e21:	dd9a      	add.n	a13, a13, a9
40081e23:	82c8c0        	mull	a12, a8, a12
40081e26:	0022a2        	l32i	a10, a2, 0
40081e29:	ffeae5        	call8	40081cd8 <schedule_new_thread>
40081e2c:	2cc222        	addi	a2, a2, 44
40081e2f:	fa0981        	l32r	a8, 40080654 <_init_end+0x254> (3f404a50 <__devicehdl_dts_ord_77>)
40081e32:	d43287        	bltu	a2, a8, 40081e0a <z_init_static_threads+0x42>
40081e35:	006aa5        	call8	400824e0 <k_sched_unlock>
40081e38:	f01d      	retw.n
	...

40081e3c <idle>:
40081e3c:	004136        	entry	a1, 32
40081e3f:	006380        	rsil	a8, 3
40081e42:	fefae5        	call8	40080df0 <arch_cpu_idle>
40081e45:	fffd86        	j	40081e3f <idle+0x3>

40081e48 <z_impl_k_sem_give>:
40081e48:	004136        	entry	a1, 32
40081e4b:	006330        	rsil	a3, 3
40081e4e:	20a220        	or	a10, a2, a2
40081e51:	007225        	call8	40082574 <z_unpend_first_thread>
40081e54:	00ca16        	beqz	a10, 40081e64 <z_impl_k_sem_give+0x1c>
40081e57:	00a022        	movi	a2, 0
40081e5a:	226a22        	s32i	a2, a10, 136
40081e5d:	004865        	call8	400822e4 <z_ready_thread>
40081e60:	000706        	j	40081e80 <z_impl_k_sem_give+0x38>
40081e63:	00          	.byte 00
40081e64:	2288      	l32i.n	a8, a2, 8
40081e66:	3298      	l32i.n	a9, a2, 12
40081e68:	041897        	beq	a8, a9, 40081e70 <z_impl_k_sem_give+0x28>
40081e6b:	190c      	movi.n	a9, 1
40081e6d:	000086        	j	40081e73 <z_impl_k_sem_give+0x2b>
40081e70:	00a092        	movi	a9, 0
40081e73:	808890        	add	a8, a8, a9
40081e76:	2289      	s32i.n	a8, a2, 8
40081e78:	2b0c      	movi.n	a11, 2
40081e7a:	10c2a2        	addi	a10, a2, 16
40081e7d:	00eda5        	call8	40082d58 <z_handle_obj_poll_events>
40081e80:	03bd      	mov.n	a11, a3
40081e82:	f9f5a1        	l32r	a10, 40080658 <_init_end+0x258> (3ffc1f24 <slice_max_prio>)
40081e85:	002065        	call8	4008208c <z_reschedule>
40081e88:	f01d      	retw.n
	...

40081e8c <z_impl_k_sem_take>:
40081e8c:	004136        	entry	a1, 32
40081e8f:	0063b0        	rsil	a11, 3
40081e92:	2298      	l32i.n	a9, a2, 8
40081e94:	180c      	movi.n	a8, 1
40081e96:	0a0c      	movi.n	a10, 0
40081e98:	838a90        	moveqz	a8, a10, a9
40081e9b:	748080        	extui	a8, a8, 0, 8
40081e9e:	0e18a7        	beq	a8, a10, 40081eb0 <z_impl_k_sem_take+0x24>
40081ea1:	990b      	addi.n	a9, a9, -1
40081ea3:	2299      	s32i.n	a9, a2, 8
40081ea5:	13e6b0        	wsr.ps	a11
40081ea8:	002010        	rsync
40081eab:	0a2d      	mov.n	a2, a10
40081ead:	000846        	j	40081ed2 <z_impl_k_sem_take+0x46>
40081eb0:	208540        	or	a8, a5, a4
40081eb3:	a8cc      	bnez.n	a8, 40081ec1 <z_impl_k_sem_take+0x35>
40081eb5:	13e6b0        	wsr.ps	a11
40081eb8:	002010        	rsync
40081ebb:	027c      	movi.n	a2, -16
40081ebd:	000446        	j	40081ed2 <z_impl_k_sem_take+0x46>
40081ec0:	00          	.byte 00
40081ec1:	20e440        	or	a14, a4, a4
40081ec4:	20f550        	or	a15, a5, a5
40081ec7:	20c220        	or	a12, a2, a2
40081eca:	f9e3a1        	l32r	a10, 40080658 <_init_end+0x258> (3ffc1f24 <slice_max_prio>)
40081ecd:	0058e5        	call8	4008245c <z_pend_curr>
40081ed0:	0a2d      	mov.n	a2, a10
40081ed2:	f01d      	retw.n

40081ed4 <sliceable>:
40081ed4:	004136        	entry	a1, 32
40081ed7:	071282        	l16ui	a8, a2, 14
40081eda:	7fa092        	movi	a9, 127
40081edd:	203987        	bltu	a9, a8, 40081f01 <sliceable+0x2d>
40081ee0:	0d0282        	l8ui	a8, a2, 13
40081ee3:	448080        	extui	a8, a8, 0, 5
40081ee6:	c8dc      	bnez.n	a8, 40081f06 <sliceable+0x32>
40081ee8:	0e0282        	l8ui	a8, a2, 14
40081eeb:	238800        	sext	a8, a8, 7
40081eee:	f9db91        	l32r	a9, 4008065c <_init_end+0x25c> (3ffc1f24 <slice_max_prio>)
40081ef1:	0998      	l32i.n	a9, a9, 0
40081ef3:	152897        	blt	a8, a9, 40081f0c <sliceable+0x38>
40081ef6:	f9c881        	l32r	a8, 40080618 <_init_end+0x218> (3ffc1af8 <z_idle_threads>)
40081ef9:	141287        	beq	a2, a8, 40081f11 <sliceable+0x3d>
40081efc:	120c      	movi.n	a2, 1
40081efe:	000446        	j	40081f13 <sliceable+0x3f>
40081f01:	020c      	movi.n	a2, 0
40081f03:	000306        	j	40081f13 <sliceable+0x3f>
40081f06:	020c      	movi.n	a2, 0
40081f08:	0001c6        	j	40081f13 <sliceable+0x3f>
40081f0b:	00          	.byte 00
40081f0c:	020c      	movi.n	a2, 0
40081f0e:	000046        	j	40081f13 <sliceable+0x3f>
40081f11:	020c      	movi.n	a2, 0
40081f13:	f01d      	retw.n
40081f15:	000000        	ill

40081f18 <add_thread_timeout>:
40081f18:	004136        	entry	a1, 32
40081f1b:	020466        	bnei	a4, -1, 40081f21 <add_thread_timeout+0x9>
40081f1e:	0e0526        	beqi	a5, -1, 40081f30 <add_thread_timeout+0x18>
40081f21:	20c440        	or	a12, a4, a4
40081f24:	20d550        	or	a13, a5, a5
40081f27:	f9cab1        	l32r	a11, 40080650 <_init_end+0x250> (40082340 <z_thread_timeout>)
40081f2a:	18c2a2        	addi	a10, a2, 24
40081f2d:	009d65        	call8	40082904 <z_add_timeout>
40081f30:	000090        	retw
	...

40081f34 <arch_switch>:
40081f34:	004136        	entry	a1, 32
40081f37:	20b330        	or	a11, a3, a3
40081f3a:	20a220        	or	a10, a2, a2
40081f3d:	ff07a5        	call8	40080fb8 <xtensa_switch>
40081f40:	000090        	retw
	...

40081f44 <z_reset_time_slice>:
40081f44:	004136        	entry	a1, 32
40081f47:	f9c621        	l32r	a2, 40080660 <_init_end+0x260> (3ffc1f28 <slice_ticks>)
40081f4a:	002222        	l32i	a2, a2, 0
40081f4d:	013216        	beqz	a2, 40081f64 <z_reset_time_slice+0x20>
40081f50:	015125        	call8	40083464 <sys_clock_elapsed>
40081f53:	a2aa      	add.n	a10, a2, a10
40081f55:	f92c21        	l32r	a2, 40080408 <_init_end+0x8> (3ffc1efc <_kernel>)
40081f58:	42a9      	s32i.n	a10, a2, 16
40081f5a:	0b0c      	movi.n	a11, 0
40081f5c:	f9c121        	l32r	a2, 40080660 <_init_end+0x260> (3ffc1f28 <slice_ticks>)
40081f5f:	02a8      	l32i.n	a10, a2, 0
40081f61:	00aee5        	call8	40082a50 <z_set_timeout_expiry>
40081f64:	f01d      	retw.n
	...

40081f68 <k_sched_time_slice_set>:
40081f68:	004136        	entry	a1, 32
40081f6b:	080c      	movi.n	a8, 0
40081f6d:	006340        	rsil	a4, 3
40081f70:	000e06        	j	40081fac <k_sched_time_slice_set+0x44>
40081f73:	00          	.byte 00
40081f74:	f92581        	l32r	a8, 40080408 <_init_end+0x8> (3ffc1efc <_kernel>)
40081f77:	090c      	movi.n	a9, 0
40081f79:	4899      	s32i.n	a9, a8, 16
40081f7b:	a08220        	addx4	a8, a2, a2
40081f7e:	888a      	add.n	a8, a8, a8
40081f80:	f9b891        	l32r	a9, 40080660 <_init_end+0x260> (3ffc1f28 <slice_ticks>)
40081f83:	0989      	s32i.n	a8, a9, 0
40081f85:	0b12a6        	blti	a2, 1, 40081f94 <k_sched_time_slice_set+0x2c>
40081f88:	02a092        	movi	a9, 2
40081f8b:	538890        	max	a8, a8, a9
40081f8e:	f9b491        	l32r	a9, 40080660 <_init_end+0x260> (3ffc1f28 <slice_ticks>)
40081f91:	006982        	s32i	a8, a9, 0
40081f94:	f9b281        	l32r	a8, 4008065c <_init_end+0x25c> (3ffc1f24 <slice_max_prio>)
40081f97:	006832        	s32i	a3, a8, 0
40081f9a:	f91b81        	l32r	a8, 40080408 <_init_end+0x8> (3ffc1efc <_kernel>)
40081f9d:	0228a2        	l32i	a10, a8, 8
40081fa0:	fffa25        	call8	40081f44 <z_reset_time_slice>
40081fa3:	13e640        	wsr.ps	a4
40081fa6:	002010        	rsync
40081fa9:	01a082        	movi	a8, 1
40081fac:	fc4816        	beqz	a8, 40081f74 <k_sched_time_slice_set+0xc>
40081faf:	f01d      	retw.n
40081fb1:	000000        	ill

40081fb4 <k_sched_lock>:
40081fb4:	004136        	entry	a1, 32
40081fb7:	080c      	movi.n	a8, 0
40081fb9:	0063a0        	rsil	a10, 3
40081fbc:	000546        	j	40081fd5 <k_sched_lock+0x21>
40081fbf:	00          	.byte 00
40081fc0:	f91281        	l32r	a8, 40080408 <_init_end+0x8> (3ffc1efc <_kernel>)
40081fc3:	2898      	l32i.n	a9, a8, 8
40081fc5:	0f0982        	l8ui	a8, a9, 15
40081fc8:	880b      	addi.n	a8, a8, -1
40081fca:	0f4982        	s8i	a8, a9, 15
40081fcd:	13e6a0        	wsr.ps	a10
40081fd0:	002010        	rsync
40081fd3:	180c      	movi.n	a8, 1
40081fd5:	fe7816        	beqz	a8, 40081fc0 <k_sched_lock+0xc>
40081fd8:	f01d      	retw.n
	...

40081fdc <z_swap_next_thread>:
40081fdc:	004136        	entry	a1, 32
40081fdf:	f90a81        	l32r	a8, 40080408 <_init_end+0x8> (3ffc1efc <_kernel>)
40081fe2:	6828      	l32i.n	a2, a8, 24
40081fe4:	f01d      	retw.n
	...

40081fe8 <z_swap_irqlock>:
40081fe8:	004136        	entry	a1, 32
40081feb:	f90731        	l32r	a3, 40080408 <_init_end+0x8> (3ffc1efc <_kernel>)
40081fee:	022342        	l32i	a4, a3, 8
40081ff1:	f5af32        	movi	a3, -11
40081ff4:	226432        	s32i	a3, a4, 136
40081ff7:	006330        	rsil	a3, 3
40081ffa:	fffe25        	call8	40081fdc <z_swap_next_thread>
40081ffd:	203aa0        	or	a3, a10, a10
40082000:	1214a7        	beq	a4, a10, 40082016 <z_swap_irqlock+0x2e>
40082003:	f90181        	l32r	a8, 40080408 <_init_end+0x8> (3ffc1efc <_kernel>)
40082006:	28a9      	s32i.n	a10, a8, 8
40082008:	fff3a5        	call8	40081f44 <z_reset_time_slice>
4008200b:	8ca0b2        	movi	a11, 140
4008200e:	b4ba      	add.n	a11, a4, a11
40082010:	2323a2        	l32i	a10, a3, 140
40082013:	fff225        	call8	40081f34 <arch_switch>
40082016:	13e620        	wsr.ps	a2
40082019:	002010        	rsync
4008201c:	f8fb31        	l32r	a3, 40080408 <_init_end+0x8> (3ffc1efc <_kernel>)
4008201f:	2338      	l32i.n	a3, a3, 8
40082021:	222322        	l32i	a2, a3, 136
40082024:	f01d      	retw.n
	...

40082028 <z_reschedule_irqlock>:
40082028:	004136        	entry	a1, 32
4008202b:	348020        	extui	a8, a2, 0, 4
4008202e:	e8cc      	bnez.n	a8, 40082040 <z_reschedule_irqlock+0x18>
40082030:	03f580        	rsr.misc1	a8
40082033:	0888      	l32i.n	a8, a8, 0
40082035:	78cc      	bnez.n	a8, 40082040 <z_reschedule_irqlock+0x18>
40082037:	02ad      	mov.n	a10, a2
40082039:	fffae5        	call8	40081fe8 <z_swap_irqlock>
4008203c:	000186        	j	40082046 <z_reschedule_irqlock+0x1e>
4008203f:	00          	.byte 00
40082040:	13e620        	wsr.ps	a2
40082043:	002010        	rsync
40082046:	f01d      	retw.n

40082048 <z_swap>:
40082048:	004136        	entry	a1, 32
4008204b:	f8ef41        	l32r	a4, 40080408 <_init_end+0x8> (3ffc1efc <_kernel>)
4008204e:	2448      	l32i.n	a4, a4, 8
40082050:	587c      	movi.n	a8, -11
40082052:	226482        	s32i	a8, a4, 136
40082055:	f98381        	l32r	a8, 40080664 <_init_end+0x264> (3ffc1f2c <sched_spinlock>)
40082058:	021827        	beq	a8, a2, 4008205e <z_swap+0x16>
4008205b:	006320        	rsil	a2, 3
4008205e:	fff7e5        	call8	40081fdc <z_swap_next_thread>
40082061:	0a2d      	mov.n	a2, a10
40082063:	1314a7        	beq	a4, a10, 4008207a <z_swap+0x32>
40082066:	f8e881        	l32r	a8, 40080408 <_init_end+0x8> (3ffc1efc <_kernel>)
40082069:	0268a2        	s32i	a10, a8, 8
4008206c:	ffed65        	call8	40081f44 <z_reset_time_slice>
4008206f:	8ca0b2        	movi	a11, 140
40082072:	b4ba      	add.n	a11, a4, a11
40082074:	2322a2        	l32i	a10, a2, 140
40082077:	ffebe5        	call8	40081f34 <arch_switch>
4008207a:	13e630        	wsr.ps	a3
4008207d:	002010        	rsync
40082080:	f8e221        	l32r	a2, 40080408 <_init_end+0x8> (3ffc1efc <_kernel>)
40082083:	2228      	l32i.n	a2, a2, 8
40082085:	222222        	l32i	a2, a2, 136
40082088:	f01d      	retw.n
	...

4008208c <z_reschedule>:
4008208c:	004136        	entry	a1, 32
4008208f:	209330        	or	a9, a3, a3
40082092:	348030        	extui	a8, a3, 0, 4
40082095:	01b856        	bnez	a8, 400820b4 <z_reschedule+0x28>
40082098:	03f580        	rsr.misc1	a8
4008209b:	002882        	l32i	a8, a8, 0
4008209e:	28dc      	bnez.n	a8, 400820b4 <z_reschedule+0x28>
400820a0:	f8da81        	l32r	a8, 40080408 <_init_end+0x8> (3ffc1efc <_kernel>)
400820a3:	68a8      	l32i.n	a10, a8, 24
400820a5:	2888      	l32i.n	a8, a8, 8
400820a7:	091a87        	beq	a10, a8, 400820b4 <z_reschedule+0x28>
400820aa:	03bd      	mov.n	a11, a3
400820ac:	02ad      	mov.n	a10, a2
400820ae:	fff9a5        	call8	40082048 <z_swap>
400820b1:	000146        	j	400820ba <z_reschedule+0x2e>
400820b4:	13e690        	wsr.ps	a9
400820b7:	002010        	rsync
400820ba:	f01d      	retw.n

400820bc <z_get_next_switch_handle>:
400820bc:	004136        	entry	a1, 32
400820bf:	f8d281        	l32r	a8, 40080408 <_init_end+0x8> (3ffc1efc <_kernel>)
400820c2:	6898      	l32i.n	a9, a8, 24
400820c4:	28a8      	l32i.n	a10, a8, 8
400820c6:	236a22        	s32i	a2, a10, 140
400820c9:	2899      	s32i.n	a9, a8, 8
400820cb:	232922        	l32i	a2, a9, 140
400820ce:	f01d      	retw.n

400820d0 <unpend_thread_no_timeout>:
400820d0:	004136        	entry	a1, 32
400820d3:	20a220        	or	a10, a2, a2
400820d6:	0109a5        	call8	40083170 <pended_on_thread>
400820d9:	20b220        	or	a11, a2, a2
400820dc:	010b65        	call8	40083194 <z_priq_dumb_remove>
400820df:	0d0282        	l8ui	a8, a2, 13
400820e2:	fdaf92        	movi	a9, -3
400820e5:	108890        	and	a8, a8, a9
400820e8:	0d4282        	s8i	a8, a2, 13
400820eb:	080c      	movi.n	a8, 0
400820ed:	2289      	s32i.n	a8, a2, 8
400820ef:	f01d      	retw.n
400820f1:	000000        	ill

400820f4 <z_unpend_thread>:
400820f4:	004136        	entry	a1, 32
400820f7:	080c      	movi.n	a8, 0
400820f9:	006330        	rsil	a3, 3
400820fc:	0004c6        	j	40082113 <z_unpend_thread+0x1f>
400820ff:	00          	.byte 00
40082100:	022282        	l32i	a8, a2, 8
40082103:	004816        	beqz	a8, 4008210b <z_unpend_thread+0x17>
40082106:	02ad      	mov.n	a10, a2
40082108:	fffc65        	call8	400820d0 <unpend_thread_no_timeout>
4008210b:	13e630        	wsr.ps	a3
4008210e:	002010        	rsync
40082111:	180c      	movi.n	a8, 1
40082113:	fe9816        	beqz	a8, 40082100 <z_unpend_thread+0xc>
40082116:	18c2a2        	addi	a10, a2, 24
40082119:	0090a5        	call8	40082a24 <z_abort_timeout>
4008211c:	f01d      	retw.n
	...

40082120 <update_cache>:
40082120:	004136        	entry	a1, 32
40082123:	f951a1        	l32r	a10, 40080668 <_init_end+0x268> (3ffc1f18 <_kernel+0x1c>)
40082126:	010825        	call8	400831a8 <z_priq_dumb_best>
40082129:	203aa0        	or	a3, a10, a10
4008212c:	005a56        	bnez	a10, 40082135 <update_cache+0x15>
4008212f:	f8b631        	l32r	a3, 40080408 <_init_end+0x8> (3ffc1efc <_kernel>)
40082132:	032332        	l32i	a3, a3, 12
40082135:	c2dc      	bnez.n	a2, 40082155 <update_cache+0x35>
40082137:	f8b421        	l32r	a2, 40080408 <_init_end+0x8> (3ffc1efc <_kernel>)
4008213a:	2298      	l32i.n	a9, a2, 8
4008213c:	0d0982        	l8ui	a8, a9, 13
4008213f:	448080        	extui	a8, a8, 0, 5
40082142:	f8cc      	bnez.n	a8, 40082155 <update_cache+0x35>
40082144:	071922        	l16ui	a2, a9, 14
40082147:	7fa082        	movi	a8, 127
4008214a:	07b827        	bgeu	a8, a2, 40082155 <update_cache+0x35>
4008214d:	f8ae21        	l32r	a2, 40080408 <_init_end+0x8> (3ffc1efc <_kernel>)
40082150:	6299      	s32i.n	a9, a2, 24
40082152:	000506        	j	4008216a <update_cache+0x4a>
40082155:	f8ac21        	l32r	a2, 40080408 <_init_end+0x8> (3ffc1efc <_kernel>)
40082158:	2228      	l32i.n	a2, a2, 8
4008215a:	071237        	beq	a2, a3, 40082165 <update_cache+0x45>
4008215d:	03ad      	mov.n	a10, a3
4008215f:	201110        	or	a1, a1, a1
40082162:	ffde25        	call8	40081f44 <z_reset_time_slice>
40082165:	f8a821        	l32r	a2, 40080408 <_init_end+0x8> (3ffc1efc <_kernel>)
40082168:	6239      	s32i.n	a3, a2, 24
4008216a:	f01d      	retw.n

4008216c <move_thread_to_end_of_prio_q>:
4008216c:	004136        	entry	a1, 32
4008216f:	0d0232        	l8ui	a3, a2, 13
40082172:	238300        	sext	a8, a3, 7
40082175:	00e8d6        	bgez	a8, 40082187 <move_thread_to_end_of_prio_q+0x1b>
40082178:	643030        	extui	a3, a3, 0, 7
4008217b:	0d4232        	s8i	a3, a2, 13
4008217e:	20b220        	or	a11, a2, a2
40082181:	f939a1        	l32r	a10, 40080668 <_init_end+0x268> (3ffc1f18 <_kernel+0x1c>)
40082184:	0100e5        	call8	40083194 <z_priq_dumb_remove>
40082187:	0d0232        	l8ui	a3, a2, 13
4008218a:	80af82        	movi	a8, -128
4008218d:	203380        	or	a3, a3, a8
40082190:	0d4232        	s8i	a3, a2, 13
40082193:	f89d31        	l32r	a3, 40080408 <_init_end+0x8> (3ffc1efc <_kernel>)
40082196:	072332        	l32i	a3, a3, 28
40082199:	f93381        	l32r	a8, 40080668 <_init_end+0x268> (3ffc1f18 <_kernel+0x1c>)
4008219c:	349387        	bne	a3, a8, 400821d4 <move_thread_to_end_of_prio_q+0x68>
4008219f:	00a032        	movi	a3, 0
400821a2:	000b86        	j	400821d4 <move_thread_to_end_of_prio_q+0x68>
400821a5:	00          	.byte 00
400821a6:	20b330        	or	a11, a3, a3
400821a9:	20a220        	or	a10, a2, a2
400821ac:	00fca5        	call8	40083178 <z_sched_prio_cmp>
400821af:	0d1aa6        	blti	a10, 1, 400821c0 <move_thread_to_end_of_prio_q+0x54>
400821b2:	012382        	l32i	a8, a3, 4
400821b5:	1289      	s32i.n	a8, a2, 4
400821b7:	0239      	s32i.n	a3, a2, 0
400821b9:	0829      	s32i.n	a2, a8, 0
400821bb:	1329      	s32i.n	a2, a3, 4
400821bd:	000a46        	j	400821ea <move_thread_to_end_of_prio_q+0x7e>
400821c0:	039c      	beqz.n	a3, 400821d4 <move_thread_to_end_of_prio_q+0x68>
400821c2:	f89191        	l32r	a9, 40080408 <_init_end+0x8> (3ffc1efc <_kernel>)
400821c5:	8998      	l32i.n	a9, a9, 32
400821c7:	071397        	beq	a3, a9, 400821d2 <move_thread_to_end_of_prio_q+0x66>
400821ca:	0338      	l32i.n	a3, a3, 0
400821cc:	000106        	j	400821d4 <move_thread_to_end_of_prio_q+0x68>
400821cf:	00          	.byte 00
400821d0:	00          	.byte 00
400821d1:	00          	.byte 00
400821d2:	030c      	movi.n	a3, 0
400821d4:	fce356        	bnez	a3, 400821a6 <move_thread_to_end_of_prio_q+0x3a>
400821d7:	f88c31        	l32r	a3, 40080408 <_init_end+0x8> (3ffc1efc <_kernel>)
400821da:	082382        	l32i	a8, a3, 32
400821dd:	f92291        	l32r	a9, 40080668 <_init_end+0x268> (3ffc1f18 <_kernel+0x1c>)
400821e0:	006292        	s32i	a9, a2, 0
400821e3:	016282        	s32i	a8, a2, 4
400821e6:	0829      	s32i.n	a2, a8, 0
400821e8:	8329      	s32i.n	a2, a3, 32
400821ea:	f88731        	l32r	a3, 40080408 <_init_end+0x8> (3ffc1efc <_kernel>)
400821ed:	2338      	l32i.n	a3, a3, 8
400821ef:	c02320        	sub	a2, a3, a2
400821f2:	1a0c      	movi.n	a10, 1
400821f4:	030c      	movi.n	a3, 0
400821f6:	93a320        	movnez	a10, a3, a2
400821f9:	fff265        	call8	40082120 <update_cache>
400821fc:	f01d      	retw.n
	...

40082200 <slice_expired_locked>:
40082200:	004136        	entry	a1, 32
40082203:	f88131        	l32r	a3, 40080408 <_init_end+0x8> (3ffc1efc <_kernel>)
40082206:	022332        	l32i	a3, a3, 8
40082209:	0d0382        	l8ui	a8, a3, 13
4008220c:	448080        	extui	a8, a8, 0, 5
4008220f:	005856        	bnez	a8, 40082218 <slice_expired_locked+0x18>
40082212:	20a330        	or	a10, a3, a3
40082215:	fff565        	call8	4008216c <move_thread_to_end_of_prio_q>
40082218:	03ad      	mov.n	a10, a3
4008221a:	ffd2a5        	call8	40081f44 <z_reset_time_slice>
4008221d:	f01d      	retw.n
	...

40082220 <z_time_slice>:
40082220:	004136        	entry	a1, 32
40082223:	006340        	rsil	a4, 3
40082226:	203440        	or	a3, a4, a4
40082229:	f87781        	l32r	a8, 40080408 <_init_end+0x8> (3ffc1efc <_kernel>)
4008222c:	0228a2        	l32i	a10, a8, 8
4008222f:	f90c81        	l32r	a8, 40080660 <_init_end+0x260> (3ffc1f28 <slice_ticks>)
40082232:	0888      	l32i.n	a8, a8, 0
40082234:	08ac      	beqz.n	a8, 40082258 <z_time_slice+0x38>
40082236:	ffc9e5        	call8	40081ed4 <sliceable>
40082239:	ba9c      	beqz.n	a10, 40082258 <z_time_slice+0x38>
4008223b:	f87381        	l32r	a8, 40080408 <_init_end+0x8> (3ffc1efc <_kernel>)
4008223e:	4888      	l32i.n	a8, a8, 16
40082240:	092287        	blt	a2, a8, 4008224d <z_time_slice+0x2d>
40082243:	04ad      	mov.n	a10, a4
40082245:	fffba5        	call8	40082200 <slice_expired_locked>
40082248:	0a3d      	mov.n	a3, a10
4008224a:	000446        	j	4008225f <z_time_slice+0x3f>
4008224d:	c08820        	sub	a8, a8, a2
40082250:	f86e21        	l32r	a2, 40080408 <_init_end+0x8> (3ffc1efc <_kernel>)
40082253:	4289      	s32i.n	a8, a2, 16
40082255:	000186        	j	4008225f <z_time_slice+0x3f>
40082258:	f86c41        	l32r	a4, 40080408 <_init_end+0x8> (3ffc1efc <_kernel>)
4008225b:	080c      	movi.n	a8, 0
4008225d:	4489      	s32i.n	a8, a4, 16
4008225f:	13e630        	wsr.ps	a3
40082262:	002010        	rsync
40082265:	f01d      	retw.n
	...

40082268 <ready_thread>:
40082268:	004136        	entry	a1, 32
4008226b:	0d0232        	l8ui	a3, a2, 13
4008226e:	238300        	sext	a8, a3, 7
40082271:	06b896        	bltz	a8, 400822e0 <ready_thread+0x78>
40082274:	444030        	extui	a4, a3, 0, 5
40082277:	065456        	bnez	a4, 400822e0 <ready_thread+0x78>
4008227a:	6248      	l32i.n	a4, a2, 24
4008227c:	060456        	bnez	a4, 400822e0 <ready_thread+0x78>
4008227f:	80af82        	movi	a8, -128
40082282:	203380        	or	a3, a3, a8
40082285:	0d4232        	s8i	a3, a2, 13
40082288:	f86031        	l32r	a3, 40080408 <_init_end+0x8> (3ffc1efc <_kernel>)
4008228b:	7338      	l32i.n	a3, a3, 28
4008228d:	f8f681        	l32r	a8, 40080668 <_init_end+0x268> (3ffc1f18 <_kernel+0x1c>)
40082290:	349387        	bne	a3, a8, 400822c8 <ready_thread+0x60>
40082293:	000a86        	j	400822c1 <ready_thread+0x59>
40082296:	20b330        	or	a11, a3, a3
40082299:	20a220        	or	a10, a2, a2
4008229c:	00eda5        	call8	40083178 <z_sched_prio_cmp>
4008229f:	0d1aa6        	blti	a10, 1, 400822b0 <ready_thread+0x48>
400822a2:	012342        	l32i	a4, a3, 4
400822a5:	1249      	s32i.n	a4, a2, 4
400822a7:	0239      	s32i.n	a3, a2, 0
400822a9:	0429      	s32i.n	a2, a4, 0
400822ab:	1329      	s32i.n	a2, a3, 4
400822ad:	000a86        	j	400822db <ready_thread+0x73>
400822b0:	439c      	beqz.n	a3, 400822c8 <ready_thread+0x60>
400822b2:	f85591        	l32r	a9, 40080408 <_init_end+0x8> (3ffc1efc <_kernel>)
400822b5:	8998      	l32i.n	a9, a9, 32
400822b7:	0b1397        	beq	a3, a9, 400822c6 <ready_thread+0x5e>
400822ba:	0338      	l32i.n	a3, a3, 0
400822bc:	000206        	j	400822c8 <ready_thread+0x60>
400822bf:	00          	.byte 00
400822c0:	00          	.byte 00
400822c1:	043d      	mov.n	a3, a4
400822c3:	000046        	j	400822c8 <ready_thread+0x60>
400822c6:	043d      	mov.n	a3, a4
400822c8:	fca356        	bnez	a3, 40082296 <ready_thread+0x2e>
400822cb:	f84f31        	l32r	a3, 40080408 <_init_end+0x8> (3ffc1efc <_kernel>)
400822ce:	8348      	l32i.n	a4, a3, 32
400822d0:	f8e681        	l32r	a8, 40080668 <_init_end+0x268> (3ffc1f18 <_kernel+0x1c>)
400822d3:	0289      	s32i.n	a8, a2, 0
400822d5:	1249      	s32i.n	a4, a2, 4
400822d7:	0429      	s32i.n	a2, a4, 0
400822d9:	8329      	s32i.n	a2, a3, 32
400822db:	0a0c      	movi.n	a10, 0
400822dd:	ffe425        	call8	40082120 <update_cache>
400822e0:	f01d      	retw.n
	...

400822e4 <z_ready_thread>:
400822e4:	004136        	entry	a1, 32
400822e7:	080c      	movi.n	a8, 0
400822e9:	006330        	rsil	a3, 3
400822ec:	000606        	j	40082308 <z_ready_thread+0x24>
400822ef:	00          	.byte 00
400822f0:	00          	.byte 00
400822f1:	00          	.byte 00
400822f2:	20a220        	or	a10, a2, a2
400822f5:	00e725        	call8	40083168 <thread_active_elsewhere>
400822f8:	004a56        	bnez	a10, 40082300 <z_ready_thread+0x1c>
400822fb:	02ad      	mov.n	a10, a2
400822fd:	fff6a5        	call8	40082268 <ready_thread>
40082300:	13e630        	wsr.ps	a3
40082303:	002010        	rsync
40082306:	180c      	movi.n	a8, 1
40082308:	fe6816        	beqz	a8, 400822f2 <z_ready_thread+0xe>
4008230b:	f01d      	retw.n
4008230d:	000000        	ill

40082310 <z_sched_start>:
40082310:	004136        	entry	a1, 32
40082313:	006330        	rsil	a3, 3
40082316:	0d0282        	l8ui	a8, a2, 13
40082319:	08e827        	bbsi	a8, 2, 40082325 <z_sched_start+0x15>
4008231c:	13e630        	wsr.ps	a3
4008231f:	002010        	rsync
40082322:	000586        	j	4008233c <z_sched_start+0x2c>
40082325:	fbaf92        	movi	a9, -5
40082328:	108890        	and	a8, a8, a9
4008232b:	0d4282        	s8i	a8, a2, 13
4008232e:	20a220        	or	a10, a2, a2
40082331:	fff365        	call8	40082268 <ready_thread>
40082334:	03bd      	mov.n	a11, a3
40082336:	f8cba1        	l32r	a10, 40080664 <_init_end+0x264> (3ffc1f2c <sched_spinlock>)
40082339:	ffd525        	call8	4008208c <z_reschedule>
4008233c:	f01d      	retw.n
	...

40082340 <z_thread_timeout>:
40082340:	004136        	entry	a1, 32
40082343:	e8c242        	addi	a4, a2, -24
40082346:	080c      	movi.n	a8, 0
40082348:	006330        	rsil	a3, 3
4008234b:	000e46        	j	40082388 <z_thread_timeout+0x48>
4008234e:	e8c282        	addi	a8, a2, -24
40082351:	0d0892        	l8ui	a9, a8, 13
40082354:	882c      	movi.n	a8, 40
40082356:	268987        	bany	a9, a8, 40082380 <z_thread_timeout+0x40>
40082359:	e8c282        	addi	a8, a2, -24
4008235c:	2888      	l32i.n	a8, a8, 8
4008235e:	388c      	beqz.n	a8, 40082365 <z_thread_timeout+0x25>
40082360:	04ad      	mov.n	a10, a4
40082362:	ffd6e5        	call8	400820d0 <unpend_thread_no_timeout>
40082365:	e8c292        	addi	a9, a2, -24
40082368:	0d0982        	l8ui	a8, a9, 13
4008236b:	ba7c      	movi.n	a10, -5
4008236d:	10a8a0        	and	a10, a8, a10
40082370:	0d49a2        	s8i	a10, a9, 13
40082373:	ba6c      	movi.n	a10, -21
40082375:	1088a0        	and	a8, a8, a10
40082378:	0d4982        	s8i	a8, a9, 13
4008237b:	04ad      	mov.n	a10, a4
4008237d:	ffeea5        	call8	40082268 <ready_thread>
40082380:	13e630        	wsr.ps	a3
40082383:	002010        	rsync
40082386:	180c      	movi.n	a8, 1
40082388:	fc2816        	beqz	a8, 4008234e <z_thread_timeout+0xe>
4008238b:	f01d      	retw.n
4008238d:	000000        	ill

40082390 <unpend_all>:
40082390:	004136        	entry	a1, 32
40082393:	000546        	j	400823ac <unpend_all+0x1c>
40082396:	20a330        	or	a10, a3, a3
40082399:	ffd365        	call8	400820d0 <unpend_thread_no_timeout>
4008239c:	18c3a2        	addi	a10, a3, 24
4008239f:	006865        	call8	40082a24 <z_abort_timeout>
400823a2:	080c      	movi.n	a8, 0
400823a4:	226382        	s32i	a8, a3, 136
400823a7:	03ad      	mov.n	a10, a3
400823a9:	ffebe5        	call8	40082268 <ready_thread>
400823ac:	0238      	l32i.n	a3, a2, 0
400823ae:	021237        	beq	a2, a3, 400823b4 <unpend_all+0x24>
400823b1:	fe1356        	bnez	a3, 40082396 <unpend_all+0x6>
400823b4:	f01d      	retw.n
	...

400823b8 <unready_thread>:
400823b8:	004136        	entry	a1, 32
400823bb:	0d0282        	l8ui	a8, a2, 13
400823be:	239800        	sext	a9, a8, 7
400823c1:	00e9d6        	bgez	a9, 400823d3 <unready_thread+0x1b>
400823c4:	648080        	extui	a8, a8, 0, 7
400823c7:	0d4282        	s8i	a8, a2, 13
400823ca:	20b220        	or	a11, a2, a2
400823cd:	f8a6a1        	l32r	a10, 40080668 <_init_end+0x268> (3ffc1f18 <_kernel+0x1c>)
400823d0:	00dc25        	call8	40083194 <z_priq_dumb_remove>
400823d3:	f80d81        	l32r	a8, 40080408 <_init_end+0x8> (3ffc1efc <_kernel>)
400823d6:	022882        	l32i	a8, a8, 8
400823d9:	c02820        	sub	a2, a8, a2
400823dc:	1a0c      	movi.n	a10, 1
400823de:	080c      	movi.n	a8, 0
400823e0:	93a820        	movnez	a10, a8, a2
400823e3:	ffd3e5        	call8	40082120 <update_cache>
400823e6:	f01d      	retw.n

400823e8 <add_to_waitq_locked>:
400823e8:	004136        	entry	a1, 32
400823eb:	02ad      	mov.n	a10, a2
400823ed:	fffca5        	call8	400823b8 <unready_thread>
400823f0:	0d0242        	l8ui	a4, a2, 13
400823f3:	280c      	movi.n	a8, 2
400823f5:	204480        	or	a4, a4, a8
400823f8:	0d4242        	s8i	a4, a2, 13
400823fb:	042316        	beqz	a3, 40082441 <add_to_waitq_locked+0x59>
400823fe:	2239      	s32i.n	a3, a2, 8
40082400:	0348      	l32i.n	a4, a3, 0
40082402:	2e9347        	bne	a3, a4, 40082434 <add_to_waitq_locked+0x4c>
40082405:	040c      	movi.n	a4, 0
40082407:	000a46        	j	40082434 <add_to_waitq_locked+0x4c>
4008240a:	20b440        	or	a11, a4, a4
4008240d:	20a220        	or	a10, a2, a2
40082410:	00d665        	call8	40083178 <z_sched_prio_cmp>
40082413:	0d1aa6        	blti	a10, 1, 40082424 <add_to_waitq_locked+0x3c>
40082416:	012432        	l32i	a3, a4, 4
40082419:	1239      	s32i.n	a3, a2, 4
4008241b:	0249      	s32i.n	a4, a2, 0
4008241d:	0329      	s32i.n	a2, a3, 0
4008241f:	1429      	s32i.n	a2, a4, 4
40082421:	000706        	j	40082441 <add_to_waitq_locked+0x59>
40082424:	c48c      	beqz.n	a4, 40082434 <add_to_waitq_locked+0x4c>
40082426:	1398      	l32i.n	a9, a3, 4
40082428:	061497        	beq	a4, a9, 40082432 <add_to_waitq_locked+0x4a>
4008242b:	0448      	l32i.n	a4, a4, 0
4008242d:	0000c6        	j	40082434 <add_to_waitq_locked+0x4c>
40082430:	00          	.byte 00
40082431:	00          	.byte 00
40082432:	040c      	movi.n	a4, 0
40082434:	fd2456        	bnez	a4, 4008240a <add_to_waitq_locked+0x22>
40082437:	1348      	l32i.n	a4, a3, 4
40082439:	0239      	s32i.n	a3, a2, 0
4008243b:	1249      	s32i.n	a4, a2, 4
4008243d:	0429      	s32i.n	a2, a4, 0
4008243f:	1329      	s32i.n	a2, a3, 4
40082441:	f01d      	retw.n
	...

40082444 <pend_locked>:
40082444:	004136        	entry	a1, 32
40082447:	20b330        	or	a11, a3, a3
4008244a:	20a220        	or	a10, a2, a2
4008244d:	fff9a5        	call8	400823e8 <add_to_waitq_locked>
40082450:	04cd      	mov.n	a12, a4
40082452:	05dd      	mov.n	a13, a5
40082454:	02ad      	mov.n	a10, a2
40082456:	ffac25        	call8	40081f18 <add_thread_timeout>
40082459:	f01d      	retw.n
	...

4008245c <z_pend_curr>:
4008245c:	004136        	entry	a1, 32
4008245f:	07dd      	mov.n	a13, a7
40082461:	06cd      	mov.n	a12, a6
40082463:	04bd      	mov.n	a11, a4
40082465:	006380        	rsil	a8, 3
40082468:	f7e881        	l32r	a8, 40080408 <_init_end+0x8> (3ffc1efc <_kernel>)
4008246b:	28a8      	l32i.n	a10, a8, 8
4008246d:	fffd65        	call8	40082444 <pend_locked>
40082470:	03bd      	mov.n	a11, a3
40082472:	f87ca1        	l32r	a10, 40080664 <_init_end+0x264> (3ffc1f2c <sched_spinlock>)
40082475:	ffbd25        	call8	40082048 <z_swap>
40082478:	0a2d      	mov.n	a2, a10
4008247a:	f01d      	retw.n

4008247c <z_impl_k_thread_suspend>:
4008247c:	004136        	entry	a1, 32
4008247f:	18c2a2        	addi	a10, a2, 24
40082482:	005a25        	call8	40082a24 <z_abort_timeout>
40082485:	030c      	movi.n	a3, 0
40082487:	006340        	rsil	a4, 3
4008248a:	000fc6        	j	400824cd <z_impl_k_thread_suspend+0x51>
4008248d:	00          	.byte 00
4008248e:	00          	.byte 00
4008248f:	00          	.byte 00
40082490:	0d0232        	l8ui	a3, a2, 13
40082493:	238300        	sext	a8, a3, 7
40082496:	00e8d6        	bgez	a8, 400824a8 <z_impl_k_thread_suspend+0x2c>
40082499:	643030        	extui	a3, a3, 0, 7
4008249c:	0d4232        	s8i	a3, a2, 13
4008249f:	20b220        	or	a11, a2, a2
400824a2:	f871a1        	l32r	a10, 40080668 <_init_end+0x268> (3ffc1f18 <_kernel+0x1c>)
400824a5:	00cee5        	call8	40083194 <z_priq_dumb_remove>
400824a8:	0d0232        	l8ui	a3, a2, 13
400824ab:	081c      	movi.n	a8, 16
400824ad:	203380        	or	a3, a3, a8
400824b0:	0d4232        	s8i	a3, a2, 13
400824b3:	f7d531        	l32r	a3, 40080408 <_init_end+0x8> (3ffc1efc <_kernel>)
400824b6:	2388      	l32i.n	a8, a3, 8
400824b8:	c08820        	sub	a8, a8, a2
400824bb:	01a032        	movi	a3, 1
400824be:	00a0a2        	movi	a10, 0
400824c1:	83a380        	moveqz	a10, a3, a8
400824c4:	ffc5a5        	call8	40082120 <update_cache>
400824c7:	13e640        	wsr.ps	a4
400824ca:	002010        	rsync
400824cd:	fbf316        	beqz	a3, 40082490 <z_impl_k_thread_suspend+0x14>
400824d0:	f7ce31        	l32r	a3, 40080408 <_init_end+0x8> (3ffc1efc <_kernel>)
400824d3:	2338      	l32i.n	a3, a3, 8
400824d5:	059327        	bne	a3, a2, 400824de <z_impl_k_thread_suspend+0x62>
400824d8:	0063a0        	rsil	a10, 3
400824db:	ffb4e5        	call8	40082028 <z_reschedule_irqlock>
400824de:	f01d      	retw.n

400824e0 <k_sched_unlock>:
400824e0:	004136        	entry	a1, 32
400824e3:	080c      	movi.n	a8, 0
400824e5:	006320        	rsil	a2, 3
400824e8:	000706        	j	40082508 <k_sched_unlock+0x28>
400824eb:	00          	.byte 00
400824ec:	f7c781        	l32r	a8, 40080408 <_init_end+0x8> (3ffc1efc <_kernel>)
400824ef:	022892        	l32i	a9, a8, 8
400824f2:	0f0982        	l8ui	a8, a9, 15
400824f5:	01c882        	addi	a8, a8, 1
400824f8:	0f4982        	s8i	a8, a9, 15
400824fb:	0a0c      	movi.n	a10, 0
400824fd:	ffc225        	call8	40082120 <update_cache>
40082500:	13e620        	wsr.ps	a2
40082503:	002010        	rsync
40082506:	180c      	movi.n	a8, 1
40082508:	fe0816        	beqz	a8, 400824ec <k_sched_unlock+0xc>
4008250b:	0063a0        	rsil	a10, 3
4008250e:	ffb1a5        	call8	40082028 <z_reschedule_irqlock>
40082511:	f01d      	retw.n
	...

40082514 <end_thread>:
40082514:	004136        	entry	a1, 32
40082517:	0d0292        	l8ui	a9, a2, 13
4008251a:	52e937        	bbsi	a9, 3, 40082570 <end_thread+0x5c>
4008251d:	8a0c      	movi.n	a10, 8
4008251f:	2089a0        	or	a8, a9, a10
40082522:	0d4282        	s8i	a8, a2, 13
40082525:	dfaf82        	movi	a8, -33
40082528:	108980        	and	a8, a9, a8
4008252b:	2088a0        	or	a8, a8, a10
4008252e:	748080        	extui	a8, a8, 0, 8
40082531:	0d4282        	s8i	a8, a2, 13
40082534:	238800        	sext	a8, a8, 7
40082537:	0158d6        	bgez	a8, 40082550 <end_thread+0x3c>
4008253a:	f85c      	movi.n	a8, 95
4008253c:	109980        	and	a9, a9, a8
4008253f:	0a8d      	mov.n	a8, a10
40082541:	209980        	or	a9, a9, a8
40082544:	0d4292        	s8i	a9, a2, 13
40082547:	20b220        	or	a11, a2, a2
4008254a:	f847a1        	l32r	a10, 40080668 <_init_end+0x268> (3ffc1f18 <_kernel+0x1c>)
4008254d:	00c465        	call8	40083194 <z_priq_dumb_remove>
40082550:	2288      	l32i.n	a8, a2, 8
40082552:	388c      	beqz.n	a8, 40082559 <end_thread+0x45>
40082554:	02ad      	mov.n	a10, a2
40082556:	ffb7a5        	call8	400820d0 <unpend_thread_no_timeout>
40082559:	18c2a2        	addi	a10, a2, 24
4008255c:	004c65        	call8	40082a24 <z_abort_timeout>
4008255f:	38c2a2        	addi	a10, a2, 56
40082562:	ffe2e5        	call8	40082390 <unpend_all>
40082565:	01a0a2        	movi	a10, 1
40082568:	ffbb65        	call8	40082120 <update_cache>
4008256b:	02ad      	mov.n	a10, a2
4008256d:	ff7065        	call8	40081c74 <z_thread_monitor_exit>
40082570:	f01d      	retw.n
	...

40082574 <z_unpend_first_thread>:
40082574:	004136        	entry	a1, 32
40082577:	024d      	mov.n	a4, a2
40082579:	080c      	movi.n	a8, 0
4008257b:	006330        	rsil	a3, 3
4008257e:	082d      	mov.n	a2, a8
40082580:	000746        	j	400825a1 <z_unpend_first_thread+0x2d>
40082583:	00          	.byte 00
40082584:	00          	.byte 00
40082585:	00          	.byte 00
40082586:	20a440        	or	a10, a4, a4
40082589:	00c1e5        	call8	400831a8 <z_priq_dumb_best>
4008258c:	0a2d      	mov.n	a2, a10
4008258e:	7a8c      	beqz.n	a10, 40082599 <z_unpend_first_thread+0x25>
40082590:	ffb3e5        	call8	400820d0 <unpend_thread_no_timeout>
40082593:	18c2a2        	addi	a10, a2, 24
40082596:	0048e5        	call8	40082a24 <z_abort_timeout>
40082599:	13e630        	wsr.ps	a3
4008259c:	002010        	rsync
4008259f:	180c      	movi.n	a8, 1
400825a1:	fe1816        	beqz	a8, 40082586 <z_unpend_first_thread+0x12>
400825a4:	f01d      	retw.n
	...

400825a8 <z_unpend_all>:
400825a8:	004136        	entry	a1, 32
400825ab:	080c      	movi.n	a8, 0
400825ad:	000346        	j	400825be <z_unpend_all+0x16>
400825b0:	20a330        	or	a10, a3, a3
400825b3:	ffb425        	call8	400820f4 <z_unpend_thread>
400825b6:	20a330        	or	a10, a3, a3
400825b9:	ffd2a5        	call8	400822e4 <z_ready_thread>
400825bc:	180c      	movi.n	a8, 1
400825be:	0238      	l32i.n	a3, a2, 0
400825c0:	021237        	beq	a2, a3, 400825c6 <z_unpend_all+0x1e>
400825c3:	fe9356        	bnez	a3, 400825b0 <z_unpend_all+0x8>
400825c6:	082d      	mov.n	a2, a8
400825c8:	f01d      	retw.n
	...

400825cc <z_sched_init>:
400825cc:	004136        	entry	a1, 32
400825cf:	f827a1        	l32r	a10, 4008066c <_init_end+0x26c> (3ffc1f14 <_kernel+0x18>)
400825d2:	00be65        	call8	400831b8 <init_ready_q>
400825d5:	00a0b2        	movi	a11, 0
400825d8:	20abb0        	or	a10, a11, a11
400825db:	ff98e5        	call8	40081f68 <k_sched_time_slice_set>
400825de:	f01d      	retw.n

400825e0 <z_impl_k_yield>:
400825e0:	004136        	entry	a1, 32
400825e3:	006340        	rsil	a4, 3
400825e6:	f78821        	l32r	a2, 40080408 <_init_end+0x8> (3ffc1efc <_kernel>)
400825e9:	22b8      	l32i.n	a11, a2, 8
400825eb:	0d0b32        	l8ui	a3, a11, 13
400825ee:	643030        	extui	a3, a3, 0, 7
400825f1:	0d4b32        	s8i	a3, a11, 13
400825f4:	f81d51        	l32r	a5, 40080668 <_init_end+0x268> (3ffc1f18 <_kernel+0x1c>)
400825f7:	05ad      	mov.n	a10, a5
400825f9:	00b9a5        	call8	40083194 <z_priq_dumb_remove>
400825fc:	2238      	l32i.n	a3, a2, 8
400825fe:	0d0382        	l8ui	a8, a3, 13
40082601:	80af92        	movi	a9, -128
40082604:	208890        	or	a8, a8, a9
40082607:	0d4382        	s8i	a8, a3, 13
4008260a:	7228      	l32i.n	a2, a2, 28
4008260c:	349257        	bne	a2, a5, 40082644 <z_impl_k_yield+0x64>
4008260f:	020c      	movi.n	a2, 0
40082611:	000bc6        	j	40082644 <z_impl_k_yield+0x64>
40082614:	00          	.byte 00
40082615:	00          	.byte 00
40082616:	20b220        	or	a11, a2, a2
40082619:	20a330        	or	a10, a3, a3
4008261c:	00b5a5        	call8	40083178 <z_sched_prio_cmp>
4008261f:	0d1aa6        	blti	a10, 1, 40082630 <z_impl_k_yield+0x50>
40082622:	012252        	l32i	a5, a2, 4
40082625:	1359      	s32i.n	a5, a3, 4
40082627:	0329      	s32i.n	a2, a3, 0
40082629:	0539      	s32i.n	a3, a5, 0
4008262b:	1239      	s32i.n	a3, a2, 4
4008262d:	000986        	j	40082657 <z_impl_k_yield+0x77>
40082630:	029c      	beqz.n	a2, 40082644 <z_impl_k_yield+0x64>
40082632:	f77591        	l32r	a9, 40080408 <_init_end+0x8> (3ffc1efc <_kernel>)
40082635:	8998      	l32i.n	a9, a9, 32
40082637:	071297        	beq	a2, a9, 40082642 <z_impl_k_yield+0x62>
4008263a:	0228      	l32i.n	a2, a2, 0
4008263c:	000106        	j	40082644 <z_impl_k_yield+0x64>
4008263f:	00          	.byte 00
40082640:	00          	.byte 00
40082641:	00          	.byte 00
40082642:	020c      	movi.n	a2, 0
40082644:	fce256        	bnez	a2, 40082616 <z_impl_k_yield+0x36>
40082647:	f77021        	l32r	a2, 40080408 <_init_end+0x8> (3ffc1efc <_kernel>)
4008264a:	8258      	l32i.n	a5, a2, 32
4008264c:	f80781        	l32r	a8, 40080668 <_init_end+0x268> (3ffc1f18 <_kernel+0x1c>)
4008264f:	0389      	s32i.n	a8, a3, 0
40082651:	1359      	s32i.n	a5, a3, 4
40082653:	0539      	s32i.n	a3, a5, 0
40082655:	8239      	s32i.n	a3, a2, 32
40082657:	1a0c      	movi.n	a10, 1
40082659:	ffac65        	call8	40082120 <update_cache>
4008265c:	04bd      	mov.n	a11, a4
4008265e:	f801a1        	l32r	a10, 40080664 <_init_end+0x264> (3ffc1f2c <sched_spinlock>)
40082661:	ff9e65        	call8	40082048 <z_swap>
40082664:	f01d      	retw.n
	...

40082668 <z_tick_sleep>:
40082668:	004136        	entry	a1, 32
4008266b:	204230        	or	a4, a2, a3
4008266e:	74cc      	bnez.n	a4, 40082679 <z_tick_sleep+0x11>
40082670:	fff6e5        	call8	400825e0 <z_impl_k_yield>
40082673:	020c      	movi.n	a2, 0
40082675:	001cc6        	j	400826ec <z_tick_sleep+0x84>
40082678:	00          	.byte 00
40082679:	e57c      	movi.n	a5, -2
4008267b:	c04520        	sub	a4, a5, a2
4008267e:	160c      	movi.n	a6, 1
40082680:	013547        	bltu	a5, a4, 40082685 <z_tick_sleep+0x1d>
40082683:	060c      	movi.n	a6, 0
40082685:	f87c      	movi.n	a8, -1
40082687:	c08830        	sub	a8, a8, a3
4008268a:	c08860        	sub	a8, a8, a6
4008268d:	0e18e6        	bgei	a8, 1, 4008269f <z_tick_sleep+0x37>
40082690:	08cc      	bnez.n	a8, 40082694 <z_tick_sleep+0x2c>
40082692:	94cc      	bnez.n	a4, 4008269f <z_tick_sleep+0x37>
40082694:	0051e5        	call8	40082bb4 <sys_clock_tick_get_32>
40082697:	4a2a      	add.n	a4, a10, a2
40082699:	0001c6        	j	400826a4 <z_tick_sleep+0x3c>
4008269c:	00          	.byte 00
4008269d:	00          	.byte 00
4008269e:	00          	.byte 00
4008269f:	e47c      	movi.n	a4, -2
400826a1:	c04420        	sub	a4, a4, a2
400826a4:	006350        	rsil	a5, 3
400826a7:	f75861        	l32r	a6, 40080408 <_init_end+0x8> (3ffc1efc <_kernel>)
400826aa:	26a8      	l32i.n	a10, a6, 8
400826ac:	ffd0a5        	call8	400823b8 <unready_thread>
400826af:	26a8      	l32i.n	a10, a6, 8
400826b1:	02cd      	mov.n	a12, a2
400826b3:	20d330        	or	a13, a3, a3
400826b6:	f7e6b1        	l32r	a11, 40080650 <_init_end+0x250> (40082340 <z_thread_timeout>)
400826b9:	18caa2        	addi	a10, a10, 24
400826bc:	002465        	call8	40082904 <z_add_timeout>
400826bf:	2638      	l32i.n	a3, a6, 8
400826c1:	0d0322        	l8ui	a2, a3, 13
400826c4:	061c      	movi.n	a6, 16
400826c6:	202260        	or	a2, a2, a6
400826c9:	0d4322        	s8i	a2, a3, 13
400826cc:	05bd      	mov.n	a11, a5
400826ce:	f7e5a1        	l32r	a10, 40080664 <_init_end+0x264> (3ffc1f2c <sched_spinlock>)
400826d1:	ff9765        	call8	40082048 <z_swap>
400826d4:	004de5        	call8	40082bb4 <sys_clock_tick_get_32>
400826d7:	c024a0        	sub	a2, a4, a10
400826da:	130c      	movi.n	a3, 1
400826dc:	013427        	bltu	a4, a2, 400826e1 <z_tick_sleep+0x79>
400826df:	030c      	movi.n	a3, 0
400826e1:	024d      	mov.n	a4, a2
400826e3:	603030        	neg	a3, a3
400826e6:	03cc      	bnez.n	a3, 400826ea <z_tick_sleep+0x82>
400826e8:	02cc      	bnez.n	a2, 400826ec <z_tick_sleep+0x84>
400826ea:	020c      	movi.n	a2, 0
400826ec:	f01d      	retw.n
	...

400826f0 <z_impl_k_sleep>:
400826f0:	004136        	entry	a1, 32
400826f3:	0f0266        	bnei	a2, -1, 40082706 <z_impl_k_sleep+0x16>
400826f6:	0c0366        	bnei	a3, -1, 40082706 <z_impl_k_sleep+0x16>
400826f9:	f74321        	l32r	a2, 40080408 <_init_end+0x8> (3ffc1efc <_kernel>)
400826fc:	22a8      	l32i.n	a10, a2, 8
400826fe:	ffd7e5        	call8	4008247c <z_impl_k_thread_suspend>
40082701:	f27c      	movi.n	a2, -1
40082703:	001806        	j	40082767 <z_impl_k_sleep+0x77>
40082706:	20a220        	or	a10, a2, a2
40082709:	20b330        	or	a11, a3, a3
4008270c:	fff5a5        	call8	40082668 <z_tick_sleep>
4008270f:	312fa0        	srai	a2, a10, 31
40082712:	f7d731        	l32r	a3, 40080670 <_init_end+0x270> (fffffff <CONFIG_SYS_CLOCK_HW_CYCLES_PER_SEC+0x1b1e3ff>)
40082715:	108a30        	and	a8, a10, a3
40082718:	11b2c0        	slli	a11, a2, 4
4008271b:	359ca0        	extui	a9, a10, 28, 4
4008271e:	209b90        	or	a9, a11, a9
40082721:	109930        	and	a9, a9, a3
40082724:	808890        	add	a8, a8, a9
40082727:	753820        	extui	a3, a2, 24, 8
4008272a:	883a      	add.n	a8, a8, a3
4008272c:	f7d291        	l32r	a9, 40080674 <_init_end+0x274> (cccccccd <_rtc_bss_end+0x7ccccccd>)
4008272f:	a29890        	muluh	a9, a8, a9
40082732:	419290        	srli	a9, a9, 2
40082735:	a09990        	addx4	a9, a9, a9
40082738:	c08890        	sub	a8, a8, a9
4008273b:	c08a80        	sub	a8, a10, a8
4008273e:	130c      	movi.n	a3, 1
40082740:	013a87        	bltu	a10, a8, 40082745 <z_impl_k_sleep+0x55>
40082743:	030c      	movi.n	a3, 0
40082745:	c02230        	sub	a2, a2, a3
40082748:	f7cba1        	l32r	a10, 40080674 <_init_end+0x274> (cccccccd <_rtc_bss_end+0x7ccccccd>)
4008274b:	8222a0        	mull	a2, a2, a10
4008274e:	f7ca91        	l32r	a9, 40080678 <_init_end+0x278> (cccccccc <_rtc_bss_end+0x7ccccccc>)
40082751:	829890        	mull	a9, a8, a9
40082754:	229a      	add.n	a2, a2, a9
40082756:	8298a0        	mull	a9, a8, a10
40082759:	a288a0        	muluh	a8, a8, a10
4008275c:	828a      	add.n	a8, a2, a8
4008275e:	018810        	slli	a8, a8, 31
40082761:	412190        	srli	a2, a9, 1
40082764:	202820        	or	a2, a8, a2
40082767:	f01d      	retw.n
40082769:	000000        	ill

4008276c <z_impl_z_current_get>:
4008276c:	004136        	entry	a1, 32
4008276f:	f72681        	l32r	a8, 40080408 <_init_end+0x8> (3ffc1efc <_kernel>)
40082772:	2828      	l32i.n	a2, a8, 8
40082774:	f01d      	retw.n
	...

40082778 <z_thread_abort>:
40082778:	004136        	entry	a1, 32
4008277b:	006330        	rsil	a3, 3
4008277e:	034d      	mov.n	a4, a3
40082780:	0c0282        	l8ui	a8, a2, 12
40082783:	0d6807        	bbci	a8, 0, 40082794 <z_thread_abort+0x1c>
40082786:	13e630        	wsr.ps	a3
40082789:	002010        	rsync
4008278c:	4a0c      	movi.n	a10, 4
4008278e:	fe8225        	call8	40080fb0 <xtensa_arch_except>
40082791:	000c86        	j	400827c7 <z_thread_abort+0x4f>
40082794:	0d0282        	l8ui	a8, a2, 13
40082797:	086837        	bbci	a8, 3, 400827a3 <z_thread_abort+0x2b>
4008279a:	13e630        	wsr.ps	a3
4008279d:	002010        	rsync
400827a0:	0008c6        	j	400827c7 <z_thread_abort+0x4f>
400827a3:	20a220        	or	a10, a2, a2
400827a6:	ffd6e5        	call8	40082514 <end_thread>
400827a9:	f71781        	l32r	a8, 40080408 <_init_end+0x8> (3ffc1efc <_kernel>)
400827ac:	022882        	l32i	a8, a8, 8
400827af:	0e9827        	bne	a8, a2, 400827c1 <z_thread_abort+0x49>
400827b2:	03f520        	rsr.misc1	a2
400827b5:	0228      	l32i.n	a2, a2, 0
400827b7:	62cc      	bnez.n	a2, 400827c1 <z_thread_abort+0x49>
400827b9:	03bd      	mov.n	a11, a3
400827bb:	f7aaa1        	l32r	a10, 40080664 <_init_end+0x264> (3ffc1f2c <sched_spinlock>)
400827be:	ff88a5        	call8	40082048 <z_swap>
400827c1:	13e640        	wsr.ps	a4
400827c4:	002010        	rsync
400827c7:	f01d      	retw.n
400827c9:	000000        	ill

400827cc <z_impl_k_thread_abort>:
400827cc:	004136        	entry	a1, 32
400827cf:	02ad      	mov.n	a10, a2
400827d1:	fffa65        	call8	40082778 <z_thread_abort>
400827d4:	f01d      	retw.n
	...

400827d8 <z_sched_wake>:
400827d8:	004136        	entry	a1, 32
400827db:	050c      	movi.n	a5, 0
400827dd:	006360        	rsil	a6, 3
400827e0:	057d      	mov.n	a7, a5
400827e2:	000986        	j	4008280c <z_sched_wake+0x34>
400827e5:	00          	.byte 00
400827e6:	02ad      	mov.n	a10, a2
400827e8:	009be5        	call8	400831a8 <z_priq_dumb_best>
400827eb:	0a5d      	mov.n	a5, a10
400827ed:	3a9c      	beqz.n	a10, 40082804 <z_sched_wake+0x2c>
400827ef:	226a32        	s32i	a3, a10, 136
400827f2:	5a49      	s32i.n	a4, a10, 20
400827f4:	ff8da5        	call8	400820d0 <unpend_thread_no_timeout>
400827f7:	18c5a2        	addi	a10, a5, 24
400827fa:	0022a5        	call8	40082a24 <z_abort_timeout>
400827fd:	05ad      	mov.n	a10, a5
400827ff:	ffa6a5        	call8	40082268 <ready_thread>
40082802:	170c      	movi.n	a7, 1
40082804:	13e660        	wsr.ps	a6
40082807:	002010        	rsync
4008280a:	150c      	movi.n	a5, 1
4008280c:	fd6516        	beqz	a5, 400827e6 <z_sched_wake+0xe>
4008280f:	072d      	mov.n	a2, a7
40082811:	f01d      	retw.n
	...

40082814 <z_sched_wait>:
40082814:	004136        	entry	a1, 32
40082817:	20f770        	or	a15, a7, a7
4008281a:	082152        	l32i	a5, a1, 32
4008281d:	20e660        	or	a14, a6, a6
40082820:	04cd      	mov.n	a12, a4
40082822:	03bd      	mov.n	a11, a3
40082824:	02ad      	mov.n	a10, a2
40082826:	ffc365        	call8	4008245c <z_pend_curr>
40082829:	758c      	beqz.n	a5, 40082834 <z_sched_wait+0x20>
4008282b:	f6f781        	l32r	a8, 40080408 <_init_end+0x8> (3ffc1efc <_kernel>)
4008282e:	2888      	l32i.n	a8, a8, 8
40082830:	5888      	l32i.n	a8, a8, 20
40082832:	0589      	s32i.n	a8, a5, 0
40082834:	0a2d      	mov.n	a2, a10
40082836:	f01d      	retw.n

40082838 <first>:
40082838:	004136        	entry	a1, 32
4008283b:	f79081        	l32r	a8, 4008067c <_init_end+0x27c> (3ffc0048 <timeout_list>)
4008283e:	0828      	l32i.n	a2, a8, 0
40082840:	019287        	bne	a2, a8, 40082845 <first+0xd>
40082843:	020c      	movi.n	a2, 0
40082845:	f01d      	retw.n
	...

40082848 <next>:
40082848:	004136        	entry	a1, 32
4008284b:	d28c      	beqz.n	a2, 4008285c <next+0x14>
4008284d:	f78b91        	l32r	a9, 4008067c <_init_end+0x27c> (3ffc0048 <timeout_list>)
40082850:	1998      	l32i.n	a9, a9, 4
40082852:	041297        	beq	a2, a9, 4008285a <next+0x12>
40082855:	0228      	l32i.n	a2, a2, 0
40082857:	000046        	j	4008285c <next+0x14>
4008285a:	020c      	movi.n	a2, 0
4008285c:	f01d      	retw.n
	...

40082860 <remove_timeout>:
40082860:	004136        	entry	a1, 32
40082863:	02ad      	mov.n	a10, a2
40082865:	fffe25        	call8	40082848 <next>
40082868:	8a9c      	beqz.n	a10, 40082884 <remove_timeout+0x24>
4008286a:	4ac8      	l32i.n	a12, a10, 16
4008286c:	5ab8      	l32i.n	a11, a10, 20
4008286e:	4288      	l32i.n	a8, a2, 16
40082870:	52d8      	l32i.n	a13, a2, 20
40082872:	8c8a      	add.n	a8, a12, a8
40082874:	190c      	movi.n	a9, 1
40082876:	0238c7        	bltu	a8, a12, 4008287c <remove_timeout+0x1c>
40082879:	00a092        	movi	a9, 0
4008287c:	bbda      	add.n	a11, a11, a13
4008287e:	99ba      	add.n	a9, a9, a11
40082880:	4a89      	s32i.n	a8, a10, 16
40082882:	5a99      	s32i.n	a9, a10, 20
40082884:	1298      	l32i.n	a9, a2, 4
40082886:	0288      	l32i.n	a8, a2, 0
40082888:	0989      	s32i.n	a8, a9, 0
4008288a:	1899      	s32i.n	a9, a8, 4
4008288c:	080c      	movi.n	a8, 0
4008288e:	0289      	s32i.n	a8, a2, 0
40082890:	1289      	s32i.n	a8, a2, 4
40082892:	f01d      	retw.n

40082894 <elapsed>:
40082894:	004136        	entry	a1, 32
40082897:	f77a21        	l32r	a2, 40080680 <_init_end+0x280> (3ffc1f2c <sched_spinlock>)
4008289a:	002222        	l32i	a2, a2, 0
4008289d:	008256        	bnez	a2, 400828a9 <elapsed+0x15>
400828a0:	00bc25        	call8	40083464 <sys_clock_elapsed>
400828a3:	202aa0        	or	a2, a10, a10
400828a6:	000046        	j	400828ab <elapsed+0x17>
400828a9:	020c      	movi.n	a2, 0
400828ab:	f01d      	retw.n
400828ad:	000000        	ill

400828b0 <next_timeout>:
400828b0:	004136        	entry	a1, 32
400828b3:	fff865        	call8	40082838 <first>
400828b6:	202aa0        	or	a2, a10, a10
400828b9:	fffda5        	call8	40082894 <elapsed>
400828bc:	029216        	beqz	a2, 400828e9 <next_timeout+0x39>
400828bf:	4298      	l32i.n	a9, a2, 16
400828c1:	5288      	l32i.n	a8, a2, 20
400828c3:	31bfa0        	srai	a11, a10, 31
400828c6:	c029a0        	sub	a2, a9, a10
400828c9:	1a0c      	movi.n	a10, 1
400828cb:	013927        	bltu	a9, a2, 400828d0 <next_timeout+0x20>
400828ce:	0a0c      	movi.n	a10, 0
400828d0:	c088b0        	sub	a8, a8, a11
400828d3:	c088a0        	sub	a8, a8, a10
400828d6:	1718e6        	bgei	a8, 1, 400828f1 <next_timeout+0x41>
400828d9:	48cc      	bnez.n	a8, 400828e1 <next_timeout+0x31>
400828db:	f6cfa1        	l32r	a10, 40080418 <_init_end+0x18> (7fffffff <_rtc_bss_end+0x2fffffff>)
400828de:	0f3a27        	bltu	a10, a2, 400828f1 <next_timeout+0x41>
400828e1:	00f8d6        	bgez	a8, 400828f4 <next_timeout+0x44>
400828e4:	020c      	movi.n	a2, 0
400828e6:	000286        	j	400828f4 <next_timeout+0x44>
400828e9:	f6cb21        	l32r	a2, 40080418 <_init_end+0x18> (7fffffff <_rtc_bss_end+0x2fffffff>)
400828ec:	000106        	j	400828f4 <next_timeout+0x44>
400828ef:	00          	.byte 00
400828f0:	00          	.byte 00
400828f1:	f6c921        	l32r	a2, 40080418 <_init_end+0x18> (7fffffff <_rtc_bss_end+0x2fffffff>)
400828f4:	f6c581        	l32r	a8, 40080408 <_init_end+0x8> (3ffc1efc <_kernel>)
400828f7:	4888      	l32i.n	a8, a8, 16
400828f9:	388c      	beqz.n	a8, 40082900 <next_timeout+0x50>
400828fb:	01a827        	bge	a8, a2, 40082900 <next_timeout+0x50>
400828fe:	082d      	mov.n	a2, a8
40082900:	f01d      	retw.n
	...

40082904 <z_add_timeout>:
40082904:	004136        	entry	a1, 32
40082907:	056d      	mov.n	a6, a5
40082909:	050466        	bnei	a4, -1, 40082912 <z_add_timeout+0xe>
4008290c:	020566        	bnei	a5, -1, 40082912 <z_add_timeout+0xe>
4008290f:	004306        	j	40082a1f <z_add_timeout+0x11b>
40082912:	2239      	s32i.n	a3, a2, 8
40082914:	080c      	movi.n	a8, 0
40082916:	006330        	rsil	a3, 3
40082919:	003fc6        	j	40082a1c <z_add_timeout+0x118>
4008291c:	04bd      	mov.n	a11, a4
4008291e:	e87c      	movi.n	a8, -2
40082920:	c0a840        	sub	a10, a8, a4
40082923:	190c      	movi.n	a9, 1
40082925:	0138a7        	bltu	a8, a10, 4008292a <z_add_timeout+0x26>
40082928:	090c      	movi.n	a9, 0
4008292a:	f87c      	movi.n	a8, -1
4008292c:	c08850        	sub	a8, a8, a5
4008292f:	c08890        	sub	a8, a8, a9
40082932:	03a896        	bltz	a8, 40082970 <z_add_timeout+0x6c>
40082935:	f75391        	l32r	a9, 40080684 <_init_end+0x284> (3ffc1c28 <curr_tick>)
40082938:	0988      	l32i.n	a8, a9, 0
4008293a:	19a8      	l32i.n	a10, a9, 4
4008293c:	884a      	add.n	a8, a8, a4
4008293e:	190c      	movi.n	a9, 1
40082940:	0138b7        	bltu	a8, a11, 40082945 <z_add_timeout+0x41>
40082943:	090c      	movi.n	a9, 0
40082945:	aa5a      	add.n	a10, a10, a5
40082947:	a9aa      	add.n	a10, a9, a10
40082949:	e97c      	movi.n	a9, -2
4008294b:	c08980        	sub	a8, a9, a8
4008294e:	1b0c      	movi.n	a11, 1
40082950:	013987        	bltu	a9, a8, 40082955 <z_add_timeout+0x51>
40082953:	0b0c      	movi.n	a11, 0
40082955:	f97c      	movi.n	a9, -1
40082957:	c099a0        	sub	a9, a9, a10
4008295a:	c099b0        	sub	a9, a9, a11
4008295d:	0719e6        	bgei	a9, 1, 40082968 <z_add_timeout+0x64>
40082960:	09cc      	bnez.n	a9, 40082964 <z_add_timeout+0x60>
40082962:	28cc      	bnez.n	a8, 40082968 <z_add_timeout+0x64>
40082964:	180c      	movi.n	a8, 1
40082966:	090c      	movi.n	a9, 0
40082968:	4289      	s32i.n	a8, a2, 16
4008296a:	5299      	s32i.n	a9, a2, 20
4008296c:	000946        	j	40082995 <z_add_timeout+0x91>
4008296f:	00          	.byte 00
40082970:	641b      	addi.n	a6, a4, 1
40082972:	170c      	movi.n	a7, 1
40082974:	0136b7        	bltu	a6, a11, 40082979 <z_add_timeout+0x75>
40082977:	070c      	movi.n	a7, 0
40082979:	775a      	add.n	a7, a7, a5
4008297b:	fff1a5        	call8	40082894 <elapsed>
4008297e:	319fa0        	srai	a9, a10, 31
40082981:	a6aa      	add.n	a10, a6, a10
40082983:	180c      	movi.n	a8, 1
40082985:	013a67        	bltu	a10, a6, 4008298a <z_add_timeout+0x86>
40082988:	080c      	movi.n	a8, 0
4008298a:	807790        	add	a7, a7, a9
4008298d:	808870        	add	a8, a8, a7
40082990:	0462a2        	s32i	a10, a2, 16
40082993:	5289      	s32i.n	a8, a2, 20
40082995:	ffea25        	call8	40082838 <first>
40082998:	001346        	j	400829e9 <z_add_timeout+0xe5>
4008299b:	00          	.byte 00
4008299c:	4a98      	l32i.n	a9, a10, 16
4008299e:	5ab8      	l32i.n	a11, a10, 20
400829a0:	42c8      	l32i.n	a12, a2, 16
400829a2:	5288      	l32i.n	a8, a2, 20
400829a4:	0528b7        	blt	a8, a11, 400829ad <z_add_timeout+0xa9>
400829a7:	259b87        	bne	a11, a8, 400829d0 <z_add_timeout+0xcc>
400829aa:	22bc97        	bgeu	a12, a9, 400829d0 <z_add_timeout+0xcc>
400829ad:	c0c9c0        	sub	a12, a9, a12
400829b0:	160c      	movi.n	a6, 1
400829b2:	0239c7        	bltu	a9, a12, 400829b8 <z_add_timeout+0xb4>
400829b5:	00a062        	movi	a6, 0
400829b8:	c0bb80        	sub	a11, a11, a8
400829bb:	c0bb60        	sub	a11, a11, a6
400829be:	4ac9      	s32i.n	a12, a10, 16
400829c0:	5ab9      	s32i.n	a11, a10, 20
400829c2:	1a68      	l32i.n	a6, a10, 4
400829c4:	1269      	s32i.n	a6, a2, 4
400829c6:	02a9      	s32i.n	a10, a2, 0
400829c8:	0629      	s32i.n	a2, a6, 0
400829ca:	1a29      	s32i.n	a2, a10, 4
400829cc:	000a46        	j	400829f9 <z_add_timeout+0xf5>
400829cf:	00          	.byte 00
400829d0:	c09c90        	sub	a9, a12, a9
400829d3:	01a0d2        	movi	a13, 1
400829d6:	023c97        	bltu	a12, a9, 400829dc <z_add_timeout+0xd8>
400829d9:	00a0d2        	movi	a13, 0
400829dc:	c088b0        	sub	a8, a8, a11
400829df:	c088d0        	sub	a8, a8, a13
400829e2:	4299      	s32i.n	a9, a2, 16
400829e4:	5289      	s32i.n	a8, a2, 20
400829e6:	ffe625        	call8	40082848 <next>
400829e9:	fafa56        	bnez	a10, 4008299c <z_add_timeout+0x98>
400829ec:	f72481        	l32r	a8, 4008067c <_init_end+0x27c> (3ffc0048 <timeout_list>)
400829ef:	1868      	l32i.n	a6, a8, 4
400829f1:	0289      	s32i.n	a8, a2, 0
400829f3:	1269      	s32i.n	a6, a2, 4
400829f5:	0629      	s32i.n	a2, a6, 0
400829f7:	1829      	s32i.n	a2, a8, 4
400829f9:	ffe3e5        	call8	40082838 <first>
400829fc:	1392a7        	bne	a2, a10, 40082a13 <z_add_timeout+0x10f>
400829ff:	ffeb25        	call8	400828b0 <next_timeout>
40082a02:	7a8c      	beqz.n	a10, 40082a0d <z_add_timeout+0x109>
40082a04:	f68161        	l32r	a6, 40080408 <_init_end+0x8> (3ffc1efc <_kernel>)
40082a07:	042662        	l32i	a6, a6, 16
40082a0a:	0516a7        	beq	a6, a10, 40082a13 <z_add_timeout+0x10f>
40082a0d:	00a0b2        	movi	a11, 0
40082a10:	009da5        	call8	400833ec <sys_clock_set_timeout>
40082a13:	13e630        	wsr.ps	a3
40082a16:	002010        	rsync
40082a19:	01a082        	movi	a8, 1
40082a1c:	efc816        	beqz	a8, 4008291c <z_add_timeout+0x18>
40082a1f:	000090        	retw
	...

40082a24 <z_abort_timeout>:
40082a24:	004136        	entry	a1, 32
40082a27:	030c      	movi.n	a3, 0
40082a29:	006340        	rsil	a4, 3
40082a2c:	a96c      	movi.n	a9, -22
40082a2e:	000586        	j	40082a48 <z_abort_timeout+0x24>
40082a31:	00          	.byte 00
40082a32:	002282        	l32i	a8, a2, 0
40082a35:	007816        	beqz	a8, 40082a40 <z_abort_timeout+0x1c>
40082a38:	20a220        	or	a10, a2, a2
40082a3b:	ffe265        	call8	40082860 <remove_timeout>
40082a3e:	039d      	mov.n	a9, a3
40082a40:	13e640        	wsr.ps	a4
40082a43:	002010        	rsync
40082a46:	130c      	movi.n	a3, 1
40082a48:	fe6316        	beqz	a3, 40082a32 <z_abort_timeout+0xe>
40082a4b:	092d      	mov.n	a2, a9
40082a4d:	f01d      	retw.n
	...

40082a50 <z_set_timeout_expiry>:
40082a50:	004136        	entry	a1, 32
40082a53:	743030        	extui	a3, a3, 0, 8
40082a56:	080c      	movi.n	a8, 0
40082a58:	006340        	rsil	a4, 3
40082a5b:	000d46        	j	40082a94 <z_set_timeout_expiry+0x44>
40082a5e:	00          	.byte 00
40082a5f:	00          	.byte 00
40082a60:	ffe4e5        	call8	400828b0 <next_timeout>
40082a63:	ba1b      	addi.n	a11, a10, 1
40082a65:	190c      	movi.n	a9, 1
40082a67:	080c      	movi.n	a8, 0
40082a69:	8389b0        	moveqz	a8, a9, a11
40082a6c:	748080        	extui	a8, a8, 0, 8
40082a6f:	01aa27        	bge	a10, a2, 40082a74 <z_set_timeout_expiry+0x24>
40082a72:	090c      	movi.n	a9, 0
40082a74:	749090        	extui	a9, a9, 0, 8
40082a77:	208890        	or	a8, a8, a9
40082a7a:	190c      	movi.n	a9, 1
40082a7c:	012ae6        	bgei	a10, 2, 40082a81 <z_set_timeout_expiry+0x31>
40082a7f:	090c      	movi.n	a9, 0
40082a81:	070897        	bnone	a8, a9, 40082a8c <z_set_timeout_expiry+0x3c>
40082a84:	03bd      	mov.n	a11, a3
40082a86:	43aa20        	min	a10, a10, a2
40082a89:	009625        	call8	400833ec <sys_clock_set_timeout>
40082a8c:	13e640        	wsr.ps	a4
40082a8f:	002010        	rsync
40082a92:	180c      	movi.n	a8, 1
40082a94:	fc8816        	beqz	a8, 40082a60 <z_set_timeout_expiry+0x10>
40082a97:	f01d      	retw.n
40082a99:	000000        	ill

40082a9c <sys_clock_announce>:
40082a9c:	004136        	entry	a1, 32
40082a9f:	20a220        	or	a10, a2, a2
40082aa2:	ff77e5        	call8	40082220 <z_time_slice>
40082aa5:	006330        	rsil	a3, 3
40082aa8:	f6f641        	l32r	a4, 40080680 <_init_end+0x280> (3ffc1f2c <sched_spinlock>)
40082aab:	006422        	s32i	a2, a4, 0
40082aae:	ffd8a5        	call8	40082838 <first>
40082ab1:	202aa0        	or	a2, a10, a10
40082ab4:	001286        	j	40082b02 <sys_clock_announce+0x66>
40082ab7:	00          	.byte 00
40082ab8:	00          	.byte 00
40082ab9:	f6f281        	l32r	a8, 40080684 <_init_end+0x284> (3ffc1c28 <curr_tick>)
40082abc:	31df40        	srai	a13, a4, 31
40082abf:	08c8      	l32i.n	a12, a8, 0
40082ac1:	18a8      	l32i.n	a10, a8, 4
40082ac3:	bc4a      	add.n	a11, a12, a4
40082ac5:	01a092        	movi	a9, 1
40082ac8:	023bc7        	bltu	a11, a12, 40082ace <sys_clock_announce+0x32>
40082acb:	00a092        	movi	a9, 0
40082ace:	80aad0        	add	a10, a10, a13
40082ad1:	8099a0        	add	a9, a9, a10
40082ad4:	08b9      	s32i.n	a11, a8, 0
40082ad6:	1899      	s32i.n	a9, a8, 4
40082ad8:	080c      	movi.n	a8, 0
40082ada:	4289      	s32i.n	a8, a2, 16
40082adc:	5289      	s32i.n	a8, a2, 20
40082ade:	02ad      	mov.n	a10, a2
40082ae0:	ffd7e5        	call8	40082860 <remove_timeout>
40082ae3:	13e630        	wsr.ps	a3
40082ae6:	002010        	rsync
40082ae9:	2238      	l32i.n	a3, a2, 8
40082aeb:	02ad      	mov.n	a10, a2
40082aed:	0003e0        	callx8	a3
40082af0:	006330        	rsil	a3, 3
40082af3:	f6e381        	l32r	a8, 40080680 <_init_end+0x280> (3ffc1f2c <sched_spinlock>)
40082af6:	0828      	l32i.n	a2, a8, 0
40082af8:	c02240        	sub	a2, a2, a4
40082afb:	0829      	s32i.n	a2, a8, 0
40082afd:	ffd3a5        	call8	40082838 <first>
40082b00:	0a2d      	mov.n	a2, a10
40082b02:	329c      	beqz.n	a2, 40082b19 <sys_clock_announce+0x7d>
40082b04:	4248      	l32i.n	a4, a2, 16
40082b06:	5298      	l32i.n	a9, a2, 20
40082b08:	f6de81        	l32r	a8, 40080680 <_init_end+0x280> (3ffc1f2c <sched_spinlock>)
40082b0b:	08a8      	l32i.n	a10, a8, 0
40082b0d:	318fa0        	srai	a8, a10, 31
40082b10:	052897        	blt	a8, a9, 40082b19 <sys_clock_announce+0x7d>
40082b13:	a29987        	bne	a9, a8, 40082ab9 <sys_clock_announce+0x1d>
40082b16:	9fba47        	bgeu	a10, a4, 40082ab9 <sys_clock_announce+0x1d>
40082b19:	f29c      	beqz.n	a2, 40082b3c <sys_clock_announce+0xa0>
40082b1b:	4298      	l32i.n	a9, a2, 16
40082b1d:	5248      	l32i.n	a4, a2, 20
40082b1f:	f6d881        	l32r	a8, 40080680 <_init_end+0x280> (3ffc1f2c <sched_spinlock>)
40082b22:	0888      	l32i.n	a8, a8, 0
40082b24:	31bf80        	srai	a11, a8, 31
40082b27:	c08980        	sub	a8, a9, a8
40082b2a:	1a0c      	movi.n	a10, 1
40082b2c:	013987        	bltu	a9, a8, 40082b31 <sys_clock_announce+0x95>
40082b2f:	0a0c      	movi.n	a10, 0
40082b31:	c044b0        	sub	a4, a4, a11
40082b34:	c044a0        	sub	a4, a4, a10
40082b37:	4289      	s32i.n	a8, a2, 16
40082b39:	056242        	s32i	a4, a2, 20
40082b3c:	f6d241        	l32r	a4, 40080684 <_init_end+0x284> (3ffc1c28 <curr_tick>)
40082b3f:	f6d021        	l32r	a2, 40080680 <_init_end+0x280> (3ffc1f2c <sched_spinlock>)
40082b42:	0228      	l32i.n	a2, a2, 0
40082b44:	31bf20        	srai	a11, a2, 31
40082b47:	04a8      	l32i.n	a10, a4, 0
40082b49:	1498      	l32i.n	a9, a4, 4
40082b4b:	2a2a      	add.n	a2, a10, a2
40082b4d:	180c      	movi.n	a8, 1
40082b4f:	0132a7        	bltu	a2, a10, 40082b54 <sys_clock_announce+0xb8>
40082b52:	080c      	movi.n	a8, 0
40082b54:	8099b0        	add	a9, a9, a11
40082b57:	808890        	add	a8, a8, a9
40082b5a:	0429      	s32i.n	a2, a4, 0
40082b5c:	1489      	s32i.n	a8, a4, 4
40082b5e:	020c      	movi.n	a2, 0
40082b60:	f6c841        	l32r	a4, 40080680 <_init_end+0x280> (3ffc1f2c <sched_spinlock>)
40082b63:	0429      	s32i.n	a2, a4, 0
40082b65:	ffd4a5        	call8	400828b0 <next_timeout>
40082b68:	02bd      	mov.n	a11, a2
40082b6a:	008825        	call8	400833ec <sys_clock_set_timeout>
40082b6d:	13e630        	wsr.ps	a3
40082b70:	002010        	rsync
40082b73:	f01d      	retw.n
40082b75:	000000        	ill

40082b78 <sys_clock_tick_get>:
40082b78:	004136        	entry	a1, 32
40082b7b:	080c      	movi.n	a8, 0
40082b7d:	006340        	rsil	a4, 3
40082b80:	082d      	mov.n	a2, a8
40082b82:	083d      	mov.n	a3, a8
40082b84:	000946        	j	40082bad <sys_clock_tick_get+0x35>
40082b87:	00          	.byte 00
40082b88:	ffd0a5        	call8	40082894 <elapsed>
40082b8b:	318fa0        	srai	a8, a10, 31
40082b8e:	f6bd31        	l32r	a3, 40080684 <_init_end+0x284> (3ffc1c28 <curr_tick>)
40082b91:	002322        	l32i	a2, a3, 0
40082b94:	012392        	l32i	a9, a3, 4
40082b97:	802a20        	add	a2, a10, a2
40082b9a:	130c      	movi.n	a3, 1
40082b9c:	0132a7        	bltu	a2, a10, 40082ba1 <sys_clock_tick_get+0x29>
40082b9f:	030c      	movi.n	a3, 0
40082ba1:	889a      	add.n	a8, a8, a9
40082ba3:	338a      	add.n	a3, a3, a8
40082ba5:	13e640        	wsr.ps	a4
40082ba8:	002010        	rsync
40082bab:	180c      	movi.n	a8, 1
40082bad:	fd7816        	beqz	a8, 40082b88 <sys_clock_tick_get+0x10>
40082bb0:	f01d      	retw.n
	...

40082bb4 <sys_clock_tick_get_32>:
40082bb4:	004136        	entry	a1, 32
40082bb7:	fffc25        	call8	40082b78 <sys_clock_tick_get>
40082bba:	0a2d      	mov.n	a2, a10
40082bbc:	f01d      	retw.n
	...

40082bc0 <z_impl_k_uptime_ticks>:
40082bc0:	004136        	entry	a1, 32
40082bc3:	fffb65        	call8	40082b78 <sys_clock_tick_get>
40082bc6:	202aa0        	or	a2, a10, a10
40082bc9:	203bb0        	or	a3, a11, a11
40082bcc:	000090        	retw
	...

40082bd0 <z_impl_k_busy_wait>:
40082bd0:	004136        	entry	a1, 32
40082bd3:	22ac      	beqz.n	a2, 40082bf9 <z_impl_k_busy_wait+0x29>
40082bd5:	008b25        	call8	40083488 <sys_clock_cycle_get_32>
40082bd8:	0a3d      	mov.n	a3, a10
40082bda:	f6aba1        	l32r	a10, 40080688 <_init_end+0x288> (e4e1c00 <CONFIG_SYS_CLOCK_HW_CYCLES_PER_SEC>)
40082bdd:	a2b2a0        	muluh	a11, a2, a10
40082be0:	f613c1        	l32r	a12, 4008042c <_init_end+0x2c> (f4240 <_image_irom_start+0xda94c>)
40082be3:	0d0c      	movi.n	a13, 0
40082be5:	82a2a0        	mull	a10, a2, a10
40082be8:	f6a981        	l32r	a8, 4008068c <_init_end+0x28c> (4000cff8 <__udivdi3>)
40082beb:	0008e0        	callx8	a8
40082bee:	0a2d      	mov.n	a2, a10
40082bf0:	008965        	call8	40083488 <sys_clock_cycle_get_32>
40082bf3:	c0aa30        	sub	a10, a10, a3
40082bf6:	f63a27        	bltu	a10, a2, 40082bf0 <z_impl_k_busy_wait+0x20>
40082bf9:	f01d      	retw.n
	...

40082bfc <sys_clock_timeout_end_calc>:
40082bfc:	004136        	entry	a1, 32
40082bff:	020266        	bnei	a2, -1, 40082c05 <sys_clock_timeout_end_calc+0x9>
40082c02:	560326        	beqi	a3, -1, 40082c5c <sys_clock_timeout_end_calc+0x60>
40082c05:	208320        	or	a8, a3, a2
40082c08:	00c856        	bnez	a8, 40082c18 <sys_clock_timeout_end_calc+0x1c>
40082c0b:	fff6e5        	call8	40082b78 <sys_clock_tick_get>
40082c0e:	202aa0        	or	a2, a10, a10
40082c11:	203bb0        	or	a3, a11, a11
40082c14:	001206        	j	40082c60 <sys_clock_timeout_end_calc+0x64>
40082c17:	00          	.byte 00
40082c18:	e87c      	movi.n	a8, -2
40082c1a:	c0a820        	sub	a10, a8, a2
40082c1d:	190c      	movi.n	a9, 1
40082c1f:	0138a7        	bltu	a8, a10, 40082c24 <sys_clock_timeout_end_calc+0x28>
40082c22:	090c      	movi.n	a9, 0
40082c24:	fb7c      	movi.n	a11, -1
40082c26:	c0bb30        	sub	a11, a11, a3
40082c29:	c0bb90        	sub	a11, a11, a9
40082c2c:	008b96        	bltz	a11, 40082c38 <sys_clock_timeout_end_calc+0x3c>
40082c2f:	0a2d      	mov.n	a2, a10
40082c31:	0b3d      	mov.n	a3, a11
40082c33:	000a46        	j	40082c60 <sys_clock_timeout_end_calc+0x64>
40082c36:	00          	.byte 00
40082c37:	00          	.byte 00
40082c38:	fff3e5        	call8	40082b78 <sys_clock_tick_get>
40082c3b:	038d      	mov.n	a8, a3
40082c3d:	0813e6        	bgei	a3, 1, 40082c49 <sys_clock_timeout_end_calc+0x4d>
40082c40:	13cc      	bnez.n	a3, 40082c45 <sys_clock_timeout_end_calc+0x49>
40082c42:	003256        	bnez	a2, 40082c49 <sys_clock_timeout_end_calc+0x4d>
40082c45:	120c      	movi.n	a2, 1
40082c47:	080c      	movi.n	a8, 0
40082c49:	2a2a      	add.n	a2, a10, a2
40082c4b:	130c      	movi.n	a3, 1
40082c4d:	0132a7        	bltu	a2, a10, 40082c52 <sys_clock_timeout_end_calc+0x56>
40082c50:	030c      	movi.n	a3, 0
40082c52:	bb8a      	add.n	a11, a11, a8
40082c54:	33ba      	add.n	a3, a3, a11
40082c56:	000186        	j	40082c60 <sys_clock_timeout_end_calc+0x64>
40082c59:	00          	.byte 00
40082c5a:	00          	.byte 00
40082c5b:	00          	.byte 00
40082c5c:	f27c      	movi.n	a2, -1
40082c5e:	023d      	mov.n	a3, a2
40082c60:	f01d      	retw.n
	...

40082c64 <signal_poller>:
40082c64:	004136        	entry	a1, 32
40082c67:	22a8      	l32i.n	a10, a2, 8
40082c69:	0055a5        	call8	400831c4 <poller_thread>
40082c6c:	0a2d      	mov.n	a2, a10
40082c6e:	0d0a82        	l8ui	a8, a10, 13
40082c71:	486817        	bbci	a8, 1, 40082cbd <signal_poller+0x59>
40082c74:	aa98      	l32i.n	a9, a10, 40
40082c76:	baa8      	l32i.n	a10, a10, 44
40082c78:	e87c      	movi.n	a8, -2
40082c7a:	029987        	bne	a9, a8, 40082c80 <signal_poller+0x1c>
40082c7d:	410a26        	beqi	a10, -1, 40082cc2 <signal_poller+0x5e>
40082c80:	02ad      	mov.n	a10, a2
40082c82:	ff4725        	call8	400820f4 <z_unpend_thread>
40082c85:	078366        	bnei	a3, 8, 40082c90 <signal_poller+0x2c>
40082c88:	c37c      	movi.n	a3, -4
40082c8a:	000106        	j	40082c92 <signal_poller+0x2e>
40082c8d:	00          	.byte 00
40082c8e:	00          	.byte 00
40082c8f:	00          	.byte 00
40082c90:	030c      	movi.n	a3, 0
40082c92:	226232        	s32i	a3, a2, 136
40082c95:	0d0282        	l8ui	a8, a2, 13
40082c98:	448080        	extui	a8, a8, 0, 5
40082c9b:	78cc      	bnez.n	a8, 40082ca6 <signal_poller+0x42>
40082c9d:	6238      	l32i.n	a3, a2, 24
40082c9f:	93cc      	bnez.n	a3, 40082cac <signal_poller+0x48>
40082ca1:	130c      	movi.n	a3, 1
40082ca3:	000206        	j	40082caf <signal_poller+0x4b>
40082ca6:	030c      	movi.n	a3, 0
40082ca8:	0000c6        	j	40082caf <signal_poller+0x4b>
40082cab:	00          	.byte 00
40082cac:	00a032        	movi	a3, 0
40082caf:	015316        	beqz	a3, 40082cc8 <signal_poller+0x64>
40082cb2:	20a220        	or	a10, a2, a2
40082cb5:	ff62e5        	call8	400822e4 <z_ready_thread>
40082cb8:	020c      	movi.n	a2, 0
40082cba:	000306        	j	40082cca <signal_poller+0x66>
40082cbd:	020c      	movi.n	a2, 0
40082cbf:	0001c6        	j	40082cca <signal_poller+0x66>
40082cc2:	527c      	movi.n	a2, -11
40082cc4:	000086        	j	40082cca <signal_poller+0x66>
40082cc7:	00          	.byte 00
40082cc8:	020c      	movi.n	a2, 0
40082cca:	f01d      	retw.n

40082ccc <signal_triggered_work>:
40082ccc:	004136        	entry	a1, 32
40082ccf:	0222a2        	l32i	a10, a2, 8
40082cd2:	000a82        	l8ui	a8, a10, 0
40082cd5:	01b816        	beqz	a8, 40082cf4 <signal_triggered_work+0x28>
40082cd8:	ecca22        	addi	a2, a10, -20
40082cdb:	4228      	l32i.n	a2, a2, 16
40082cdd:	329c      	beqz.n	a2, 40082cf4 <signal_triggered_work+0x28>
40082cdf:	ecca32        	addi	a3, a10, -20
40082ce2:	14caa2        	addi	a10, a10, 20
40082ce5:	ffd3e5        	call8	40082a24 <z_abort_timeout>
40082ce8:	080c      	movi.n	a8, 0
40082cea:	106382        	s32i	a8, a3, 64
40082ced:	03bd      	mov.n	a11, a3
40082cef:	02ad      	mov.n	a10, a2
40082cf1:	003665        	call8	40083058 <z_work_submit_to_queue>
40082cf4:	020c      	movi.n	a2, 0
40082cf6:	f01d      	retw.n

40082cf8 <signal_poll_event>:
40082cf8:	004136        	entry	a1, 32
40082cfb:	2248      	l32i.n	a4, a2, 8
40082cfd:	34bc      	beqz.n	a4, 40082d34 <signal_poll_event+0x3c>
40082cff:	010482        	l8ui	a8, a4, 1
40082d02:	0a1866        	bnei	a8, 1, 40082d10 <signal_poll_event+0x18>
40082d05:	03bd      	mov.n	a11, a3
40082d07:	02ad      	mov.n	a10, a2
40082d09:	fff5a5        	call8	40082c64 <signal_poller>
40082d0c:	0005c6        	j	40082d27 <signal_poll_event+0x2f>
40082d0f:	00          	.byte 00
40082d10:	0a2826        	beqi	a8, 2, 40082d1e <signal_poll_event+0x26>
40082d13:	080c      	movi.n	a8, 0
40082d15:	004482        	s8i	a8, a4, 0
40082d18:	0a0c      	movi.n	a10, 0
40082d1a:	000606        	j	40082d36 <signal_poll_event+0x3e>
40082d1d:	00          	.byte 00
40082d1e:	20b330        	or	a11, a3, a3
40082d21:	20a220        	or	a10, a2, a2
40082d24:	fffa65        	call8	40082ccc <signal_triggered_work>
40082d27:	00a082        	movi	a8, 0
40082d2a:	004482        	s8i	a8, a4, 0
40082d2d:	005ad6        	bgez	a10, 40082d36 <signal_poll_event+0x3e>
40082d30:	0007c6        	j	40082d53 <signal_poll_event+0x5b>
40082d33:	00          	.byte 00
40082d34:	0a0c      	movi.n	a10, 0
40082d36:	040c      	movi.n	a4, 0
40082d38:	2249      	s32i.n	a4, a2, 8
40082d3a:	3298      	l32i.n	a9, a2, 12
40082d3c:	648e90        	extui	a8, a9, 14, 7
40082d3f:	208830        	or	a8, a8, a3
40082d42:	648080        	extui	a8, a8, 0, 7
40082d45:	118820        	slli	a8, a8, 14
40082d48:	f65231        	l32r	a3, 40080690 <_init_end+0x290> (ffe03fff <_rtc_bss_end+0xafe03fff>)
40082d4b:	109930        	and	a9, a9, a3
40082d4e:	209980        	or	a9, a9, a8
40082d51:	3299      	s32i.n	a9, a2, 12
40082d53:	0a2d      	mov.n	a2, a10
40082d55:	f01d      	retw.n
	...

40082d58 <z_handle_obj_poll_events>:
40082d58:	004136        	entry	a1, 32
40082d5b:	0022a2        	l32i	a10, a2, 0
40082d5e:	1412a7        	beq	a2, a10, 40082d76 <z_handle_obj_poll_events+0x1e>
40082d61:	012a82        	l32i	a8, a10, 4
40082d64:	002a22        	l32i	a2, a10, 0
40082d67:	0829      	s32i.n	a2, a8, 0
40082d69:	1289      	s32i.n	a8, a2, 4
40082d6b:	020c      	movi.n	a2, 0
40082d6d:	0a29      	s32i.n	a2, a10, 0
40082d6f:	1a29      	s32i.n	a2, a10, 4
40082d71:	03bd      	mov.n	a11, a3
40082d73:	fff865        	call8	40082cf8 <signal_poll_event>
40082d76:	f01d      	retw.n

40082d78 <z_heap_aligned_alloc>:
40082d78:	004136        	entry	a1, 32
40082d7b:	080c      	movi.n	a8, 0
40082d7d:	c44b      	addi.n	a12, a4, 4
40082d7f:	01bc47        	bgeu	a12, a4, 40082d84 <z_heap_aligned_alloc+0xc>
40082d82:	180c      	movi.n	a8, 1
40082d84:	68dc      	bnez.n	a8, 40082d9e <z_heap_aligned_alloc+0x26>
40082d86:	0f0c      	movi.n	a15, 0
40082d88:	0fed      	mov.n	a14, a15
40082d8a:	4b0c      	movi.n	a11, 4
40082d8c:	20b3b0        	or	a11, a3, a11
40082d8f:	02ad      	mov.n	a10, a2
40082d91:	fee3a5        	call8	40081bcc <k_heap_aligned_alloc>
40082d94:	8a8c      	beqz.n	a10, 40082da0 <z_heap_aligned_alloc+0x28>
40082d96:	0a29      	s32i.n	a2, a10, 0
40082d98:	aa4b      	addi.n	a10, a10, 4
40082d9a:	000086        	j	40082da0 <z_heap_aligned_alloc+0x28>
40082d9d:	00          	.byte 00
40082d9e:	0a0c      	movi.n	a10, 0
40082da0:	0a2d      	mov.n	a2, a10
40082da2:	f01d      	retw.n

40082da4 <k_free>:
40082da4:	004136        	entry	a1, 32
40082da7:	00b216        	beqz	a2, 40082db6 <k_free+0x12>
40082daa:	fcc222        	addi	a2, a2, -4
40082dad:	20b220        	or	a11, a2, a2
40082db0:	0022a2        	l32i	a10, a2, 0
40082db3:	fee965        	call8	40081c48 <k_heap_free>
40082db6:	f01d      	retw.n

40082db8 <k_aligned_alloc>:
40082db8:	004136        	entry	a1, 32
40082dbb:	20c330        	or	a12, a3, a3
40082dbe:	20b220        	or	a11, a2, a2
40082dc1:	f634a1        	l32r	a10, 40080694 <_init_end+0x294> (3ffc0a84 <_system_heap>)
40082dc4:	fffb25        	call8	40082d78 <z_heap_aligned_alloc>
40082dc7:	202aa0        	or	a2, a10, a10
40082dca:	f01d      	retw.n

40082dcc <k_malloc>:
40082dcc:	004136        	entry	a1, 32
40082dcf:	20b220        	or	a11, a2, a2
40082dd2:	04a0a2        	movi	a10, 4
40082dd5:	fffe25        	call8	40082db8 <k_aligned_alloc>
40082dd8:	202aa0        	or	a2, a10, a10
40082ddb:	f01d      	retw.n
40082ddd:	000000        	ill

40082de0 <k_calloc>:
40082de0:	004136        	entry	a1, 32
40082de3:	00a082        	movi	a8, 0
40082de6:	824230        	mull	a4, a2, a3
40082de9:	a22230        	muluh	a2, a2, a3
40082dec:	021287        	beq	a2, a8, 40082df2 <k_calloc+0x12>
40082def:	01a082        	movi	a8, 1
40082df2:	28dc      	bnez.n	a8, 40082e08 <k_calloc+0x28>
40082df4:	04ad      	mov.n	a10, a4
40082df6:	fffd65        	call8	40082dcc <k_malloc>
40082df9:	0a2d      	mov.n	a2, a10
40082dfb:	ba8c      	beqz.n	a10, 40082e0a <k_calloc+0x2a>
40082dfd:	04cd      	mov.n	a12, a4
40082dff:	0b0c      	movi.n	a11, 0
40082e01:	014ba5        	call8	400842bc <memset>
40082e04:	000086        	j	40082e0a <k_calloc+0x2a>
40082e07:	00          	.byte 00
40082e08:	020c      	movi.n	a2, 0
40082e0a:	f01d      	retw.n

40082e0c <k_thread_system_pool_assign>:
40082e0c:	004136        	entry	a1, 32
40082e0f:	f62181        	l32r	a8, 40080694 <_init_end+0x294> (3ffc0a84 <_system_heap>)
40082e12:	246282        	s32i	a8, a2, 144
40082e15:	f01d      	retw.n
	...

40082e18 <boot_banner>:
40082e18:	004136        	entry	a1, 32
40082e1b:	f61fa1        	l32r	a10, 40080698 <_init_end+0x298> (3f404864 <spi_api+0xc>)
40082e1e:	013a25        	call8	400841c0 <printk>
40082e21:	f01d      	retw.n
	...

40082e24 <k_sys_work_q_init>:
40082e24:	006136        	entry	a1, 48
40082e27:	f61d81        	l32r	a8, 4008069c <_init_end+0x29c> (3f4048a8 <spi_api+0x50>)
40082e2a:	006182        	s32i	a8, a1, 0
40082e2d:	00a082        	movi	a8, 0
40082e30:	044182        	s8i	a8, a1, 4
40082e33:	20e110        	or	a14, a1, a1
40082e36:	fd7c      	movi.n	a13, -1
40082e38:	00a4c2        	movi	a12, 0x400
40082e3b:	f619b1        	l32r	a11, 400806a0 <_init_end+0x2a0> (3ffe6630 <sys_work_q_stack>)
40082e3e:	f619a1        	l32r	a10, 400806a4 <_init_end+0x2a4> (3ffc1c30 <k_sys_work_q>)
40082e41:	002325        	call8	40083074 <k_work_queue_start>
40082e44:	020c      	movi.n	a2, 0
40082e46:	f01d      	retw.n

40082e48 <notify_queue_locked>:
40082e48:	004136        	entry	a1, 32
40082e4b:	012216        	beqz	a2, 40082e61 <notify_queue_locked+0x19>
40082e4e:	00a0c2        	movi	a12, 0
40082e51:	20bcc0        	or	a11, a12, a12
40082e54:	a0a0a2        	movi	a10, 160
40082e57:	a2aa      	add.n	a10, a2, a10
40082e59:	ff97e5        	call8	400827d8 <z_sched_wake>
40082e5c:	0a2d      	mov.n	a2, a10
40082e5e:	000046        	j	40082e63 <notify_queue_locked+0x1b>
40082e61:	020c      	movi.n	a2, 0
40082e63:	f01d      	retw.n
40082e65:	000000        	ill

40082e68 <queue_submit_locked>:
40082e68:	004136        	entry	a1, 32
40082e6b:	05a216        	beqz	a2, 40082ec9 <queue_submit_locked+0x61>
40082e6e:	f56681        	l32r	a8, 40080408 <_init_end+0x8> (3ffc1efc <_kernel>)
40082e71:	022882        	l32i	a8, a8, 8
40082e74:	0c9827        	bne	a8, a2, 40082e84 <queue_submit_locked+0x1c>
40082e77:	002ba5        	call8	40083130 <k_is_in_isr>
40082e7a:	00ba56        	bnez	a10, 40082e89 <queue_submit_locked+0x21>
40082e7d:	01a082        	movi	a8, 1
40082e80:	0001c6        	j	40082e8b <queue_submit_locked+0x23>
40082e83:	00          	.byte 00
40082e84:	080c      	movi.n	a8, 0
40082e86:	000046        	j	40082e8b <queue_submit_locked+0x23>
40082e89:	080c      	movi.n	a8, 0
40082e8b:	2c2292        	l32i	a9, a2, 176
40082e8e:	04a290        	extui	a10, a9, 2, 1
40082e91:	04c390        	extui	a12, a9, 3, 1
40082e94:	366907        	bbci	a9, 0, 40082ece <queue_submit_locked+0x66>
40082e97:	190c      	movi.n	a9, 1
40082e99:	308890        	xor	a8, a8, a9
40082e9c:	3488a7        	bany	a8, a10, 40082ed4 <queue_submit_locked+0x6c>
40082e9f:	180c      	movi.n	a8, 1
40082ea1:	090c      	movi.n	a9, 0
40082ea3:	9389a0        	movnez	a8, a9, a10
40082ea6:	2f88c7        	bany	a8, a12, 40082ed9 <queue_submit_locked+0x71>
40082ea9:	0399      	s32i.n	a9, a3, 0
40082eab:	272282        	l32i	a8, a2, 156
40082eae:	089897        	bne	a8, a9, 40082eba <queue_submit_locked+0x52>
40082eb1:	276232        	s32i	a3, a2, 156
40082eb4:	266232        	s32i	a3, a2, 152
40082eb7:	000106        	j	40082ebf <queue_submit_locked+0x57>
40082eba:	0839      	s32i.n	a3, a8, 0
40082ebc:	276232        	s32i	a3, a2, 156
40082ebf:	02ad      	mov.n	a10, a2
40082ec1:	fff865        	call8	40082e48 <notify_queue_locked>
40082ec4:	120c      	movi.n	a2, 1
40082ec6:	000446        	j	40082edb <queue_submit_locked+0x73>
40082ec9:	a26c      	movi.n	a2, -22
40082ecb:	000306        	j	40082edb <queue_submit_locked+0x73>
40082ece:	d26c      	movi.n	a2, -19
40082ed0:	0001c6        	j	40082edb <queue_submit_locked+0x73>
40082ed3:	00          	.byte 00
40082ed4:	027c      	movi.n	a2, -16
40082ed6:	000046        	j	40082edb <queue_submit_locked+0x73>
40082ed9:	027c      	movi.n	a2, -16
40082edb:	f01d      	retw.n
40082edd:	000000        	ill

40082ee0 <submit_to_queue_locked>:
40082ee0:	004136        	entry	a1, 32
40082ee3:	3288      	l32i.n	a8, a2, 12
40082ee5:	3be817        	bbsi	a8, 1, 40082f24 <submit_to_queue_locked+0x44>
40082ee8:	3ee827        	bbsi	a8, 2, 40082f2a <submit_to_queue_locked+0x4a>
40082eeb:	0348      	l32i.n	a4, a3, 0
40082eed:	34cc      	bnez.n	a4, 40082ef4 <submit_to_queue_locked+0x14>
40082eef:	2248      	l32i.n	a4, a2, 8
40082ef1:	006342        	s32i	a4, a3, 0
40082ef4:	3248      	l32i.n	a4, a2, 12
40082ef6:	086407        	bbci	a4, 0, 40082f02 <submit_to_queue_locked+0x22>
40082ef9:	2248      	l32i.n	a4, a2, 8
40082efb:	0349      	s32i.n	a4, a3, 0
40082efd:	240c      	movi.n	a4, 2
40082eff:	000046        	j	40082f04 <submit_to_queue_locked+0x24>
40082f02:	140c      	movi.n	a4, 1
40082f04:	02bd      	mov.n	a11, a2
40082f06:	0023a2        	l32i	a10, a3, 0
40082f09:	fff5e5        	call8	40082e68 <queue_submit_locked>
40082f0c:	01ca96        	bltz	a10, 40082f2c <submit_to_queue_locked+0x4c>
40082f0f:	3288      	l32i.n	a8, a2, 12
40082f11:	490c      	movi.n	a9, 4
40082f13:	208890        	or	a8, a8, a9
40082f16:	3289      	s32i.n	a8, a2, 12
40082f18:	0388      	l32i.n	a8, a3, 0
40082f1a:	2289      	s32i.n	a8, a2, 8
40082f1c:	1414e6        	bgei	a4, 1, 40082f34 <submit_to_queue_locked+0x54>
40082f1f:	04ad      	mov.n	a10, a4
40082f21:	0001c6        	j	40082f2c <submit_to_queue_locked+0x4c>
40082f24:	0a7c      	movi.n	a10, -16
40082f26:	000086        	j	40082f2c <submit_to_queue_locked+0x4c>
40082f29:	00          	.byte 00
40082f2a:	0a0c      	movi.n	a10, 0
40082f2c:	020c      	movi.n	a2, 0
40082f2e:	0329      	s32i.n	a2, a3, 0
40082f30:	000086        	j	40082f36 <submit_to_queue_locked+0x56>
40082f33:	00          	.byte 00
40082f34:	04ad      	mov.n	a10, a4
40082f36:	0a2d      	mov.n	a2, a10
40082f38:	f01d      	retw.n
	...

40082f3c <finalize_cancel_locked>:
40082f3c:	004136        	entry	a1, 32
40082f3f:	3238      	l32i.n	a3, a2, 12
40082f41:	d47c      	movi.n	a4, -3
40082f43:	103340        	and	a3, a3, a4
40082f46:	3239      	s32i.n	a3, a2, 12
40082f48:	f5d831        	l32r	a3, 400806a8 <_init_end+0x2a8> (3ffc1f30 <pending_cancels>)
40082f4b:	0338      	l32i.n	a3, a3, 0
40082f4d:	33bc      	beqz.n	a3, 40082f84 <finalize_cancel_locked+0x48>
40082f4f:	0348      	l32i.n	a4, a3, 0
40082f51:	14bc      	beqz.n	a4, 40082f86 <finalize_cancel_locked+0x4a>
40082f53:	f3ec      	bnez.n	a3, 40082f86 <finalize_cancel_locked+0x4a>
40082f55:	034d      	mov.n	a4, a3
40082f57:	000ac6        	j	40082f86 <finalize_cancel_locked+0x4a>
40082f5a:	012382        	l32i	a8, a3, 4
40082f5d:	139827        	bne	a8, a2, 40082f74 <finalize_cancel_locked+0x38>
40082f60:	20c330        	or	a12, a3, a3
40082f63:	05bd      	mov.n	a11, a5
40082f65:	f5d0a1        	l32r	a10, 400806a8 <_init_end+0x2a8> (3ffc1f30 <pending_cancels>)
40082f68:	002665        	call8	400831d0 <sys_slist_remove>
40082f6b:	a38b      	addi.n	a10, a3, 8
40082f6d:	feeda5        	call8	40081e48 <z_impl_k_sem_give>
40082f70:	000086        	j	40082f76 <finalize_cancel_locked+0x3a>
40082f73:	00          	.byte 00
40082f74:	035d      	mov.n	a5, a3
40082f76:	249c      	beqz.n	a4, 40082f8c <finalize_cancel_locked+0x50>
40082f78:	0488      	l32i.n	a8, a4, 0
40082f7a:	089c      	beqz.n	a8, 40082f8e <finalize_cancel_locked+0x52>
40082f7c:	e4cc      	bnez.n	a4, 40082f8e <finalize_cancel_locked+0x52>
40082f7e:	048d      	mov.n	a8, a4
40082f80:	000286        	j	40082f8e <finalize_cancel_locked+0x52>
40082f83:	00          	.byte 00
40082f84:	034d      	mov.n	a4, a3
40082f86:	050c      	movi.n	a5, 0
40082f88:	000186        	j	40082f92 <finalize_cancel_locked+0x56>
40082f8b:	00          	.byte 00
40082f8c:	048d      	mov.n	a8, a4
40082f8e:	043d      	mov.n	a3, a4
40082f90:	084d      	mov.n	a4, a8
40082f92:	fc4356        	bnez	a3, 40082f5a <finalize_cancel_locked+0x1e>
40082f95:	f01d      	retw.n
	...

40082f98 <work_queue_main>:
40082f98:	006136        	entry	a1, 48
40082f9b:	006340        	rsil	a4, 3
40082f9e:	049d      	mov.n	a9, a4
40082fa0:	262232        	l32i	a3, a2, 152
40082fa3:	23dc      	bnez.n	a3, 40082fb9 <work_queue_main+0x21>
40082fa5:	2c2282        	l32i	a8, a2, 176
40082fa8:	b37c      	movi.n	a3, -5
40082faa:	103830        	and	a3, a8, a3
40082fad:	2c6232        	s32i	a3, a2, 176
40082fb0:	676827        	bbci	a8, 2, 4008301b <work_queue_main+0x83>
40082fb3:	001446        	j	40083008 <work_queue_main+0x70>
40082fb6:	00          	.byte 00
40082fb7:	00          	.byte 00
40082fb8:	00          	.byte 00
40082fb9:	002342        	l32i	a4, a3, 0
40082fbc:	266242        	s32i	a4, a2, 152
40082fbf:	272282        	l32i	a8, a2, 156
40082fc2:	029387        	bne	a3, a8, 40082fc8 <work_queue_main+0x30>
40082fc5:	276242        	s32i	a4, a2, 156
40082fc8:	2c2242        	l32i	a4, a2, 176
40082fcb:	280c      	movi.n	a8, 2
40082fcd:	204480        	or	a4, a4, a8
40082fd0:	2c6242        	s32i	a4, a2, 176
40082fd3:	3388      	l32i.n	a8, a3, 12
40082fd5:	140c      	movi.n	a4, 1
40082fd7:	20a840        	or	a10, a8, a4
40082fda:	33a9      	s32i.n	a10, a3, 12
40082fdc:	ba7c      	movi.n	a10, -5
40082fde:	1088a0        	and	a8, a8, a10
40082fe1:	208840        	or	a8, a8, a4
40082fe4:	3389      	s32i.n	a8, a3, 12
40082fe6:	1348      	l32i.n	a4, a3, 4
40082fe8:	13e690        	wsr.ps	a9
40082feb:	002010        	rsync
40082fee:	20a330        	or	a10, a3, a3
40082ff1:	0004e0        	callx8	a4
40082ff4:	006340        	rsil	a4, 3
40082ff7:	3388      	l32i.n	a8, a3, 12
40082ff9:	e97c      	movi.n	a9, -2
40082ffb:	108890        	and	a8, a8, a9
40082ffe:	3389      	s32i.n	a8, a3, 12
40083000:	366817        	bbci	a8, 1, 4008303a <work_queue_main+0xa2>
40083003:	000b46        	j	40083034 <work_queue_main+0x9c>
40083006:	00          	.byte 00
40083007:	00          	.byte 00
40083008:	a8a032        	movi	a3, 168
4008300b:	323a      	add.n	a3, a2, a3
4008300d:	00a0c2        	movi	a12, 0
40083010:	01a0b2        	movi	a11, 1
40083013:	03ad      	mov.n	a10, a3
40083015:	ff7c25        	call8	400827d8 <z_sched_wake>
40083018:	ff1a56        	bnez	a10, 4008300d <work_queue_main+0x75>
4008301b:	ff7c      	movi.n	a15, -1
4008301d:	030c      	movi.n	a3, 0
4008301f:	0139      	s32i.n	a3, a1, 0
40083021:	0fed      	mov.n	a14, a15
40083023:	a0a0c2        	movi	a12, 160
40083026:	c2ca      	add.n	a12, a2, a12
40083028:	04bd      	mov.n	a11, a4
4008302a:	f5a0a1        	l32r	a10, 400806ac <_init_end+0x2ac> (3ffc1f38 <isr_connected$0>)
4008302d:	ff7e65        	call8	40082814 <z_sched_wait>
40083030:	ffd9c6        	j	40082f9b <work_queue_main+0x3>
40083033:	00          	.byte 00
40083034:	20a330        	or	a10, a3, a3
40083037:	fff065        	call8	40082f3c <finalize_cancel_locked>
4008303a:	2c2232        	l32i	a3, a2, 176
4008303d:	fdaf82        	movi	a8, -3
40083040:	103380        	and	a3, a3, a8
40083043:	2c6232        	s32i	a3, a2, 176
40083046:	043830        	extui	a3, a3, 8, 1
40083049:	13e640        	wsr.ps	a4
4008304c:	002010        	rsync
4008304f:	f48356        	bnez	a3, 40082f9b <work_queue_main+0x3>
40083052:	ff58e5        	call8	400825e0 <z_impl_k_yield>
40083055:	ffd086        	j	40082f9b <work_queue_main+0x3>

40083058 <z_work_submit_to_queue>:
40083058:	006136        	entry	a1, 48
4008305b:	0129      	s32i.n	a2, a1, 0
4008305d:	03ad      	mov.n	a10, a3
4008305f:	006320        	rsil	a2, 3
40083062:	20b110        	or	a11, a1, a1
40083065:	ffe7a5        	call8	40082ee0 <submit_to_queue_locked>
40083068:	13e620        	wsr.ps	a2
4008306b:	002010        	rsync
4008306e:	0a2d      	mov.n	a2, a10
40083070:	f01d      	retw.n
	...

40083074 <k_work_queue_start>:
40083074:	008136        	entry	a1, 64
40083077:	03bd      	mov.n	a11, a3
40083079:	04cd      	mov.n	a12, a4
4008307b:	080c      	movi.n	a8, 0
4008307d:	266282        	s32i	a8, a2, 152
40083080:	276282        	s32i	a8, a2, 156
40083083:	a0a082        	movi	a8, 160
40083086:	828a      	add.n	a8, a2, a8
40083088:	286282        	s32i	a8, a2, 160
4008308b:	296282        	s32i	a8, a2, 164
4008308e:	a8a082        	movi	a8, 168
40083091:	828a      	add.n	a8, a2, a8
40083093:	2a6282        	s32i	a8, a2, 168
40083096:	2b6282        	s32i	a8, a2, 172
40083099:	868c      	beqz.n	a6, 400830a5 <k_work_queue_start+0x31>
4008309b:	040682        	l8ui	a8, a6, 4
4008309e:	b8cc      	bnez.n	a8, 400830ad <k_work_queue_start+0x39>
400830a0:	180c      	movi.n	a8, 1
400830a2:	000286        	j	400830b0 <k_work_queue_start+0x3c>
400830a5:	180c      	movi.n	a8, 1
400830a7:	000146        	j	400830b0 <k_work_queue_start+0x3c>
400830aa:	00          	.byte 00
400830ab:	00          	.byte 00
400830ac:	00          	.byte 00
400830ad:	01a182        	movi	a8, 0x101
400830b0:	2c6282        	s32i	a8, a2, 176
400830b3:	ffaf82        	movi	a8, -1
400830b6:	4189      	s32i.n	a8, a1, 16
400830b8:	5189      	s32i.n	a8, a1, 20
400830ba:	0f0c      	movi.n	a15, 0
400830bc:	21f9      	s32i.n	a15, a1, 8
400830be:	1159      	s32i.n	a5, a1, 4
400830c0:	01f9      	s32i.n	a15, a1, 0
400830c2:	02ed      	mov.n	a14, a2
400830c4:	f57bd1        	l32r	a13, 400806b0 <_init_end+0x2b0> (40082f98 <work_queue_main>)
400830c7:	02ad      	mov.n	a10, a2
400830c9:	fecb65        	call8	40081d80 <z_impl_k_thread_create>
400830cc:	768c      	beqz.n	a6, 400830d7 <k_work_queue_start+0x63>
400830ce:	06b8      	l32i.n	a11, a6, 0
400830d0:	3b8c      	beqz.n	a11, 400830d7 <k_work_queue_start+0x63>
400830d2:	02ad      	mov.n	a10, a2
400830d4:	febd25        	call8	40081ca8 <z_impl_k_thread_name_set>
400830d7:	02ad      	mov.n	a10, a2
400830d9:	febf25        	call8	40081ccc <z_impl_k_thread_start>
400830dc:	f01d      	retw.n
	...

400830e0 <z_device_is_ready>:
400830e0:	004136        	entry	a1, 32
400830e3:	b29c      	beqz.n	a2, 40083102 <z_device_is_ready+0x22>
400830e5:	3228      	l32i.n	a2, a2, 12
400830e7:	010282        	l8ui	a8, a2, 1
400830ea:	0a6807        	bbci	a8, 0, 400830f8 <z_device_is_ready+0x18>
400830ed:	000222        	l8ui	a2, a2, 0
400830f0:	928c      	beqz.n	a2, 400830fd <z_device_is_ready+0x1d>
400830f2:	020c      	movi.n	a2, 0
400830f4:	000306        	j	40083104 <z_device_is_ready+0x24>
400830f7:	00          	.byte 00
400830f8:	020c      	movi.n	a2, 0
400830fa:	000186        	j	40083104 <z_device_is_ready+0x24>
400830fd:	120c      	movi.n	a2, 1
400830ff:	000046        	j	40083104 <z_device_is_ready+0x24>
40083102:	020c      	movi.n	a2, 0
40083104:	f01d      	retw.n
	...

40083108 <arch_system_halt>:
40083108:	004136        	entry	a1, 32
4008310b:	006380        	rsil	a8, 3
4008310e:	ffff06        	j	4008310e <arch_system_halt+0x6>
40083111:	000000        	ill

40083114 <setup_thread_stack>:
40083114:	004136        	entry	a1, 32
40083117:	44fb      	addi.n	a4, a4, 15
40083119:	087c      	movi.n	a8, -16
4008311b:	104480        	and	a4, a4, a8
4008311e:	1f6232        	s32i	a3, a2, 124
40083121:	206242        	s32i	a4, a2, 128
40083124:	080c      	movi.n	a8, 0
40083126:	216282        	s32i	a8, a2, 132
40083129:	234a      	add.n	a2, a3, a4
4008312b:	f01d      	retw.n
4008312d:	000000        	ill

40083130 <k_is_in_isr>:
40083130:	004136        	entry	a1, 32
40083133:	03f520        	rsr.misc1	a2
40083136:	0298      	l32i.n	a9, a2, 0
40083138:	120c      	movi.n	a2, 1
4008313a:	080c      	movi.n	a8, 0
4008313c:	832890        	moveqz	a2, a8, a9
4008313f:	f01d      	retw.n
40083141:	000000        	ill

40083144 <k_thread_name_get>:
40083144:	004136        	entry	a1, 32
40083147:	58c222        	addi	a2, a2, 88
4008314a:	f01d      	retw.n

4008314c <z_init_thread_base>:
4008314c:	004136        	entry	a1, 32
4008314f:	080c      	movi.n	a8, 0
40083151:	2289      	s32i.n	a8, a2, 8
40083153:	0c4252        	s8i	a5, a2, 12
40083156:	0d4242        	s8i	a4, a2, 13
40083159:	0e4232        	s8i	a3, a2, 14
4008315c:	0f4282        	s8i	a8, a2, 15
4008315f:	6289      	s32i.n	a8, a2, 24
40083161:	7289      	s32i.n	a8, a2, 28
40083163:	f01d      	retw.n
40083165:	000000        	ill

40083168 <thread_active_elsewhere>:
40083168:	004136        	entry	a1, 32
4008316b:	020c      	movi.n	a2, 0
4008316d:	f01d      	retw.n
	...

40083170 <pended_on_thread>:
40083170:	004136        	entry	a1, 32
40083173:	2228      	l32i.n	a2, a2, 8
40083175:	f01d      	retw.n
	...

40083178 <z_sched_prio_cmp>:
40083178:	004136        	entry	a1, 32
4008317b:	0e0282        	l8ui	a8, a2, 14
4008317e:	238800        	sext	a8, a8, 7
40083181:	0e0322        	l8ui	a2, a3, 14
40083184:	232200        	sext	a2, a2, 7
40083187:	051827        	beq	a8, a2, 40083190 <z_sched_prio_cmp+0x18>
4008318a:	c02280        	sub	a2, a2, a8
4008318d:	000046        	j	40083192 <z_sched_prio_cmp+0x1a>
40083190:	020c      	movi.n	a2, 0
40083192:	f01d      	retw.n

40083194 <z_priq_dumb_remove>:
40083194:	004136        	entry	a1, 32
40083197:	1398      	l32i.n	a9, a3, 4
40083199:	0388      	l32i.n	a8, a3, 0
4008319b:	0989      	s32i.n	a8, a9, 0
4008319d:	1899      	s32i.n	a9, a8, 4
4008319f:	080c      	movi.n	a8, 0
400831a1:	0389      	s32i.n	a8, a3, 0
400831a3:	1389      	s32i.n	a8, a3, 4
400831a5:	f01d      	retw.n
	...

400831a8 <z_priq_dumb_best>:
400831a8:	004136        	entry	a1, 32
400831ab:	0288      	l32i.n	a8, a2, 0
400831ad:	019287        	bne	a2, a8, 400831b2 <z_priq_dumb_best+0xa>
400831b0:	080c      	movi.n	a8, 0
400831b2:	082d      	mov.n	a2, a8
400831b4:	f01d      	retw.n
	...

400831b8 <init_ready_q>:
400831b8:	004136        	entry	a1, 32
400831bb:	824b      	addi.n	a8, a2, 4
400831bd:	1289      	s32i.n	a8, a2, 4
400831bf:	2289      	s32i.n	a8, a2, 8
400831c1:	f01d      	retw.n
	...

400831c4 <poller_thread>:
400831c4:	004136        	entry	a1, 32
400831c7:	128c      	beqz.n	a2, 400831cc <poller_thread+0x8>
400831c9:	c0c222        	addi	a2, a2, -64
400831cc:	f01d      	retw.n
	...

400831d0 <sys_slist_remove>:
400831d0:	004136        	entry	a1, 32
400831d3:	e3cc      	bnez.n	a3, 400831e5 <sys_slist_remove+0x15>
400831d5:	0438      	l32i.n	a3, a4, 0
400831d7:	0239      	s32i.n	a3, a2, 0
400831d9:	1288      	l32i.n	a8, a2, 4
400831db:	119487        	bne	a4, a8, 400831f0 <sys_slist_remove+0x20>
400831de:	1239      	s32i.n	a3, a2, 4
400831e0:	000306        	j	400831f0 <sys_slist_remove+0x20>
400831e3:	00          	.byte 00
400831e4:	00          	.byte 00
400831e5:	0488      	l32i.n	a8, a4, 0
400831e7:	0389      	s32i.n	a8, a3, 0
400831e9:	1288      	l32i.n	a8, a2, 4
400831eb:	019487        	bne	a4, a8, 400831f0 <sys_slist_remove+0x20>
400831ee:	1239      	s32i.n	a3, a2, 4
400831f0:	020c      	movi.n	a2, 0
400831f2:	0429      	s32i.n	a2, a4, 0
400831f4:	f01d      	retw.n
	...

400831f8 <xthal_window_spill_nw>:
400831f8:	034820        	rsr.windowbase	a2
400831fb:	221b      	addi.n	a2, a2, 1
400831fd:	400200        	ssr	a2
40083200:	034930        	rsr.windowstart	a3
40083203:	912030        	srl	a2, a3
40083206:	a13300        	sll	a3, a3
40083209:	0bf3d6        	bgez	a3, 400832cc <xthal_window_spill_nw+0xd4>
4008320c:	f53030        	extui	a3, a3, 16, 16
4008320f:	202230        	or	a2, a2, a3
40083212:	603020        	neg	a3, a2
40083215:	103320        	and	a3, a3, a2
40083218:	40f330        	nsau	a3, a3
4008321b:	401300        	ssl	a3
4008321e:	912020        	srl	a2, a2
40083221:	134920        	wsr.windowstart	a2
40083224:	034820        	rsr.windowbase	a2
40083227:	1fc222        	addi	a2, a2, 31
4008322a:	c03230        	sub	a3, a2, a3
4008322d:	134830        	wsr.windowbase	a3
40083230:	002010        	rsync
40083233:	034920        	rsr.windowstart	a2
40083236:	07a216        	beqz	a2, 400832b4 <xthal_window_spill_nw+0xbc>
40083239:	08e207        	bbsi	a2, 0, 40083245 <xthal_window_spill_nw+0x4d>
4008323c:	19e217        	bbsi	a2, 1, 40083259 <xthal_window_spill_nw+0x61>
4008323f:	3ae227        	bbsi	a2, 2, 4008327d <xthal_window_spill_nw+0x85>
40083242:	002306        	j	400832d2 <xthal_window_spill_nw+0xda>
40083245:	f0c932        	addi	a3, a9, -16
40083248:	0349      	s32i.n	a4, a3, 0
4008324a:	1359      	s32i.n	a5, a3, 4
4008324c:	2369      	s32i.n	a6, a3, 8
4008324e:	3379      	s32i.n	a7, a3, 12
40083250:	416120        	srli	a6, a2, 1
40083253:	408010        	rotw	1
40083256:	fff706        	j	40083236 <xthal_window_spill_nw+0x3e>
40083259:	f0cd32        	addi	a3, a13, -16
4008325c:	0349      	s32i.n	a4, a3, 0
4008325e:	1359      	s32i.n	a5, a3, 4
40083260:	2369      	s32i.n	a6, a3, 8
40083262:	3379      	s32i.n	a7, a3, 12
40083264:	f4c532        	addi	a3, a5, -12
40083267:	0338      	l32i.n	a3, a3, 0
40083269:	e0c332        	addi	a3, a3, -32
4008326c:	0389      	s32i.n	a8, a3, 0
4008326e:	1399      	s32i.n	a9, a3, 4
40083270:	23a9      	s32i.n	a10, a3, 8
40083272:	33b9      	s32i.n	a11, a3, 12
40083274:	41a220        	srli	a10, a2, 2
40083277:	408020        	rotw	2
4008327a:	ffee06        	j	40083236 <xthal_window_spill_nw+0x3e>
4008327d:	408010        	rotw	1
40083280:	f0cdd2        	addi	a13, a13, -16
40083283:	0d09      	s32i.n	a0, a13, 0
40083285:	1d19      	s32i.n	a1, a13, 4
40083287:	2d29      	s32i.n	a2, a13, 8
40083289:	3d39      	s32i.n	a3, a13, 12
4008328b:	f4c132        	addi	a3, a1, -12
4008328e:	0338      	l32i.n	a3, a3, 0
40083290:	10cdd2        	addi	a13, a13, 16
40083293:	d0c332        	addi	a3, a3, -48
40083296:	0349      	s32i.n	a4, a3, 0
40083298:	1359      	s32i.n	a5, a3, 4
4008329a:	2369      	s32i.n	a6, a3, 8
4008329c:	3379      	s32i.n	a7, a3, 12
4008329e:	4389      	s32i.n	a8, a3, 16
400832a0:	5399      	s32i.n	a9, a3, 20
400832a2:	63a9      	s32i.n	a10, a3, 24
400832a4:	73b9      	s32i.n	a11, a3, 28
400832a6:	4080f0        	rotw	-1
400832a9:	41e320        	srli	a14, a2, 3
400832ac:	408030        	rotw	3
400832af:	ffe0c6        	j	40083236 <xthal_window_spill_nw+0x3e>
400832b2:	00          	.byte 00
400832b3:	00          	.byte 00
400832b4:	408010        	rotw	1
400832b7:	034820        	rsr.windowbase	a2
400832ba:	401200        	ssl	a2
400832bd:	120c      	movi.n	a2, 1
400832bf:	a12200        	sll	a2, a2
400832c2:	134920        	wsr.windowstart	a2
400832c5:	002010        	rsync
400832c8:	020c      	movi.n	a2, 0
400832ca:	f00d      	ret.n
400832cc:	120c      	movi.n	a2, 1
400832ce:	f00d      	ret.n
400832d0:	00          	.byte 00
400832d1:	00          	.byte 00
400832d2:	1122f0        	slli	a2, a2, 1
400832d5:	221b      	addi.n	a2, a2, 1
400832d7:	034830        	rsr.windowbase	a3
400832da:	0ae2f7        	bbsi	a2, 15, 400832e8 <xthal_window_spill_nw+0xf0>
400832dd:	330b      	addi.n	a3, a3, -1
400832df:	1122f0        	slli	a2, a2, 1
400832e2:	f762f7        	bbci	a2, 15, 400832dd <xthal_window_spill_nw+0xe5>
400832e5:	343030        	extui	a3, a3, 0, 4
400832e8:	401300        	ssl	a3
400832eb:	113200        	slli	a3, a2, 16
400832ee:	812230        	src	a2, a2, a3
400832f1:	f42020        	extui	a2, a2, 0, 16
400832f4:	134920        	wsr.windowstart	a2
400832f7:	030330        	rsr.sar	a3
400832fa:	022c      	movi.n	a2, 32
400832fc:	c03230        	sub	a3, a2, a3
400832ff:	134830        	wsr.windowbase	a3
40083302:	002010        	rsync
40083305:	220c      	movi.n	a2, 2
40083307:	f00d      	ret.n
40083309:	000000        	ill

4008330c <xthal_window_spill>:
4008330c:	002136        	entry	a1, 16
4008330f:	f4e961        	l32r	a6, 400806b4 <_init_end+0x2b4> (fffbfff0 <_rtc_bss_end+0xaffbfff0>)
40083312:	03e650        	rsr.ps	a5
40083315:	004d      	mov.n	a4, a0
40083317:	102560        	and	a2, a5, a6
4008331a:	223b      	addi.n	a2, a2, 3
4008331c:	13e620        	wsr.ps	a2
4008331f:	002010        	rsync
40083322:	ffed45        	call0	400831f8 <xthal_window_spill_nw>
40083325:	040d      	mov.n	a0, a4
40083327:	13e650        	wsr.ps	a5
4008332a:	002010        	rsync
4008332d:	f01d      	retw.n
	...

40083330 <esp_log_early_timestamp>:
40083330:	004136        	entry	a1, 32
40083333:	ff88e5        	call8	40082bc0 <z_impl_k_uptime_ticks>
40083336:	202aa0        	or	a2, a10, a10
40083339:	f4cdc1        	l32r	a12, 40080670 <_init_end+0x270> (fffffff <CONFIG_SYS_CLOCK_HW_CYCLES_PER_SEC+0x1b1e3ff>)
4008333c:	108ca0        	and	a8, a12, a10
4008333f:	11dbc0        	slli	a13, a11, 4
40083342:	359ca0        	extui	a9, a10, 28, 4
40083345:	209d90        	or	a9, a13, a9
40083348:	1099c0        	and	a9, a9, a12
4008334b:	808890        	add	a8, a8, a9
4008334e:	7598b0        	extui	a9, a11, 24, 8
40083351:	808890        	add	a8, a8, a9
40083354:	f4c891        	l32r	a9, 40080674 <_init_end+0x274> (cccccccd <_rtc_bss_end+0x7ccccccd>)
40083357:	a29890        	muluh	a9, a8, a9
4008335a:	419290        	srli	a9, a9, 2
4008335d:	a09990        	addx4	a9, a9, a9
40083360:	c08890        	sub	a8, a8, a9
40083363:	c0aa80        	sub	a10, a10, a8
40083366:	180c      	movi.n	a8, 1
40083368:	0132a7        	bltu	a2, a10, 4008336d <esp_log_early_timestamp+0x3d>
4008336b:	080c      	movi.n	a8, 0
4008336d:	c0bb80        	sub	a11, a11, a8
40083370:	f4c181        	l32r	a8, 40080674 <_init_end+0x274> (cccccccd <_rtc_bss_end+0x7ccccccd>)
40083373:	82bb80        	mull	a11, a11, a8
40083376:	f4c021        	l32r	a2, 40080678 <_init_end+0x278> (cccccccc <_rtc_bss_end+0x7ccccccc>)
40083379:	822a20        	mull	a2, a10, a2
4008337c:	bb2a      	add.n	a11, a11, a2
4008337e:	822a80        	mull	a2, a10, a8
40083381:	a2aa80        	muluh	a10, a10, a8
40083384:	abaa      	add.n	a10, a11, a10
40083386:	01aa10        	slli	a10, a10, 31
40083389:	412120        	srli	a2, a2, 1
4008338c:	202a20        	or	a2, a10, a2
4008338f:	f01d      	retw.n
40083391:	000000        	ill

40083394 <sys_clock_driver_init>:
40083394:	004136        	entry	a1, 32
40083397:	001065        	call8	4008349c <ccount>
4008339a:	f4c781        	l32r	a8, 400806b8 <_init_end+0x2b8> (5dc0 <_image_irom_size+0x78>)
4008339d:	80aa80        	add	a10, a10, a8
400833a0:	000f25        	call8	40083494 <set_ccompare>
400833a3:	03e480        	rsr.intenable	a8
400833a6:	40a092        	movi	a9, 64
400833a9:	208890        	or	a8, a8, a9
400833ac:	13e480        	wsr.intenable	a8
400833af:	002010        	rsync
400833b2:	020c      	movi.n	a2, 0
400833b4:	f01d      	retw.n
	...

400833b8 <ccompare_isr>:
400833b8:	004136        	entry	a1, 32
400833bb:	006320        	rsil	a2, 3
400833be:	000de5        	call8	4008349c <ccount>
400833c1:	f4beb1        	l32r	a11, 400806bc <_init_end+0x2bc> (3ffc1ef8 <last_count>)
400833c4:	002b82        	l32i	a8, a11, 0
400833c7:	c0aa80        	sub	a10, a10, a8
400833ca:	f4bd91        	l32r	a9, 400806c0 <_init_end+0x2c0> (57619f1 <CONFIG_FLASH_SIZE+0x53619f1>)
400833cd:	a2aa90        	muluh	a10, a10, a9
400833d0:	41a9a0        	srli	a10, a10, 9
400833d3:	f4b991        	l32r	a9, 400806b8 <_init_end+0x2b8> (5dc0 <_image_irom_size+0x78>)
400833d6:	829a90        	mull	a9, a10, a9
400833d9:	808890        	add	a8, a8, a9
400833dc:	006b82        	s32i	a8, a11, 0
400833df:	13e620        	wsr.ps	a2
400833e2:	002010        	rsync
400833e5:	ff6b65        	call8	40082a9c <sys_clock_announce>
400833e8:	f01d      	retw.n
	...

400833ec <sys_clock_set_timeout>:
400833ec:	004136        	entry	a1, 32
400833ef:	060226        	beqi	a2, -1, 400833f9 <sys_clock_set_timeout+0xd>
400833f2:	0622e6        	bgei	a2, 2, 400833fc <sys_clock_set_timeout+0x10>
400833f5:	000386        	j	40083407 <sys_clock_set_timeout+0x1b>
400833f8:	00          	.byte 00
400833f9:	f4b221        	l32r	a2, 400806c4 <_init_end+0x2c4> (2bb0b <_image_irom_start+0x12217>)
400833fc:	f4b231        	l32r	a3, 400806c4 <_init_end+0x2c4> (2bb0b <_image_irom_start+0x12217>)
400833ff:	092327        	blt	a3, a2, 4008340c <sys_clock_set_timeout+0x20>
40083402:	220b      	addi.n	a2, a2, -1
40083404:	0001c6        	j	4008340f <sys_clock_set_timeout+0x23>
40083407:	020c      	movi.n	a2, 0
40083409:	000086        	j	4008340f <sys_clock_set_timeout+0x23>
4008340c:	f4ae21        	l32r	a2, 400806c4 <_init_end+0x2c4> (2bb0b <_image_irom_start+0x12217>)
4008340f:	006330        	rsil	a3, 3
40083412:	0008a5        	call8	4008349c <ccount>
40083415:	f4a881        	l32r	a8, 400806b8 <_init_end+0x2b8> (5dc0 <_image_irom_size+0x78>)
40083418:	822280        	mull	a2, a2, a8
4008341b:	f4a881        	l32r	a8, 400806bc <_init_end+0x2bc> (3ffc1ef8 <last_count>)
4008341e:	002882        	l32i	a8, a8, 0
40083421:	c09a80        	sub	a9, a10, a8
40083424:	f4a9b1        	l32r	a11, 400806c8 <_init_end+0x2c8> (5dbf <_image_irom_size+0x77>)
40083427:	8099b0        	add	a9, a9, a11
4008342a:	ffafb2        	movi	a11, -1
4008342d:	30bb90        	xor	a11, a11, a9
40083430:	043b27        	bltu	a11, a2, 40083438 <sys_clock_set_timeout+0x4c>
40083433:	229a      	add.n	a2, a2, a9
40083435:	000046        	j	4008343a <sys_clock_set_timeout+0x4e>
40083438:	f27c      	movi.n	a2, -1
4008343a:	f4a191        	l32r	a9, 400806c0 <_init_end+0x2c0> (57619f1 <CONFIG_FLASH_SIZE+0x53619f1>)
4008343d:	a22290        	muluh	a2, a2, a9
40083440:	412920        	srli	a2, a2, 9
40083443:	f49d91        	l32r	a9, 400806b8 <_init_end+0x2b8> (5dc0 <_image_irom_size+0x78>)
40083446:	822290        	mull	a2, a2, a9
40083449:	282a      	add.n	a2, a8, a2
4008344b:	c0a2a0        	sub	a10, a2, a10
4008344e:	e7a382        	movi	a8, 0x3e7
40083451:	0138a7        	bltu	a8, a10, 40083456 <sys_clock_set_timeout+0x6a>
40083454:	229a      	add.n	a2, a2, a9
40083456:	02ad      	mov.n	a10, a2
40083458:	0003a5        	call8	40083494 <set_ccompare>
4008345b:	13e630        	wsr.ps	a3
4008345e:	002010        	rsync
40083461:	f01d      	retw.n
	...

40083464 <sys_clock_elapsed>:
40083464:	004136        	entry	a1, 32
40083467:	006330        	rsil	a3, 3
4008346a:	000325        	call8	4008349c <ccount>
4008346d:	f49321        	l32r	a2, 400806bc <_init_end+0x2bc> (3ffc1ef8 <last_count>)
40083470:	0288      	l32i.n	a8, a2, 0
40083472:	c02a80        	sub	a2, a10, a8
40083475:	f49281        	l32r	a8, 400806c0 <_init_end+0x2c0> (57619f1 <CONFIG_FLASH_SIZE+0x53619f1>)
40083478:	a22280        	muluh	a2, a2, a8
4008347b:	412920        	srli	a2, a2, 9
4008347e:	13e630        	wsr.ps	a3
40083481:	002010        	rsync
40083484:	f01d      	retw.n
	...

40083488 <sys_clock_cycle_get_32>:
40083488:	004136        	entry	a1, 32
4008348b:	000125        	call8	4008349c <ccount>
4008348e:	0a2d      	mov.n	a2, a10
40083490:	f01d      	retw.n
	...

40083494 <set_ccompare>:
40083494:	004136        	entry	a1, 32
40083497:	13f020        	wsr.ccompare0	a2
4008349a:	f01d      	retw.n

4008349c <ccount>:
4008349c:	004136        	entry	a1, 32
4008349f:	03ea20        	rsr.ccount	a2
400834a2:	f01d      	retw.n

400834a4 <extract_flags>:
400834a4:	004136        	entry	a1, 32
400834a7:	190c      	movi.n	a9, 1
400834a9:	000382        	l8ui	a8, a3, 0
400834ac:	e0c882        	addi	a8, a8, -32
400834af:	74a080        	extui	a10, a8, 0, 8
400834b2:	0b1c      	movi.n	a11, 16
400834b4:	563ba7        	bltu	a11, a10, 4008350e <extract_flags+0x6a>
400834b7:	0a8d      	mov.n	a8, a10
400834b9:	f484a1        	l32r	a10, 400806cc <_init_end+0x2cc> (3ffc0688 <levels$0+0x1c>)
400834bc:	a088a0        	addx4	a8, a8, a10
400834bf:	0888      	l32i.n	a8, a8, 0
400834c1:	0008a0        	jx	a8
400834c4:	001282        	l16ui	a8, a2, 0
400834c7:	4a0c      	movi.n	a10, 4
400834c9:	2088a0        	or	a8, a8, a10
400834cc:	005282        	s16i	a8, a2, 0
400834cf:	000d06        	j	40083507 <extract_flags+0x63>
400834d2:	001282        	l16ui	a8, a2, 0
400834d5:	8a0c      	movi.n	a10, 8
400834d7:	2088a0        	or	a8, a8, a10
400834da:	005282        	s16i	a8, a2, 0
400834dd:	000986        	j	40083507 <extract_flags+0x63>
400834e0:	001282        	l16ui	a8, a2, 0
400834e3:	0a1c      	movi.n	a10, 16
400834e5:	2088a0        	or	a8, a8, a10
400834e8:	005282        	s16i	a8, a2, 0
400834eb:	000606        	j	40083507 <extract_flags+0x63>
400834ee:	001282        	l16ui	a8, a2, 0
400834f1:	0a2c      	movi.n	a10, 32
400834f3:	2088a0        	or	a8, a8, a10
400834f6:	005282        	s16i	a8, a2, 0
400834f9:	000286        	j	40083507 <extract_flags+0x63>
400834fc:	001282        	l16ui	a8, a2, 0
400834ff:	0a4c      	movi.n	a10, 64
40083501:	2088a0        	or	a8, a8, a10
40083504:	005282        	s16i	a8, a2, 0
40083507:	598c      	beqz.n	a9, 40083510 <extract_flags+0x6c>
40083509:	331b      	addi.n	a3, a3, 1
4008350b:	000046        	j	40083510 <extract_flags+0x6c>
4008350e:	090c      	movi.n	a9, 0
40083510:	f95956        	bnez	a9, 400834a9 <extract_flags+0x5>
40083513:	494c      	movi.n	a9, 68
40083515:	0288      	l32i.n	a8, a2, 0
40083517:	108980        	and	a8, a9, a8
4008351a:	0b9897        	bne	a8, a9, 40083529 <extract_flags+0x85>
4008351d:	001282        	l16ui	a8, a2, 0
40083520:	bfaf92        	movi	a9, -65
40083523:	108890        	and	a8, a8, a9
40083526:	005282        	s16i	a8, a2, 0
40083529:	032d      	mov.n	a2, a3
4008352b:	f01d      	retw.n
4008352d:	000000        	ill

40083530 <extract_width>:
40083530:	006136        	entry	a1, 48
40083533:	0139      	s32i.n	a3, a1, 0
40083535:	001282        	l16ui	a8, a2, 0
40083538:	80a032        	movi	a3, 128
4008353b:	208830        	or	a8, a8, a3
4008353e:	005282        	s16i	a8, a2, 0
40083541:	0138      	l32i.n	a3, a1, 0
40083543:	000392        	l8ui	a9, a3, 0
40083546:	a82c      	movi.n	a8, 42
40083548:	149987        	bne	a9, a8, 40083560 <extract_width+0x30>
4008354b:	001232        	l16ui	a3, a2, 0
4008354e:	00a182        	movi	a8, 0x100
40083551:	203380        	or	a3, a3, a8
40083554:	005232        	s16i	a3, a2, 0
40083557:	0128      	l32i.n	a2, a1, 0
40083559:	221b      	addi.n	a2, a2, 1
4008355b:	0129      	s32i.n	a2, a1, 0
4008355d:	000f86        	j	4008359f <extract_width+0x6f>
40083560:	20a110        	or	a10, a1, a1
40083563:	00b8e5        	call8	400840f0 <extract_decimal>
40083566:	002182        	l32i	a8, a1, 0
40083569:	301387        	beq	a3, a8, 4008359d <extract_width+0x6d>
4008356c:	001232        	l16ui	a3, a2, 0
4008356f:	80a082        	movi	a8, 128
40083572:	203380        	or	a3, a3, a8
40083575:	005232        	s16i	a3, a2, 0
40083578:	0162a2        	s32i	a10, a2, 4
4008357b:	0288      	l32i.n	a8, a2, 0
4008357d:	048180        	extui	a8, a8, 1, 1
40083580:	004ad6        	bgez	a10, 40083588 <extract_width+0x58>
40083583:	130c      	movi.n	a3, 1
40083585:	000046        	j	4008358a <extract_width+0x5a>
40083588:	030c      	movi.n	a3, 0
4008358a:	208830        	or	a8, a8, a3
4008358d:	888a      	add.n	a8, a8, a8
4008358f:	001292        	l16ui	a9, a2, 0
40083592:	d37c      	movi.n	a3, -3
40083594:	109930        	and	a9, a9, a3
40083597:	208980        	or	a8, a9, a8
4008359a:	005282        	s16i	a8, a2, 0
4008359d:	0128      	l32i.n	a2, a1, 0
4008359f:	f01d      	retw.n
400835a1:	000000        	ill

400835a4 <extract_prec>:
400835a4:	006136        	entry	a1, 48
400835a7:	0139      	s32i.n	a3, a1, 0
400835a9:	000392        	l8ui	a9, a3, 0
400835ac:	d2c992        	addi	a9, a9, -46
400835af:	180c      	movi.n	a8, 1
400835b1:	0a0c      	movi.n	a10, 0
400835b3:	938a90        	movnez	a8, a10, a9
400835b6:	74a080        	extui	a10, a8, 0, 8
400835b9:	118870        	slli	a8, a8, 9
400835bc:	001292        	l16ui	a9, a2, 0
400835bf:	ffadb2        	movi	a11, 0xfffffdff
400835c2:	1099b0        	and	a9, a9, a11
400835c5:	208980        	or	a8, a9, a8
400835c8:	005282        	s16i	a8, a2, 0
400835cb:	3acc      	bnez.n	a10, 400835d2 <extract_prec+0x2e>
400835cd:	0128      	l32i.n	a2, a1, 0
400835cf:	001406        	j	40083623 <extract_prec+0x7f>
400835d2:	0188      	l32i.n	a8, a1, 0
400835d4:	981b      	addi.n	a9, a8, 1
400835d6:	0199      	s32i.n	a9, a1, 0
400835d8:	010892        	l8ui	a9, a8, 1
400835db:	a82c      	movi.n	a8, 42
400835dd:	149987        	bne	a9, a8, 400835f5 <extract_prec+0x51>
400835e0:	001282        	l16ui	a8, a2, 0
400835e3:	00a492        	movi	a9, 0x400
400835e6:	208890        	or	a8, a8, a9
400835e9:	005282        	s16i	a8, a2, 0
400835ec:	0128      	l32i.n	a2, a1, 0
400835ee:	221b      	addi.n	a2, a2, 1
400835f0:	0129      	s32i.n	a2, a1, 0
400835f2:	000b46        	j	40083623 <extract_prec+0x7f>
400835f5:	20a110        	or	a10, a1, a1
400835f8:	00af65        	call8	400840f0 <extract_decimal>
400835fb:	0262a2        	s32i	a10, a2, 8
400835fe:	002282        	l32i	a8, a2, 0
40083601:	048180        	extui	a8, a8, 1, 1
40083604:	004ad6        	bgez	a10, 4008360c <extract_prec+0x68>
40083607:	190c      	movi.n	a9, 1
40083609:	000046        	j	4008360e <extract_prec+0x6a>
4008360c:	090c      	movi.n	a9, 0
4008360e:	208890        	or	a8, a8, a9
40083611:	888a      	add.n	a8, a8, a8
40083613:	001292        	l16ui	a9, a2, 0
40083616:	da7c      	movi.n	a10, -3
40083618:	1099a0        	and	a9, a9, a10
4008361b:	208980        	or	a8, a9, a8
4008361e:	005282        	s16i	a8, a2, 0
40083621:	0128      	l32i.n	a2, a1, 0
40083623:	f01d      	retw.n
40083625:	000000        	ill

40083628 <extract_length>:
40083628:	004136        	entry	a1, 32
4008362b:	029d      	mov.n	a9, a2
4008362d:	000382        	l8ui	a8, a3, 0
40083630:	b4c882        	addi	a8, a8, -76
40083633:	742080        	extui	a2, a8, 0, 8
40083636:	ea2c      	movi.n	a10, 46
40083638:	02ba27        	bgeu	a10, a2, 4008363e <extract_length+0x16>
4008363b:	003786        	j	4008371d <extract_length+0xf5>
4008363e:	028d      	mov.n	a8, a2
40083640:	f42421        	l32r	a2, 400806d0 <_init_end+0x2d0> (3ffc06cc <levels$0+0x60>)
40083643:	a08820        	addx4	a8, a8, a2
40083646:	0828      	l32i.n	a2, a8, 0
40083648:	0002a0        	jx	a2
4008364b:	231b      	addi.n	a2, a3, 1
4008364d:	0103a2        	l8ui	a10, a3, 1
40083650:	68a082        	movi	a8, 104
40083653:	169a87        	bne	a10, a8, 4008366d <extract_length+0x45>
40083656:	001922        	l16ui	a2, a9, 0
40083659:	f41e81        	l32r	a8, 400806d4 <_init_end+0x2d4> (ffff87ff <_rtc_bss_end+0xafff87ff>)
4008365c:	102280        	and	a2, a2, a8
4008365f:	f3b181        	l32r	a8, 40080524 <_init_end+0x124> (800 <CONFIG_ISR_STACK_SIZE>)
40083662:	202280        	or	a2, a2, a8
40083665:	005922        	s16i	a2, a9, 0
40083668:	232b      	addi.n	a2, a3, 2
4008366a:	002f46        	j	4008372b <extract_length+0x103>
4008366d:	001932        	l16ui	a3, a9, 0
40083670:	f41981        	l32r	a8, 400806d4 <_init_end+0x2d4> (ffff87ff <_rtc_bss_end+0xafff87ff>)
40083673:	103380        	and	a3, a3, a8
40083676:	f3a581        	l32r	a8, 4008050c <_init_end+0x10c> (1000 <CONFIG_HEAP_MEM_POOL_SIZE>)
40083679:	203380        	or	a3, a3, a8
4008367c:	005932        	s16i	a3, a9, 0
4008367f:	002a06        	j	4008372b <extract_length+0x103>
40083682:	231b      	addi.n	a2, a3, 1
40083684:	0103a2        	l8ui	a10, a3, 1
40083687:	6ca082        	movi	a8, 108
4008368a:	169a87        	bne	a10, a8, 400836a4 <extract_length+0x7c>
4008368d:	001922        	l16ui	a2, a9, 0
40083690:	f41181        	l32r	a8, 400806d4 <_init_end+0x2d4> (ffff87ff <_rtc_bss_end+0xafff87ff>)
40083693:	102280        	and	a2, a2, a8
40083696:	f39e81        	l32r	a8, 40080510 <_init_end+0x110> (2000 <CONFIG_HEAP_MEM_POOL_SIZE+0x1000>)
40083699:	202280        	or	a2, a2, a8
4008369c:	005922        	s16i	a2, a9, 0
4008369f:	232b      	addi.n	a2, a3, 2
400836a1:	002186        	j	4008372b <extract_length+0x103>
400836a4:	001932        	l16ui	a3, a9, 0
400836a7:	f40b81        	l32r	a8, 400806d4 <_init_end+0x2d4> (ffff87ff <_rtc_bss_end+0xafff87ff>)
400836aa:	103380        	and	a3, a3, a8
400836ad:	f40a81        	l32r	a8, 400806d8 <_init_end+0x2d8> (1800 <CONFIG_HEAP_MEM_POOL_SIZE+0x800>)
400836b0:	203380        	or	a3, a3, a8
400836b3:	005932        	s16i	a3, a9, 0
400836b6:	001c46        	j	4008372b <extract_length+0x103>
400836b9:	001922        	l16ui	a2, a9, 0
400836bc:	f40681        	l32r	a8, 400806d4 <_init_end+0x2d4> (ffff87ff <_rtc_bss_end+0xafff87ff>)
400836bf:	102280        	and	a2, a2, a8
400836c2:	f40681        	l32r	a8, 400806dc <_init_end+0x2dc> (2800 <CONFIG_SYS_CLOCK_TICKS_PER_SEC+0xf0>)
400836c5:	202280        	or	a2, a2, a8
400836c8:	005922        	s16i	a2, a9, 0
400836cb:	231b      	addi.n	a2, a3, 1
400836cd:	001686        	j	4008372b <extract_length+0x103>
400836d0:	001922        	l16ui	a2, a9, 0
400836d3:	f40081        	l32r	a8, 400806d4 <_init_end+0x2d4> (ffff87ff <_rtc_bss_end+0xafff87ff>)
400836d6:	102280        	and	a2, a2, a8
400836d9:	f39081        	l32r	a8, 4008051c <_init_end+0x11c> (3000 <CONFIG_SYS_CLOCK_TICKS_PER_SEC+0x8f0>)
400836dc:	202280        	or	a2, a2, a8
400836df:	005922        	s16i	a2, a9, 0
400836e2:	231b      	addi.n	a2, a3, 1
400836e4:	0010c6        	j	4008372b <extract_length+0x103>
400836e7:	001922        	l16ui	a2, a9, 0
400836ea:	f3fa81        	l32r	a8, 400806d4 <_init_end+0x2d4> (ffff87ff <_rtc_bss_end+0xafff87ff>)
400836ed:	102280        	and	a2, a2, a8
400836f0:	f3fc81        	l32r	a8, 400806e0 <_init_end+0x2e0> (3800 <CONFIG_SYS_CLOCK_TICKS_PER_SEC+0x10f0>)
400836f3:	202280        	or	a2, a2, a8
400836f6:	005922        	s16i	a2, a9, 0
400836f9:	231b      	addi.n	a2, a3, 1
400836fb:	000b06        	j	4008372b <extract_length+0x103>
400836fe:	001982        	l16ui	a8, a9, 0
40083701:	f3f421        	l32r	a2, 400806d4 <_init_end+0x2d4> (ffff87ff <_rtc_bss_end+0xafff87ff>)
40083704:	108820        	and	a8, a8, a2
40083707:	f3a221        	l32r	a2, 40080590 <_init_end+0x190> (4000 <CONFIG_COVERAGE_GCOV_HEAP_SIZE>)
4008370a:	208820        	or	a8, a8, a2
4008370d:	005982        	s16i	a8, a9, 0
40083710:	231b      	addi.n	a2, a3, 1
40083712:	230c      	movi.n	a3, 2
40083714:	208830        	or	a8, a8, a3
40083717:	005982        	s16i	a8, a9, 0
4008371a:	000346        	j	4008372b <extract_length+0x103>
4008371d:	001922        	l16ui	a2, a9, 0
40083720:	f3ed81        	l32r	a8, 400806d4 <_init_end+0x2d4> (ffff87ff <_rtc_bss_end+0xafff87ff>)
40083723:	102280        	and	a2, a2, a8
40083726:	005922        	s16i	a2, a9, 0
40083729:	032d      	mov.n	a2, a3
4008372b:	f01d      	retw.n
4008372d:	000000        	ill

40083730 <extract_specifier>:
40083730:	004136        	entry	a1, 32
40083733:	029d      	mov.n	a9, a2
40083735:	231b      	addi.n	a2, a3, 1
40083737:	000382        	l8ui	a8, a3, 0
4008373a:	034982        	s8i	a8, a9, 3
4008373d:	78a032        	movi	a3, 120
40083740:	02b387        	bgeu	a3, a8, 40083746 <extract_specifier+0x16>
40083743:	005546        	j	4008389c <extract_specifier+0x16c>
40083746:	6ea032        	movi	a3, 110
40083749:	2bb837        	bgeu	a8, a3, 40083778 <extract_specifier+0x48>
4008374c:	69a032        	movi	a3, 105
4008374f:	02b387        	bgeu	a3, a8, 40083755 <extract_specifier+0x25>
40083752:	005186        	j	4008389c <extract_specifier+0x16c>
40083755:	835c      	movi.n	a3, 88
40083757:	59b837        	bgeu	a8, a3, 400837b4 <extract_specifier+0x84>
4008375a:	134c      	movi.n	a3, 65
4008375c:	029837        	bne	a8, a3, 40083762 <extract_specifier+0x32>
4008375f:	003646        	j	4008383c <extract_specifier+0x10c>
40083762:	02b837        	bgeu	a8, a3, 40083768 <extract_specifier+0x38>
40083765:	004cc6        	j	4008389c <extract_specifier+0x16c>
40083768:	bbc882        	addi	a8, a8, -69
4008376b:	748080        	extui	a8, a8, 0, 8
4008376e:	0238f6        	bgeui	a8, 3, 40083774 <extract_specifier+0x44>
40083771:	0031c6        	j	4008383c <extract_specifier+0x10c>
40083774:	004906        	j	4008389c <extract_specifier+0x16c>
40083777:	00          	.byte 00
40083778:	92c8b2        	addi	a11, a8, -110
4008377b:	1a0c      	movi.n	a10, 1
4008377d:	401b00        	ssl	a11
40083780:	a13a00        	sll	a3, a10
40083783:	82a4b2        	movi	a11, 0x482
40083786:	10b3b0        	and	a11, a3, a11
40083789:	0c0c      	movi.n	a12, 0
4008378b:	83acb0        	moveqz	a10, a12, a11
4008378e:	74a0a0        	extui	a10, a10, 0, 8
40083791:	539ac7        	bne	a10, a12, 400837e8 <extract_specifier+0xb8>
40083794:	4b2c      	movi.n	a11, 36
40083796:	10b3b0        	and	a11, a3, a11
40083799:	180c      	movi.n	a8, 1
4008379b:	838cb0        	moveqz	a8, a12, a11
4008379e:	748080        	extui	a8, a8, 0, 8
400837a1:	0218c7        	beq	a8, a12, 400837a7 <extract_specifier+0x77>
400837a4:	003446        	j	40083879 <extract_specifier+0x149>
400837a7:	04b030        	extui	a11, a3, 0, 1
400837aa:	029bc7        	bne	a11, a12, 400837b0 <extract_specifier+0x80>
400837ad:	003ac6        	j	4008389c <extract_specifier+0x16c>
400837b0:	002746        	j	40083851 <extract_specifier+0x121>
400837b3:	00          	.byte 00
400837b4:	a8c8b2        	addi	a11, a8, -88
400837b7:	1a0c      	movi.n	a10, 1
400837b9:	401b00        	ssl	a11
400837bc:	a1aa00        	sll	a10, a10
400837bf:	f3c931        	l32r	a3, 400806e4 <_init_end+0x2e4> (e200 <CONFIG_ESP_HEAP_MEM_POOL_REGION_1_SIZE+0x2200>)
400837c2:	768a37        	bany	a10, a3, 4008383c <extract_specifier+0x10c>
400837c5:	f3c831        	l32r	a3, 400806e8 <_init_end+0x2e8> (801 <CONFIG_ISR_STACK_SIZE+0x1>)
400837c8:	1c8a37        	bany	a10, a3, 400837e8 <extract_specifier+0xb8>
400837cb:	f3c831        	l32r	a3, 400806ec <_init_end+0x2ec> (21000 <_image_irom_start+0x770c>)
400837ce:	028a37        	bany	a10, a3, 400837d4 <extract_specifier+0xa4>
400837d1:	0031c6        	j	4008389c <extract_specifier+0x16c>
400837d4:	020932        	l8ui	a3, a9, 2
400837d7:	8a7c      	movi.n	a10, -8
400837d9:	1033a0        	and	a3, a3, a10
400837dc:	1a0c      	movi.n	a10, 1
400837de:	2033a0        	or	a3, a3, a10
400837e1:	024932        	s8i	a3, a9, 2
400837e4:	000406        	j	400837f8 <extract_specifier+0xc8>
400837e7:	00          	.byte 00
400837e8:	020932        	l8ui	a3, a9, 2
400837eb:	8a7c      	movi.n	a10, -8
400837ed:	1033a0        	and	a3, a3, a10
400837f0:	2a0c      	movi.n	a10, 2
400837f2:	2033a0        	or	a3, a3, a10
400837f5:	024932        	s8i	a3, a9, 2
400837f8:	001932        	l16ui	a3, a9, 0
400837fb:	f3bda1        	l32r	a10, 400806f0 <_init_end+0x2f0> (7800 <_image_irom_size+0x1ab8>)
400837fe:	1033a0        	and	a3, a3, a10
40083801:	f43030        	extui	a3, a3, 0, 16
40083804:	f363a1        	l32r	a10, 40080590 <_init_end+0x190> (4000 <CONFIG_COVERAGE_GCOV_HEAP_SIZE>)
40083807:	f4a0a0        	extui	a10, a10, 0, 16
4008380a:	0a93a7        	bne	a3, a10, 40083818 <extract_specifier+0xe8>
4008380d:	001932        	l16ui	a3, a9, 0
40083810:	1a0c      	movi.n	a10, 1
40083812:	2033a0        	or	a3, a3, a10
40083815:	005932        	s16i	a3, a9, 0
40083818:	63a032        	movi	a3, 99
4008381b:	021837        	beq	a8, a3, 40083821 <extract_specifier+0xf1>
4008381e:	002286        	j	400838ac <extract_specifier+0x17c>
40083821:	001932        	l16ui	a3, a9, 0
40083824:	f3b381        	l32r	a8, 400806f0 <_init_end+0x2f0> (7800 <_image_irom_size+0x1ab8>)
40083827:	103380        	and	a3, a3, a8
4008382a:	f43030        	extui	a3, a3, 0, 16
4008382d:	180c      	movi.n	a8, 1
4008382f:	0a0c      	movi.n	a10, 0
40083831:	838a30        	moveqz	a8, a10, a3
40083834:	748080        	extui	a8, a8, 0, 8
40083837:	001e46        	j	400838b4 <extract_specifier+0x184>
4008383a:	00          	.byte 00
4008383b:	00          	.byte 00
4008383c:	020932        	l8ui	a3, a9, 2
4008383f:	887c      	movi.n	a8, -8
40083841:	103380        	and	a3, a3, a8
40083844:	480c      	movi.n	a8, 4
40083846:	203380        	or	a3, a3, a8
40083849:	024932        	s8i	a3, a9, 2
4008384c:	180c      	movi.n	a8, 1
4008384e:	001886        	j	400838b4 <extract_specifier+0x184>
40083851:	020932        	l8ui	a3, a9, 2
40083854:	8a7c      	movi.n	a10, -8
40083856:	1033a0        	and	a3, a3, a10
40083859:	3a0c      	movi.n	a10, 3
4008385b:	2033a0        	or	a3, a3, a10
4008385e:	024932        	s8i	a3, a9, 2
40083861:	001932        	l16ui	a3, a9, 0
40083864:	f3a3a1        	l32r	a10, 400806f0 <_init_end+0x2f0> (7800 <_image_irom_size+0x1ab8>)
40083867:	1033a0        	and	a3, a3, a10
4008386a:	f43030        	extui	a3, a3, 0, 16
4008386d:	f348a1        	l32r	a10, 40080590 <_init_end+0x190> (4000 <CONFIG_COVERAGE_GCOV_HEAP_SIZE>)
40083870:	f4a0a0        	extui	a10, a10, 0, 16
40083873:	3d93a7        	bne	a3, a10, 400838b4 <extract_specifier+0x184>
40083876:	000e06        	j	400838b2 <extract_specifier+0x182>
40083879:	020932        	l8ui	a3, a9, 2
4008387c:	8b7c      	movi.n	a11, -8
4008387e:	1033b0        	and	a3, a3, a11
40083881:	3b0c      	movi.n	a11, 3
40083883:	2033b0        	or	a3, a3, a11
40083886:	024932        	s8i	a3, a9, 2
40083889:	001932        	l16ui	a3, a9, 0
4008388c:	f399b1        	l32r	a11, 400806f0 <_init_end+0x2f0> (7800 <_image_irom_size+0x1ab8>)
4008388f:	1033b0        	and	a3, a3, a11
40083892:	f43030        	extui	a3, a3, 0, 16
40083895:	b3dc      	bnez.n	a3, 400838b4 <extract_specifier+0x184>
40083897:	0a8d      	mov.n	a8, a10
40083899:	0005c6        	j	400838b4 <extract_specifier+0x184>
4008389c:	001932        	l16ui	a3, a9, 0
4008389f:	180c      	movi.n	a8, 1
400838a1:	203380        	or	a3, a3, a8
400838a4:	005932        	s16i	a3, a9, 0
400838a7:	080c      	movi.n	a8, 0
400838a9:	0001c6        	j	400838b4 <extract_specifier+0x184>
400838ac:	080c      	movi.n	a8, 0
400838ae:	000086        	j	400838b4 <extract_specifier+0x184>
400838b1:	00          	.byte 00
400838b2:	0b8d      	mov.n	a8, a11
400838b4:	09a8      	l32i.n	a10, a9, 0
400838b6:	04a1a0        	extui	a10, a10, 1, 1
400838b9:	2088a0        	or	a8, a8, a10
400838bc:	888a      	add.n	a8, a8, a8
400838be:	0019a2        	l16ui	a10, a9, 0
400838c1:	d37c      	movi.n	a3, -3
400838c3:	10aa30        	and	a10, a10, a3
400838c6:	208a80        	or	a8, a10, a8
400838c9:	005982        	s16i	a8, a9, 0
400838cc:	f01d      	retw.n
	...

400838d0 <extract_conversion>:
400838d0:	004136        	entry	a1, 32
400838d3:	024d      	mov.n	a4, a2
400838d5:	020c      	movi.n	a2, 0
400838d7:	0429      	s32i.n	a2, a4, 0
400838d9:	1429      	s32i.n	a2, a4, 4
400838db:	2429      	s32i.n	a2, a4, 8
400838dd:	b31b      	addi.n	a11, a3, 1
400838df:	010382        	l8ui	a8, a3, 1
400838e2:	522c      	movi.n	a2, 37
400838e4:	089827        	bne	a8, a2, 400838f0 <extract_conversion+0x20>
400838e7:	232b      	addi.n	a2, a3, 2
400838e9:	034482        	s8i	a8, a4, 3
400838ec:	000986        	j	40083916 <extract_conversion+0x46>
400838ef:	00          	.byte 00
400838f0:	20a440        	or	a10, a4, a4
400838f3:	ffbb25        	call8	400834a4 <extract_flags>
400838f6:	20baa0        	or	a11, a10, a10
400838f9:	20a440        	or	a10, a4, a4
400838fc:	ffc325        	call8	40083530 <extract_width>
400838ff:	0abd      	mov.n	a11, a10
40083901:	04ad      	mov.n	a10, a4
40083903:	ffca25        	call8	400835a4 <extract_prec>
40083906:	0abd      	mov.n	a11, a10
40083908:	04ad      	mov.n	a10, a4
4008390a:	ffd1e5        	call8	40083628 <extract_length>
4008390d:	0abd      	mov.n	a11, a10
4008390f:	04ad      	mov.n	a10, a4
40083911:	ffe1e5        	call8	40083730 <extract_specifier>
40083914:	0a2d      	mov.n	a2, a10
40083916:	f01d      	retw.n

40083918 <encode_uint>:
40083918:	006136        	entry	a1, 48
4008391b:	026142        	s32i	a4, a1, 8
4008391e:	006152        	s32i	a5, a1, 0
40083921:	0304a2        	l8ui	a10, a4, 3
40083924:	bfca42        	addi	a4, a10, -65
40083927:	016142        	s32i	a4, a1, 4
4008392a:	007ee5        	call8	40084118 <conversion_radix>
4008392d:	0a5d      	mov.n	a5, a10
4008392f:	0000c6        	j	40083936 <encode_uint+0x1e>
40083932:	0a2d      	mov.n	a2, a10
40083934:	0b3d      	mov.n	a3, a11
40083936:	057d      	mov.n	a7, a5
40083938:	040c      	movi.n	a4, 0
4008393a:	05cd      	mov.n	a12, a5
4008393c:	04dd      	mov.n	a13, a4
4008393e:	02ad      	mov.n	a10, a2
40083940:	03bd      	mov.n	a11, a3
40083942:	f36c81        	l32r	a8, 400806f4 <_init_end+0x2f4> (4000d280 <__umoddi3>)
40083945:	0008e0        	callx8	a8
40083948:	980c      	movi.n	a8, 9
4008394a:	0b38a7        	bltu	a8, a10, 40083959 <encode_uint+0x41>
4008394d:	74a0a0        	extui	a10, a10, 0, 8
40083950:	30caa2        	addi	a10, a10, 48
40083953:	74a0a0        	extui	a10, a10, 0, 8
40083956:	0006c6        	j	40083975 <encode_uint+0x5d>
40083959:	981c      	movi.n	a8, 25
4008395b:	1198      	l32i.n	a9, a1, 4
4008395d:	0b3897        	bltu	a8, a9, 4008396c <encode_uint+0x54>
40083960:	74a0a0        	extui	a10, a10, 0, 8
40083963:	37caa2        	addi	a10, a10, 55
40083966:	74a0a0        	extui	a10, a10, 0, 8
40083969:	000206        	j	40083975 <encode_uint+0x5d>
4008396c:	74a0a0        	extui	a10, a10, 0, 8
4008396f:	57caa2        	addi	a10, a10, 87
40083972:	74a0a0        	extui	a10, a10, 0, 8
40083975:	660b      	addi.n	a6, a6, -1
40083977:	0046a2        	s8i	a10, a6, 0
4008397a:	05cd      	mov.n	a12, a5
4008397c:	04dd      	mov.n	a13, a4
4008397e:	20a220        	or	a10, a2, a2
40083981:	03bd      	mov.n	a11, a3
40083983:	f34281        	l32r	a8, 4008068c <_init_end+0x28c> (4000cff8 <__udivdi3>)
40083986:	0008e0        	callx8	a8
40083989:	180c      	movi.n	a8, 1
4008398b:	053347        	bltu	a3, a4, 40083994 <encode_uint+0x7c>
4008398e:	049437        	bne	a4, a3, 40083996 <encode_uint+0x7e>
40083991:	01b277        	bgeu	a2, a7, 40083996 <encode_uint+0x7e>
40083994:	080c      	movi.n	a8, 0
40083996:	748080        	extui	a8, a8, 0, 8
40083999:	120c      	movi.n	a2, 1
4008399b:	002132        	l32i	a3, a1, 0
4008399e:	023367        	bltu	a3, a6, 400839a4 <encode_uint+0x8c>
400839a1:	00a022        	movi	a2, 0
400839a4:	742020        	extui	a2, a2, 0, 8
400839a7:	188c      	beqz.n	a8, 400839ac <encode_uint+0x94>
400839a9:	f85256        	bnez	a2, 40083932 <encode_uint+0x1a>
400839ac:	2148      	l32i.n	a4, a1, 8
400839ae:	001422        	l16ui	a2, a4, 0
400839b1:	032c      	movi.n	a3, 32
400839b3:	102230        	and	a2, a2, a3
400839b6:	f42020        	extui	a2, a2, 0, 16
400839b9:	12ac      	beqz.n	a2, 400839de <encode_uint+0xc6>
400839bb:	0d8566        	bnei	a5, 8, 400839cc <encode_uint+0xb4>
400839be:	020422        	l8ui	a2, a4, 2
400839c1:	830c      	movi.n	a3, 8
400839c3:	202230        	or	a2, a2, a3
400839c6:	024422        	s8i	a2, a4, 2
400839c9:	000446        	j	400839de <encode_uint+0xc6>
400839cc:	0eb566        	bnei	a5, 16, 400839de <encode_uint+0xc6>
400839cf:	2138      	l32i.n	a3, a1, 8
400839d1:	020322        	l8ui	a2, a3, 2
400839d4:	031c      	movi.n	a3, 16
400839d6:	202230        	or	a2, a2, a3
400839d9:	2148      	l32i.n	a4, a1, 8
400839db:	024422        	s8i	a2, a4, 2
400839de:	062d      	mov.n	a2, a6
400839e0:	f01d      	retw.n
	...

400839e4 <store_count>:
400839e4:	004136        	entry	a1, 32
400839e7:	0288      	l32i.n	a8, a2, 0
400839e9:	348b80        	extui	a8, a8, 11, 4
400839ec:	3c88f6        	bgeui	a8, 8, 40083a2c <store_count+0x48>
400839ef:	f34291        	l32r	a9, 400806f8 <_init_end+0x2f8> (3ffc0788 <levels$0+0x11c>)
400839f2:	a08890        	addx4	a8, a8, a9
400839f5:	0888      	l32i.n	a8, a8, 0
400839f7:	0008a0        	jx	a8
400839fa:	0349      	s32i.n	a4, a3, 0
400839fc:	000b06        	j	40083a2c <store_count+0x48>
400839ff:	004342        	s8i	a4, a3, 0
40083a02:	000986        	j	40083a2c <store_count+0x48>
40083a05:	005342        	s16i	a4, a3, 0
40083a08:	000806        	j	40083a2c <store_count+0x48>
40083a0b:	0349      	s32i.n	a4, a3, 0
40083a0d:	0006c6        	j	40083a2c <store_count+0x48>
40083a10:	318f40        	srai	a8, a4, 31
40083a13:	0349      	s32i.n	a4, a3, 0
40083a15:	1389      	s32i.n	a8, a3, 4
40083a17:	000446        	j	40083a2c <store_count+0x48>
40083a1a:	318f40        	srai	a8, a4, 31
40083a1d:	0349      	s32i.n	a4, a3, 0
40083a1f:	1389      	s32i.n	a8, a3, 4
40083a21:	0001c6        	j	40083a2c <store_count+0x48>
40083a24:	00          	.byte 00
40083a25:	0349      	s32i.n	a4, a3, 0
40083a27:	000046        	j	40083a2c <store_count+0x48>
40083a2a:	0349      	s32i.n	a4, a3, 0
40083a2c:	f01d      	retw.n
	...

40083a30 <z_cbvprintf_impl>:
40083a30:	00e136        	entry	a1, 112
40083a33:	c159      	s32i.n	a5, a1, 48
40083a35:	d169      	s32i.n	a6, a1, 52
40083a37:	e179      	s32i.n	a7, a1, 56
40083a39:	050c      	movi.n	a5, 0
40083a3b:	01a946        	j	400840e4 <z_cbvprintf_impl+0x6b4>
40083a3e:	562c      	movi.n	a6, 37
40083a40:	101a67        	beq	a10, a6, 40083a54 <z_cbvprintf_impl+0x24>
40083a43:	01c442        	addi	a4, a4, 1
40083a46:	20b330        	or	a11, a3, a3
40083a49:	0002e0        	callx8	a2
40083a4c:	69ca96        	bltz	a10, 400840ec <z_cbvprintf_impl+0x6bc>
40083a4f:	551b      	addi.n	a5, a5, 1
40083a51:	01a3c6        	j	400840e4 <z_cbvprintf_impl+0x6b4>
40083a54:	00a062        	movi	a6, 0
40083a57:	066162        	s32i	a6, a1, 24
40083a5a:	076162        	s32i	a6, a1, 28
40083a5d:	8169      	s32i.n	a6, a1, 32
40083a5f:	9169      	s32i.n	a6, a1, 36
40083a61:	a169      	s32i.n	a6, a1, 40
40083a63:	b169      	s32i.n	a6, a1, 44
40083a65:	04bd      	mov.n	a11, a4
40083a67:	20c1a2        	addi	a10, a1, 32
40083a6a:	ffe665        	call8	400838d0 <extract_conversion>
40083a6d:	1061a2        	s32i	a10, a1, 64
40083a70:	101162        	l16ui	a6, a1, 32
40083a73:	396687        	bbci	a6, 8, 40083ab0 <z_cbvprintf_impl+0x80>
40083a76:	e178      	l32i.n	a7, a1, 56
40083a78:	674b      	addi.n	a6, a7, 4
40083a7a:	e169      	s32i.n	a6, a1, 56
40083a7c:	881c      	movi.n	a8, 24
40083a7e:	042867        	blt	a8, a6, 40083a86 <z_cbvprintf_impl+0x56>
40083a81:	d168      	l32i.n	a6, a1, 52
40083a83:	0002c6        	j	40083a92 <z_cbvprintf_impl+0x62>
40083a86:	861c      	movi.n	a6, 24
40083a88:	042677        	blt	a6, a7, 40083a90 <z_cbvprintf_impl+0x60>
40083a8b:	462c      	movi.n	a6, 36
40083a8d:	0e6162        	s32i	a6, a1, 56
40083a90:	c168      	l32i.n	a6, a1, 48
40083a92:	e178      	l32i.n	a7, a1, 56
40083a94:	667a      	add.n	a6, a6, a7
40083a96:	fcc662        	addi	a6, a6, -4
40083a99:	0668      	l32i.n	a6, a6, 0
40083a9b:	01d6d6        	bgez	a6, 40083abc <z_cbvprintf_impl+0x8c>
40083a9e:	101172        	l16ui	a7, a1, 32
40083aa1:	480c      	movi.n	a8, 4
40083aa3:	207780        	or	a7, a7, a8
40083aa6:	105172        	s16i	a7, a1, 32
40083aa9:	606060        	neg	a6, a6
40083aac:	000306        	j	40083abc <z_cbvprintf_impl+0x8c>
40083aaf:	00          	.byte 00
40083ab0:	066677        	bbci	a6, 7, 40083aba <z_cbvprintf_impl+0x8a>
40083ab3:	9168      	l32i.n	a6, a1, 36
40083ab5:	0000c6        	j	40083abc <z_cbvprintf_impl+0x8c>
40083ab8:	00          	.byte 00
40083ab9:	00          	.byte 00
40083aba:	f67c      	movi.n	a6, -1
40083abc:	101172        	l16ui	a7, a1, 32
40083abf:	3d67a7        	bbci	a7, 10, 40083b00 <z_cbvprintf_impl+0xd0>
40083ac2:	e188      	l32i.n	a8, a1, 56
40083ac4:	784b      	addi.n	a7, a8, 4
40083ac6:	e179      	s32i.n	a7, a1, 56
40083ac8:	891c      	movi.n	a9, 24
40083aca:	042977        	blt	a9, a7, 40083ad2 <z_cbvprintf_impl+0xa2>
40083acd:	d178      	l32i.n	a7, a1, 52
40083acf:	0002c6        	j	40083ade <z_cbvprintf_impl+0xae>
40083ad2:	871c      	movi.n	a7, 24
40083ad4:	042787        	blt	a7, a8, 40083adc <z_cbvprintf_impl+0xac>
40083ad7:	472c      	movi.n	a7, 36
40083ad9:	0e6172        	s32i	a7, a1, 56
40083adc:	c178      	l32i.n	a7, a1, 48
40083ade:	e188      	l32i.n	a8, a1, 56
40083ae0:	778a      	add.n	a7, a7, a8
40083ae2:	fcc772        	addi	a7, a7, -4
40083ae5:	0788      	l32i.n	a8, a7, 0
40083ae7:	f189      	s32i.n	a8, a1, 60
40083ae9:	0218d6        	bgez	a8, 40083b0e <z_cbvprintf_impl+0xde>
40083aec:	101172        	l16ui	a7, a1, 32
40083aef:	ffad82        	movi	a8, 0xfffffdff
40083af2:	107780        	and	a7, a7, a8
40083af5:	105172        	s16i	a7, a1, 32
40083af8:	f97c      	movi.n	a9, -1
40083afa:	f199      	s32i.n	a9, a1, 60
40083afc:	000386        	j	40083b0e <z_cbvprintf_impl+0xde>
40083aff:	00          	.byte 00
40083b00:	066797        	bbci	a7, 9, 40083b0a <z_cbvprintf_impl+0xda>
40083b03:	a188      	l32i.n	a8, a1, 40
40083b05:	f189      	s32i.n	a8, a1, 60
40083b07:	0000c6        	j	40083b0e <z_cbvprintf_impl+0xde>
40083b0a:	f97c      	movi.n	a9, -1
40083b0c:	f199      	s32i.n	a9, a1, 60
40083b0e:	070c      	movi.n	a7, 0
40083b10:	9179      	s32i.n	a7, a1, 36
40083b12:	a179      	s32i.n	a7, a1, 40
40083b14:	8178      	l32i.n	a7, a1, 32
40083b16:	258070        	extui	a8, a7, 16, 3
40083b19:	347b70        	extui	a7, a7, 11, 4
40083b1c:	079d      	mov.n	a9, a7
40083b1e:	021826        	beqi	a8, 1, 40083b24 <z_cbvprintf_impl+0xf4>
40083b21:	004cc6        	j	40083c58 <z_cbvprintf_impl+0x228>
40083b24:	025766        	bnei	a7, 5, 40083b2a <z_cbvprintf_impl+0xfa>
40083b27:	0029c6        	j	40083bd2 <z_cbvprintf_impl+0x1a2>
40083b2a:	0867f6        	bgeui	a7, 6, 40083b36 <z_cbvprintf_impl+0x106>
40083b2d:	3f3726        	beqi	a7, 3, 40083b70 <z_cbvprintf_impl+0x140>
40083b30:	6a4726        	beqi	a7, 4, 40083b9e <z_cbvprintf_impl+0x16e>
40083b33:	000286        	j	40083b41 <z_cbvprintf_impl+0x111>
40083b36:	77ab      	addi.n	a7, a7, 10
40083b38:	347070        	extui	a7, a7, 0, 4
40083b3b:	0227f6        	bgeui	a7, 2, 40083b41 <z_cbvprintf_impl+0x111>
40083b3e:	003106        	j	40083c06 <z_cbvprintf_impl+0x1d6>
40083b41:	e188      	l32i.n	a8, a1, 56
40083b43:	784b      	addi.n	a7, a8, 4
40083b45:	e179      	s32i.n	a7, a1, 56
40083b47:	8a1c      	movi.n	a10, 24
40083b49:	042a77        	blt	a10, a7, 40083b51 <z_cbvprintf_impl+0x121>
40083b4c:	d178      	l32i.n	a7, a1, 52
40083b4e:	000286        	j	40083b5c <z_cbvprintf_impl+0x12c>
40083b51:	871c      	movi.n	a7, 24
40083b53:	032787        	blt	a7, a8, 40083b5a <z_cbvprintf_impl+0x12a>
40083b56:	472c      	movi.n	a7, 36
40083b58:	e179      	s32i.n	a7, a1, 56
40083b5a:	c178      	l32i.n	a7, a1, 48
40083b5c:	e188      	l32i.n	a8, a1, 56
40083b5e:	778a      	add.n	a7, a7, a8
40083b60:	fcc772        	addi	a7, a7, -4
40083b63:	0778      	l32i.n	a7, a7, 0
40083b65:	318f70        	srai	a8, a7, 31
40083b68:	6179      	s32i.n	a7, a1, 24
40083b6a:	7189      	s32i.n	a8, a1, 28
40083b6c:	003086        	j	40083c32 <z_cbvprintf_impl+0x202>
40083b6f:	00          	.byte 00
40083b70:	e188      	l32i.n	a8, a1, 56
40083b72:	784b      	addi.n	a7, a8, 4
40083b74:	e179      	s32i.n	a7, a1, 56
40083b76:	8a1c      	movi.n	a10, 24
40083b78:	042a77        	blt	a10, a7, 40083b80 <z_cbvprintf_impl+0x150>
40083b7b:	d178      	l32i.n	a7, a1, 52
40083b7d:	000286        	j	40083b8b <z_cbvprintf_impl+0x15b>
40083b80:	871c      	movi.n	a7, 24
40083b82:	032787        	blt	a7, a8, 40083b89 <z_cbvprintf_impl+0x159>
40083b85:	472c      	movi.n	a7, 36
40083b87:	e179      	s32i.n	a7, a1, 56
40083b89:	c178      	l32i.n	a7, a1, 48
40083b8b:	e188      	l32i.n	a8, a1, 56
40083b8d:	778a      	add.n	a7, a7, a8
40083b8f:	fcc772        	addi	a7, a7, -4
40083b92:	0778      	l32i.n	a7, a7, 0
40083b94:	318f70        	srai	a8, a7, 31
40083b97:	6179      	s32i.n	a7, a1, 24
40083b99:	7189      	s32i.n	a8, a1, 28
40083b9b:	0024c6        	j	40083c32 <z_cbvprintf_impl+0x202>
40083b9e:	e178      	l32i.n	a7, a1, 56
40083ba0:	777b      	addi.n	a7, a7, 7
40083ba2:	887c      	movi.n	a8, -8
40083ba4:	107780        	and	a7, a7, a8
40083ba7:	878b      	addi.n	a8, a7, 8
40083ba9:	e189      	s32i.n	a8, a1, 56
40083bab:	8a1c      	movi.n	a10, 24
40083bad:	042a87        	blt	a10, a8, 40083bb5 <z_cbvprintf_impl+0x185>
40083bb0:	d178      	l32i.n	a7, a1, 52
40083bb2:	000286        	j	40083bc0 <z_cbvprintf_impl+0x190>
40083bb5:	881c      	movi.n	a8, 24
40083bb7:	032877        	blt	a8, a7, 40083bbe <z_cbvprintf_impl+0x18e>
40083bba:	872c      	movi.n	a7, 40
40083bbc:	e179      	s32i.n	a7, a1, 56
40083bbe:	c178      	l32i.n	a7, a1, 48
40083bc0:	e188      	l32i.n	a8, a1, 56
40083bc2:	778a      	add.n	a7, a7, a8
40083bc4:	f8c772        	addi	a7, a7, -8
40083bc7:	07a8      	l32i.n	a10, a7, 0
40083bc9:	17b8      	l32i.n	a11, a7, 4
40083bcb:	61a9      	s32i.n	a10, a1, 24
40083bcd:	71b9      	s32i.n	a11, a1, 28
40083bcf:	0017c6        	j	40083c32 <z_cbvprintf_impl+0x202>
40083bd2:	e178      	l32i.n	a7, a1, 56
40083bd4:	777b      	addi.n	a7, a7, 7
40083bd6:	887c      	movi.n	a8, -8
40083bd8:	107780        	and	a7, a7, a8
40083bdb:	878b      	addi.n	a8, a7, 8
40083bdd:	e189      	s32i.n	a8, a1, 56
40083bdf:	8a1c      	movi.n	a10, 24
40083be1:	042a87        	blt	a10, a8, 40083be9 <z_cbvprintf_impl+0x1b9>
40083be4:	d178      	l32i.n	a7, a1, 52
40083be6:	000286        	j	40083bf4 <z_cbvprintf_impl+0x1c4>
40083be9:	881c      	movi.n	a8, 24
40083beb:	032877        	blt	a8, a7, 40083bf2 <z_cbvprintf_impl+0x1c2>
40083bee:	872c      	movi.n	a7, 40
40083bf0:	e179      	s32i.n	a7, a1, 56
40083bf2:	c178      	l32i.n	a7, a1, 48
40083bf4:	e188      	l32i.n	a8, a1, 56
40083bf6:	778a      	add.n	a7, a7, a8
40083bf8:	f8c772        	addi	a7, a7, -8
40083bfb:	07a8      	l32i.n	a10, a7, 0
40083bfd:	17b8      	l32i.n	a11, a7, 4
40083bff:	61a9      	s32i.n	a10, a1, 24
40083c01:	71b9      	s32i.n	a11, a1, 28
40083c03:	000ac6        	j	40083c32 <z_cbvprintf_impl+0x202>
40083c06:	e188      	l32i.n	a8, a1, 56
40083c08:	784b      	addi.n	a7, a8, 4
40083c0a:	e179      	s32i.n	a7, a1, 56
40083c0c:	8a1c      	movi.n	a10, 24
40083c0e:	042a77        	blt	a10, a7, 40083c16 <z_cbvprintf_impl+0x1e6>
40083c11:	d178      	l32i.n	a7, a1, 52
40083c13:	0002c6        	j	40083c22 <z_cbvprintf_impl+0x1f2>
40083c16:	871c      	movi.n	a7, 24
40083c18:	042787        	blt	a7, a8, 40083c20 <z_cbvprintf_impl+0x1f0>
40083c1b:	472c      	movi.n	a7, 36
40083c1d:	0e6172        	s32i	a7, a1, 56
40083c20:	c178      	l32i.n	a7, a1, 48
40083c22:	e188      	l32i.n	a8, a1, 56
40083c24:	778a      	add.n	a7, a7, a8
40083c26:	fcc772        	addi	a7, a7, -4
40083c29:	0778      	l32i.n	a7, a7, 0
40083c2b:	318f70        	srai	a8, a7, 31
40083c2e:	6179      	s32i.n	a7, a1, 24
40083c30:	7189      	s32i.n	a8, a1, 28
40083c32:	0e1966        	bnei	a9, 1, 40083c44 <z_cbvprintf_impl+0x214>
40083c35:	6178      	l32i.n	a7, a1, 24
40083c37:	237700        	sext	a7, a7, 7
40083c3a:	318f70        	srai	a8, a7, 31
40083c3d:	6179      	s32i.n	a7, a1, 24
40083c3f:	7189      	s32i.n	a8, a1, 28
40083c41:	008746        	j	40083e62 <z_cbvprintf_impl+0x432>
40083c44:	022926        	beqi	a9, 2, 40083c4a <z_cbvprintf_impl+0x21a>
40083c47:	0085c6        	j	40083e62 <z_cbvprintf_impl+0x432>
40083c4a:	0c9172        	l16si	a7, a1, 24
40083c4d:	318f70        	srai	a8, a7, 31
40083c50:	6179      	s32i.n	a7, a1, 24
40083c52:	7189      	s32i.n	a8, a1, 28
40083c54:	008286        	j	40083e62 <z_cbvprintf_impl+0x432>
40083c57:	00          	.byte 00
40083c58:	022826        	beqi	a8, 2, 40083c5e <z_cbvprintf_impl+0x22e>
40083c5b:	005a46        	j	40083dc8 <z_cbvprintf_impl+0x398>
40083c5e:	025766        	bnei	a7, 5, 40083c64 <z_cbvprintf_impl+0x234>
40083c61:	003846        	j	40083d46 <z_cbvprintf_impl+0x316>
40083c64:	0c67f6        	bgeui	a7, 6, 40083c74 <z_cbvprintf_impl+0x244>
40083c67:	423726        	beqi	a7, 3, 40083cad <z_cbvprintf_impl+0x27d>
40083c6a:	024766        	bnei	a7, 4, 40083c70 <z_cbvprintf_impl+0x240>
40083c6d:	002846        	j	40083d12 <z_cbvprintf_impl+0x2e2>
40083c70:	0002c6        	j	40083c7f <z_cbvprintf_impl+0x24f>
40083c73:	00          	.byte 00
40083c74:	77ab      	addi.n	a7, a7, 10
40083c76:	347070        	extui	a7, a7, 0, 4
40083c79:	0227f6        	bgeui	a7, 2, 40083c7f <z_cbvprintf_impl+0x24f>
40083c7c:	003e86        	j	40083d7a <z_cbvprintf_impl+0x34a>
40083c7f:	e188      	l32i.n	a8, a1, 56
40083c81:	784b      	addi.n	a7, a8, 4
40083c83:	e179      	s32i.n	a7, a1, 56
40083c85:	8a1c      	movi.n	a10, 24
40083c87:	052a77        	blt	a10, a7, 40083c90 <z_cbvprintf_impl+0x260>
40083c8a:	d178      	l32i.n	a7, a1, 52
40083c8c:	0002c6        	j	40083c9b <z_cbvprintf_impl+0x26b>
40083c8f:	00          	.byte 00
40083c90:	871c      	movi.n	a7, 24
40083c92:	032787        	blt	a7, a8, 40083c99 <z_cbvprintf_impl+0x269>
40083c95:	472c      	movi.n	a7, 36
40083c97:	e179      	s32i.n	a7, a1, 56
40083c99:	c178      	l32i.n	a7, a1, 48
40083c9b:	e188      	l32i.n	a8, a1, 56
40083c9d:	778a      	add.n	a7, a7, a8
40083c9f:	fcc772        	addi	a7, a7, -4
40083ca2:	0778      	l32i.n	a7, a7, 0
40083ca4:	6179      	s32i.n	a7, a1, 24
40083ca6:	070c      	movi.n	a7, 0
40083ca8:	7179      	s32i.n	a7, a1, 28
40083caa:	003dc6        	j	40083da5 <z_cbvprintf_impl+0x375>
40083cad:	230182        	l8ui	a8, a1, 35
40083cb0:	63a072        	movi	a7, 99
40083cb3:	2e9877        	bne	a8, a7, 40083ce5 <z_cbvprintf_impl+0x2b5>
40083cb6:	e188      	l32i.n	a8, a1, 56
40083cb8:	784b      	addi.n	a7, a8, 4
40083cba:	e179      	s32i.n	a7, a1, 56
40083cbc:	8a1c      	movi.n	a10, 24
40083cbe:	042a77        	blt	a10, a7, 40083cc6 <z_cbvprintf_impl+0x296>
40083cc1:	d178      	l32i.n	a7, a1, 52
40083cc3:	0002c6        	j	40083cd2 <z_cbvprintf_impl+0x2a2>
40083cc6:	871c      	movi.n	a7, 24
40083cc8:	042787        	blt	a7, a8, 40083cd0 <z_cbvprintf_impl+0x2a0>
40083ccb:	472c      	movi.n	a7, 36
40083ccd:	0e6172        	s32i	a7, a1, 56
40083cd0:	c178      	l32i.n	a7, a1, 48
40083cd2:	e188      	l32i.n	a8, a1, 56
40083cd4:	778a      	add.n	a7, a7, a8
40083cd6:	fcc772        	addi	a7, a7, -4
40083cd9:	001772        	l16ui	a7, a7, 0
40083cdc:	6179      	s32i.n	a7, a1, 24
40083cde:	070c      	movi.n	a7, 0
40083ce0:	7179      	s32i.n	a7, a1, 28
40083ce2:	002fc6        	j	40083da5 <z_cbvprintf_impl+0x375>
40083ce5:	e188      	l32i.n	a8, a1, 56
40083ce7:	784b      	addi.n	a7, a8, 4
40083ce9:	e179      	s32i.n	a7, a1, 56
40083ceb:	8a1c      	movi.n	a10, 24
40083ced:	042a77        	blt	a10, a7, 40083cf5 <z_cbvprintf_impl+0x2c5>
40083cf0:	d178      	l32i.n	a7, a1, 52
40083cf2:	000286        	j	40083d00 <z_cbvprintf_impl+0x2d0>
40083cf5:	871c      	movi.n	a7, 24
40083cf7:	032787        	blt	a7, a8, 40083cfe <z_cbvprintf_impl+0x2ce>
40083cfa:	472c      	movi.n	a7, 36
40083cfc:	e179      	s32i.n	a7, a1, 56
40083cfe:	c178      	l32i.n	a7, a1, 48
40083d00:	e188      	l32i.n	a8, a1, 56
40083d02:	778a      	add.n	a7, a7, a8
40083d04:	fcc772        	addi	a7, a7, -4
40083d07:	0778      	l32i.n	a7, a7, 0
40083d09:	6179      	s32i.n	a7, a1, 24
40083d0b:	070c      	movi.n	a7, 0
40083d0d:	7179      	s32i.n	a7, a1, 28
40083d0f:	002486        	j	40083da5 <z_cbvprintf_impl+0x375>
40083d12:	e178      	l32i.n	a7, a1, 56
40083d14:	777b      	addi.n	a7, a7, 7
40083d16:	887c      	movi.n	a8, -8
40083d18:	107780        	and	a7, a7, a8
40083d1b:	878b      	addi.n	a8, a7, 8
40083d1d:	e189      	s32i.n	a8, a1, 56
40083d1f:	8a1c      	movi.n	a10, 24
40083d21:	042a87        	blt	a10, a8, 40083d29 <z_cbvprintf_impl+0x2f9>
40083d24:	d178      	l32i.n	a7, a1, 52
40083d26:	000286        	j	40083d34 <z_cbvprintf_impl+0x304>
40083d29:	881c      	movi.n	a8, 24
40083d2b:	032877        	blt	a8, a7, 40083d32 <z_cbvprintf_impl+0x302>
40083d2e:	872c      	movi.n	a7, 40
40083d30:	e179      	s32i.n	a7, a1, 56
40083d32:	c178      	l32i.n	a7, a1, 48
40083d34:	e188      	l32i.n	a8, a1, 56
40083d36:	778a      	add.n	a7, a7, a8
40083d38:	f8c772        	addi	a7, a7, -8
40083d3b:	07a8      	l32i.n	a10, a7, 0
40083d3d:	17b8      	l32i.n	a11, a7, 4
40083d3f:	61a9      	s32i.n	a10, a1, 24
40083d41:	71b9      	s32i.n	a11, a1, 28
40083d43:	001786        	j	40083da5 <z_cbvprintf_impl+0x375>
40083d46:	e178      	l32i.n	a7, a1, 56
40083d48:	777b      	addi.n	a7, a7, 7
40083d4a:	887c      	movi.n	a8, -8
40083d4c:	107780        	and	a7, a7, a8
40083d4f:	878b      	addi.n	a8, a7, 8
40083d51:	e189      	s32i.n	a8, a1, 56
40083d53:	8a1c      	movi.n	a10, 24
40083d55:	042a87        	blt	a10, a8, 40083d5d <z_cbvprintf_impl+0x32d>
40083d58:	d178      	l32i.n	a7, a1, 52
40083d5a:	000286        	j	40083d68 <z_cbvprintf_impl+0x338>
40083d5d:	881c      	movi.n	a8, 24
40083d5f:	032877        	blt	a8, a7, 40083d66 <z_cbvprintf_impl+0x336>
40083d62:	872c      	movi.n	a7, 40
40083d64:	e179      	s32i.n	a7, a1, 56
40083d66:	c178      	l32i.n	a7, a1, 48
40083d68:	e188      	l32i.n	a8, a1, 56
40083d6a:	778a      	add.n	a7, a7, a8
40083d6c:	f8c772        	addi	a7, a7, -8
40083d6f:	07a8      	l32i.n	a10, a7, 0
40083d71:	17b8      	l32i.n	a11, a7, 4
40083d73:	61a9      	s32i.n	a10, a1, 24
40083d75:	71b9      	s32i.n	a11, a1, 28
40083d77:	000a86        	j	40083da5 <z_cbvprintf_impl+0x375>
40083d7a:	e188      	l32i.n	a8, a1, 56
40083d7c:	784b      	addi.n	a7, a8, 4
40083d7e:	e179      	s32i.n	a7, a1, 56
40083d80:	8a1c      	movi.n	a10, 24
40083d82:	042a77        	blt	a10, a7, 40083d8a <z_cbvprintf_impl+0x35a>
40083d85:	d178      	l32i.n	a7, a1, 52
40083d87:	0002c6        	j	40083d96 <z_cbvprintf_impl+0x366>
40083d8a:	871c      	movi.n	a7, 24
40083d8c:	042787        	blt	a7, a8, 40083d94 <z_cbvprintf_impl+0x364>
40083d8f:	472c      	movi.n	a7, 36
40083d91:	0e6172        	s32i	a7, a1, 56
40083d94:	c178      	l32i.n	a7, a1, 48
40083d96:	e188      	l32i.n	a8, a1, 56
40083d98:	778a      	add.n	a7, a7, a8
40083d9a:	fcc772        	addi	a7, a7, -4
40083d9d:	0778      	l32i.n	a7, a7, 0
40083d9f:	6179      	s32i.n	a7, a1, 24
40083da1:	070c      	movi.n	a7, 0
40083da3:	7179      	s32i.n	a7, a1, 28
40083da5:	0b1966        	bnei	a9, 1, 40083db4 <z_cbvprintf_impl+0x384>
40083da8:	180172        	l8ui	a7, a1, 24
40083dab:	6179      	s32i.n	a7, a1, 24
40083dad:	070c      	movi.n	a7, 0
40083daf:	7179      	s32i.n	a7, a1, 28
40083db1:	002b46        	j	40083e62 <z_cbvprintf_impl+0x432>
40083db4:	022926        	beqi	a9, 2, 40083dba <z_cbvprintf_impl+0x38a>
40083db7:	0029c6        	j	40083e62 <z_cbvprintf_impl+0x432>
40083dba:	0c1172        	l16ui	a7, a1, 24
40083dbd:	6179      	s32i.n	a7, a1, 24
40083dbf:	070c      	movi.n	a7, 0
40083dc1:	7179      	s32i.n	a7, a1, 28
40083dc3:	0026c6        	j	40083e62 <z_cbvprintf_impl+0x432>
40083dc6:	00          	.byte 00
40083dc7:	00          	.byte 00
40083dc8:	6c4866        	bnei	a8, 4, 40083e38 <z_cbvprintf_impl+0x408>
40083dcb:	338766        	bnei	a7, 8, 40083e02 <z_cbvprintf_impl+0x3d2>
40083dce:	e178      	l32i.n	a7, a1, 56
40083dd0:	777b      	addi.n	a7, a7, 7
40083dd2:	887c      	movi.n	a8, -8
40083dd4:	107780        	and	a7, a7, a8
40083dd7:	878b      	addi.n	a8, a7, 8
40083dd9:	e189      	s32i.n	a8, a1, 56
40083ddb:	891c      	movi.n	a9, 24
40083ddd:	042987        	blt	a9, a8, 40083de5 <z_cbvprintf_impl+0x3b5>
40083de0:	d178      	l32i.n	a7, a1, 52
40083de2:	000286        	j	40083df0 <z_cbvprintf_impl+0x3c0>
40083de5:	881c      	movi.n	a8, 24
40083de7:	032877        	blt	a8, a7, 40083dee <z_cbvprintf_impl+0x3be>
40083dea:	872c      	movi.n	a7, 40
40083dec:	e179      	s32i.n	a7, a1, 56
40083dee:	c178      	l32i.n	a7, a1, 48
40083df0:	e188      	l32i.n	a8, a1, 56
40083df2:	778a      	add.n	a7, a7, a8
40083df4:	f8c772        	addi	a7, a7, -8
40083df7:	0788      	l32i.n	a8, a7, 0
40083df9:	1798      	l32i.n	a9, a7, 4
40083dfb:	6189      	s32i.n	a8, a1, 24
40083dfd:	7199      	s32i.n	a9, a1, 28
40083dff:	0017c6        	j	40083e62 <z_cbvprintf_impl+0x432>
40083e02:	e178      	l32i.n	a7, a1, 56
40083e04:	777b      	addi.n	a7, a7, 7
40083e06:	887c      	movi.n	a8, -8
40083e08:	107780        	and	a7, a7, a8
40083e0b:	878b      	addi.n	a8, a7, 8
40083e0d:	e189      	s32i.n	a8, a1, 56
40083e0f:	891c      	movi.n	a9, 24
40083e11:	042987        	blt	a9, a8, 40083e19 <z_cbvprintf_impl+0x3e9>
40083e14:	d178      	l32i.n	a7, a1, 52
40083e16:	000286        	j	40083e24 <z_cbvprintf_impl+0x3f4>
40083e19:	881c      	movi.n	a8, 24
40083e1b:	032877        	blt	a8, a7, 40083e22 <z_cbvprintf_impl+0x3f2>
40083e1e:	872c      	movi.n	a7, 40
40083e20:	e179      	s32i.n	a7, a1, 56
40083e22:	c178      	l32i.n	a7, a1, 48
40083e24:	e188      	l32i.n	a8, a1, 56
40083e26:	778a      	add.n	a7, a7, a8
40083e28:	f8c772        	addi	a7, a7, -8
40083e2b:	0788      	l32i.n	a8, a7, 0
40083e2d:	1798      	l32i.n	a9, a7, 4
40083e2f:	6189      	s32i.n	a8, a1, 24
40083e31:	7199      	s32i.n	a9, a1, 28
40083e33:	000ac6        	j	40083e62 <z_cbvprintf_impl+0x432>
40083e36:	00          	.byte 00
40083e37:	00          	.byte 00
40083e38:	263866        	bnei	a8, 3, 40083e62 <z_cbvprintf_impl+0x432>
40083e3b:	e188      	l32i.n	a8, a1, 56
40083e3d:	784b      	addi.n	a7, a8, 4
40083e3f:	e179      	s32i.n	a7, a1, 56
40083e41:	891c      	movi.n	a9, 24
40083e43:	042977        	blt	a9, a7, 40083e4b <z_cbvprintf_impl+0x41b>
40083e46:	d178      	l32i.n	a7, a1, 52
40083e48:	0002c6        	j	40083e57 <z_cbvprintf_impl+0x427>
40083e4b:	871c      	movi.n	a7, 24
40083e4d:	042787        	blt	a7, a8, 40083e55 <z_cbvprintf_impl+0x425>
40083e50:	472c      	movi.n	a7, 36
40083e52:	0e6172        	s32i	a7, a1, 56
40083e55:	c178      	l32i.n	a7, a1, 48
40083e57:	e188      	l32i.n	a8, a1, 56
40083e59:	778a      	add.n	a7, a7, a8
40083e5b:	fcc772        	addi	a7, a7, -4
40083e5e:	0778      	l32i.n	a7, a7, 0
40083e60:	6179      	s32i.n	a7, a1, 24
40083e62:	082172        	l32i	a7, a1, 32
40083e65:	147070        	extui	a7, a7, 0, 2
40083e68:	018716        	beqz	a7, 40083e84 <z_cbvprintf_impl+0x454>
40083e6b:	1021d2        	l32i	a13, a1, 64
40083e6e:	20c440        	or	a12, a4, a4
40083e71:	03bd      	mov.n	a11, a3
40083e73:	02ad      	mov.n	a10, a2
40083e75:	002e25        	call8	40084158 <outs>
40083e78:	270a96        	bltz	a10, 400840ec <z_cbvprintf_impl+0x6bc>
40083e7b:	55aa      	add.n	a5, a5, a10
40083e7d:	102142        	l32i	a4, a1, 64
40083e80:	009806        	j	400840e4 <z_cbvprintf_impl+0x6b4>
40083e83:	00          	.byte 00
40083e84:	230142        	l8ui	a4, a1, 35
40083e87:	dbc442        	addi	a4, a4, -37
40083e8a:	747040        	extui	a7, a4, 0, 8
40083e8d:	385c      	movi.n	a8, 83
40083e8f:	02b877        	bgeu	a8, a7, 40083e95 <z_cbvprintf_impl+0x465>
40083e92:	0047c6        	j	40083fb5 <z_cbvprintf_impl+0x585>
40083e95:	074d      	mov.n	a4, a7
40083e97:	f21b71        	l32r	a7, 40080704 <_init_end+0x304> (3ffc07b0 <levels$0+0x144>)
40083e9a:	a04470        	addx4	a4, a4, a7
40083e9d:	0448      	l32i.n	a4, a4, 0
40083e9f:	0004a0        	jx	a4
40083ea2:	03bd      	mov.n	a11, a3
40083ea4:	5a2c      	movi.n	a10, 37
40083ea6:	0002e0        	callx8	a2
40083ea9:	23fa96        	bltz	a10, 400840ec <z_cbvprintf_impl+0x6bc>
40083eac:	551b      	addi.n	a5, a5, 1
40083eae:	040c      	movi.n	a4, 0
40083eb0:	16c182        	addi	a8, a1, 22
40083eb3:	f189      	s32i.n	a8, a1, 60
40083eb5:	047d      	mov.n	a7, a4
40083eb7:	004846        	j	40083fdc <z_cbvprintf_impl+0x5ac>
40083eba:	6178      	l32i.n	a7, a1, 24
40083ebc:	f148      	l32i.n	a4, a1, 60
40083ebe:	00a496        	bltz	a4, 40083ecc <z_cbvprintf_impl+0x49c>
40083ec1:	04bd      	mov.n	a11, a4
40083ec3:	07ad      	mov.n	a10, a7
40083ec5:	0038e5        	call8	40084254 <strnlen>
40083ec8:	000186        	j	40083ed2 <z_cbvprintf_impl+0x4a2>
40083ecb:	00          	.byte 00
40083ecc:	20a770        	or	a10, a7, a7
40083ecf:	0036e5        	call8	4008423c <strlen>
40083ed2:	80a7a0        	add	a10, a7, a10
40083ed5:	0f61a2        	s32i	a10, a1, 60
40083ed8:	040c      	movi.n	a4, 0
40083eda:	003f86        	j	40083fdc <z_cbvprintf_impl+0x5ac>
40083edd:	6148      	l32i.n	a4, a1, 24
40083edf:	004142        	s8i	a4, a1, 0
40083ee2:	040c      	movi.n	a4, 0
40083ee4:	811b      	addi.n	a8, a1, 1
40083ee6:	f189      	s32i.n	a8, a1, 60
40083ee8:	017d      	mov.n	a7, a1
40083eea:	003b86        	j	40083fdc <z_cbvprintf_impl+0x5ac>
40083eed:	00          	.byte 00
40083eee:	101142        	l16ui	a4, a1, 32
40083ef1:	07e437        	bbsi	a4, 3, 40083efc <z_cbvprintf_impl+0x4cc>
40083ef4:	09e447        	bbsi	a4, 4, 40083f01 <z_cbvprintf_impl+0x4d1>
40083ef7:	040c      	movi.n	a4, 0
40083ef9:	000186        	j	40083f03 <z_cbvprintf_impl+0x4d3>
40083efc:	b42c      	movi.n	a4, 43
40083efe:	000046        	j	40083f03 <z_cbvprintf_impl+0x4d3>
40083f01:	042c      	movi.n	a4, 32
40083f03:	6178      	l32i.n	a7, a1, 24
40083f05:	7188      	l32i.n	a8, a1, 28
40083f07:	01e8d6        	bgez	a8, 40083f29 <z_cbvprintf_impl+0x4f9>
40083f0a:	040c      	movi.n	a4, 0
40083f0c:	c07470        	sub	a7, a4, a7
40083f0f:	01a092        	movi	a9, 1
40083f12:	023477        	bltu	a4, a7, 40083f18 <z_cbvprintf_impl+0x4e8>
40083f15:	209440        	or	a9, a4, a4
40083f18:	c04480        	sub	a4, a4, a8
40083f1b:	c04490        	sub	a4, a4, a9
40083f1e:	6179      	s32i.n	a7, a1, 24
40083f20:	7149      	s32i.n	a4, a1, 28
40083f22:	d42c      	movi.n	a4, 45
40083f24:	0002c6        	j	40083f33 <z_cbvprintf_impl+0x503>
40083f27:	00          	.byte 00
40083f28:	00          	.byte 00
40083f29:	6179      	s32i.n	a7, a1, 24
40083f2b:	7189      	s32i.n	a8, a1, 28
40083f2d:	000086        	j	40083f33 <z_cbvprintf_impl+0x503>
40083f30:	00a042        	movi	a4, 0
40083f33:	16c1e2        	addi	a14, a1, 22
40083f36:	20d110        	or	a13, a1, a1
40083f39:	20c1c2        	addi	a12, a1, 32
40083f3c:	0621a2        	l32i	a10, a1, 24
40083f3f:	71b8      	l32i.n	a11, a1, 28
40083f41:	ff9d65        	call8	40083918 <encode_uint>
40083f44:	0a7d      	mov.n	a7, a10
40083f46:	f198      	l32i.n	a9, a1, 60
40083f48:	075996        	bltz	a9, 40083fc1 <z_cbvprintf_impl+0x591>
40083f4b:	16c182        	addi	a8, a1, 22
40083f4e:	c08870        	sub	a8, a8, a7
40083f51:	101192        	l16ui	a9, a1, 32
40083f54:	bfafa2        	movi	a10, -65
40083f57:	1099a0        	and	a9, a9, a10
40083f5a:	105192        	s16i	a9, a1, 32
40083f5d:	f198      	l32i.n	a9, a1, 60
40083f5f:	66b897        	bgeu	a8, a9, 40083fc9 <z_cbvprintf_impl+0x599>
40083f62:	c08980        	sub	a8, a9, a8
40083f65:	9189      	s32i.n	a8, a1, 36
40083f67:	16c182        	addi	a8, a1, 22
40083f6a:	f189      	s32i.n	a8, a1, 60
40083f6c:	001b06        	j	40083fdc <z_cbvprintf_impl+0x5ac>
40083f6f:	0621a2        	l32i	a10, a1, 24
40083f72:	05ca16        	beqz	a10, 40083fd2 <z_cbvprintf_impl+0x5a2>
40083f75:	00a042        	movi	a4, 0
40083f78:	16c1e2        	addi	a14, a1, 22
40083f7b:	20d110        	or	a13, a1, a1
40083f7e:	20c1c2        	addi	a12, a1, 32
40083f81:	04bd      	mov.n	a11, a4
40083f83:	ff9965        	call8	40083918 <encode_uint>
40083f86:	0a7d      	mov.n	a7, a10
40083f88:	220182        	l8ui	a8, a1, 34
40083f8b:	091c      	movi.n	a9, 16
40083f8d:	208890        	or	a8, a8, a9
40083f90:	224182        	s8i	a8, a1, 34
40083f93:	78a082        	movi	a8, 120
40083f96:	234182        	s8i	a8, a1, 35
40083f99:	ffea46        	j	40083f46 <z_cbvprintf_impl+0x516>
40083f9c:	20c550        	or	a12, a5, a5
40083f9f:	0621b2        	l32i	a11, a1, 24
40083fa2:	20c1a2        	addi	a10, a1, 32
40083fa5:	ffa3e5        	call8	400839e4 <store_count>
40083fa8:	00a042        	movi	a4, 0
40083fab:	16c192        	addi	a9, a1, 22
40083fae:	f199      	s32i.n	a9, a1, 60
40083fb0:	047d      	mov.n	a7, a4
40083fb2:	000986        	j	40083fdc <z_cbvprintf_impl+0x5ac>
40083fb5:	040c      	movi.n	a4, 0
40083fb7:	16c182        	addi	a8, a1, 22
40083fba:	f189      	s32i.n	a8, a1, 60
40083fbc:	047d      	mov.n	a7, a4
40083fbe:	000686        	j	40083fdc <z_cbvprintf_impl+0x5ac>
40083fc1:	16c192        	addi	a9, a1, 22
40083fc4:	f199      	s32i.n	a9, a1, 60
40083fc6:	000486        	j	40083fdc <z_cbvprintf_impl+0x5ac>
40083fc9:	16c182        	addi	a8, a1, 22
40083fcc:	f189      	s32i.n	a8, a1, 60
40083fce:	000286        	j	40083fdc <z_cbvprintf_impl+0x5ac>
40083fd1:	00          	.byte 00
40083fd2:	040c      	movi.n	a4, 0
40083fd4:	f1ca91        	l32r	a9, 400806fc <_init_end+0x2fc> (3ffc07ad <levels$0+0x141>)
40083fd7:	f199      	s32i.n	a9, a1, 60
40083fd9:	f1c971        	l32r	a7, 40080700 <_init_end+0x300> (3ffc07a8 <levels$0+0x13c>)
40083fdc:	101716        	beqz	a7, 400840e1 <z_cbvprintf_impl+0x6b1>
40083fdf:	f198      	l32i.n	a9, a1, 60
40083fe1:	c08970        	sub	a8, a9, a7
40083fe4:	048c      	beqz.n	a4, 40083fe8 <z_cbvprintf_impl+0x5b8>
40083fe6:	881b      	addi.n	a8, a8, 1
40083fe8:	220192        	l8ui	a9, a1, 34
40083feb:	056947        	bbci	a9, 4, 40083ff4 <z_cbvprintf_impl+0x5c4>
40083fee:	882b      	addi.n	a8, a8, 2
40083ff0:	000146        	j	40083ff9 <z_cbvprintf_impl+0x5c9>
40083ff3:	00          	.byte 00
40083ff4:	016937        	bbci	a9, 3, 40083ff9 <z_cbvprintf_impl+0x5c9>
40083ff7:	881b      	addi.n	a8, a8, 1
40083ff9:	91a8      	l32i.n	a10, a1, 36
40083ffb:	88aa      	add.n	a8, a8, a10
40083ffd:	036967        	bbci	a9, 6, 40084004 <z_cbvprintf_impl+0x5d4>
40084000:	a198      	l32i.n	a9, a1, 40
40084002:	889a      	add.n	a8, a8, a9
40084004:	5216a6        	blti	a6, 1, 4008405a <z_cbvprintf_impl+0x62a>
40084007:	c06680        	sub	a6, a6, a8
4008400a:	8188      	l32i.n	a8, a1, 32
4008400c:	4ae827        	bbsi	a8, 2, 4008405a <z_cbvprintf_impl+0x62a>
4008400f:	101182        	l16ui	a8, a1, 32
40084012:	094c      	movi.n	a9, 64
40084014:	108890        	and	a8, a8, a9
40084017:	f48080        	extui	a8, a8, 0, 16
4008401a:	88ac      	beqz.n	a8, 40084046 <z_cbvprintf_impl+0x616>
4008401c:	e4ac      	beqz.n	a4, 4008404e <z_cbvprintf_impl+0x61e>
4008401e:	03bd      	mov.n	a11, a3
40084020:	04ad      	mov.n	a10, a4
40084022:	0002e0        	callx8	a2
40084025:	0c3a96        	bltz	a10, 400840ec <z_cbvprintf_impl+0x6bc>
40084028:	551b      	addi.n	a5, a5, 1
4008402a:	043c      	movi.n	a4, 48
4008402c:	116142        	s32i	a4, a1, 68
4008402f:	040c      	movi.n	a4, 0
40084031:	000786        	j	40084053 <z_cbvprintf_impl+0x623>
40084034:	03bd      	mov.n	a11, a3
40084036:	1121a2        	l32i	a10, a1, 68
40084039:	0002e0        	callx8	a2
4008403c:	0aca96        	bltz	a10, 400840ec <z_cbvprintf_impl+0x6bc>
4008403f:	551b      	addi.n	a5, a5, 1
40084041:	068d      	mov.n	a8, a6
40084043:	000386        	j	40084055 <z_cbvprintf_impl+0x625>
40084046:	082c      	movi.n	a8, 32
40084048:	116182        	s32i	a8, a1, 68
4008404b:	000106        	j	40084053 <z_cbvprintf_impl+0x623>
4008404e:	093c      	movi.n	a9, 48
40084050:	116192        	s32i	a9, a1, 68
40084053:	068d      	mov.n	a8, a6
40084055:	680b      	addi.n	a6, a8, -1
40084057:	d918e6        	bgei	a8, 1, 40084034 <z_cbvprintf_impl+0x604>
4008405a:	b48c      	beqz.n	a4, 40084069 <z_cbvprintf_impl+0x639>
4008405c:	03bd      	mov.n	a11, a3
4008405e:	20a440        	or	a10, a4, a4
40084061:	0002e0        	callx8	a2
40084064:	084a96        	bltz	a10, 400840ec <z_cbvprintf_impl+0x6bc>
40084067:	551b      	addi.n	a5, a5, 1
40084069:	8148      	l32i.n	a4, a1, 32
4008406b:	058440        	extui	a8, a4, 20, 1
4008406e:	054340        	extui	a4, a4, 19, 1
40084071:	204840        	or	a4, a8, a4
40084074:	a48c      	beqz.n	a4, 40084082 <z_cbvprintf_impl+0x652>
40084076:	03bd      	mov.n	a11, a3
40084078:	0a3c      	movi.n	a10, 48
4008407a:	0002e0        	callx8	a2
4008407d:	06ba96        	bltz	a10, 400840ec <z_cbvprintf_impl+0x6bc>
40084080:	551b      	addi.n	a5, a5, 1
40084082:	220142        	l8ui	a4, a1, 34
40084085:	081c      	movi.n	a8, 16
40084087:	104480        	and	a4, a4, a8
4008408a:	744040        	extui	a4, a4, 0, 8
4008408d:	c48c      	beqz.n	a4, 4008409d <z_cbvprintf_impl+0x66d>
4008408f:	20b330        	or	a11, a3, a3
40084092:	2301a2        	l8ui	a10, a1, 35
40084095:	0002e0        	callx8	a2
40084098:	050a96        	bltz	a10, 400840ec <z_cbvprintf_impl+0x6bc>
4008409b:	551b      	addi.n	a5, a5, 1
4008409d:	9188      	l32i.n	a8, a1, 36
4008409f:	000346        	j	400840b0 <z_cbvprintf_impl+0x680>
400840a2:	03bd      	mov.n	a11, a3
400840a4:	0a3c      	movi.n	a10, 48
400840a6:	0002e0        	callx8	a2
400840a9:	03fa96        	bltz	a10, 400840ec <z_cbvprintf_impl+0x6bc>
400840ac:	551b      	addi.n	a5, a5, 1
400840ae:	048d      	mov.n	a8, a4
400840b0:	480b      	addi.n	a4, a8, -1
400840b2:	ec18e6        	bgei	a8, 1, 400840a2 <z_cbvprintf_impl+0x672>
400840b5:	f1d8      	l32i.n	a13, a1, 60
400840b7:	07cd      	mov.n	a12, a7
400840b9:	03bd      	mov.n	a11, a3
400840bb:	02ad      	mov.n	a10, a2
400840bd:	0009a5        	call8	40084158 <outs>
400840c0:	028a96        	bltz	a10, 400840ec <z_cbvprintf_impl+0x6bc>
400840c3:	55aa      	add.n	a5, a5, a10
400840c5:	000386        	j	400840d7 <z_cbvprintf_impl+0x6a7>
400840c8:	03bd      	mov.n	a11, a3
400840ca:	20a0a2        	movi	a10, 32
400840cd:	0002e0        	callx8	a2
400840d0:	018a96        	bltz	a10, 400840ec <z_cbvprintf_impl+0x6bc>
400840d3:	551b      	addi.n	a5, a5, 1
400840d5:	660b      	addi.n	a6, a6, -1
400840d7:	ed16e6        	bgei	a6, 1, 400840c8 <z_cbvprintf_impl+0x698>
400840da:	102142        	l32i	a4, a1, 64
400840dd:	0000c6        	j	400840e4 <z_cbvprintf_impl+0x6b4>
400840e0:	00          	.byte 00
400840e1:	102142        	l32i	a4, a1, 64
400840e4:	0004a2        	l8ui	a10, a4, 0
400840e7:	953a56        	bnez	a10, 40083a3e <z_cbvprintf_impl+0xe>
400840ea:	05ad      	mov.n	a10, a5
400840ec:	0a2d      	mov.n	a2, a10
400840ee:	f01d      	retw.n

400840f0 <extract_decimal>:
400840f0:	004136        	entry	a1, 32
400840f3:	0298      	l32i.n	a9, a2, 0
400840f5:	080c      	movi.n	a8, 0
400840f7:	000306        	j	40084107 <extract_decimal+0x17>
400840fa:	00          	.byte 00
400840fb:	00          	.byte 00
400840fc:	a08880        	addx4	a8, a8, a8
400840ff:	991b      	addi.n	a9, a9, 1
40084101:	9088a0        	addx2	a8, a8, a10
40084104:	d0c882        	addi	a8, a8, -48
40084107:	0009a2        	l8ui	a10, a9, 0
4008410a:	d0cab2        	addi	a11, a10, -48
4008410d:	9c0c      	movi.n	a12, 9
4008410f:	e9bcb7        	bgeu	a12, a11, 400840fc <extract_decimal+0xc>
40084112:	0299      	s32i.n	a9, a2, 0
40084114:	082d      	mov.n	a2, a8
40084116:	f01d      	retw.n

40084118 <conversion_radix>:
40084118:	004136        	entry	a1, 32
4008411b:	6fa082        	movi	a8, 111
4008411e:	1f1287        	beq	a2, a8, 40084141 <conversion_radix+0x29>
40084121:	0b3827        	bltu	a8, a2, 40084130 <conversion_radix+0x18>
40084124:	885c      	movi.n	a8, 88
40084126:	1c9287        	bne	a2, a8, 40084146 <conversion_radix+0x2e>
40084129:	021c      	movi.n	a2, 16
4008412b:	000906        	j	40084153 <conversion_radix+0x3b>
4008412e:	00          	.byte 00
4008412f:	00          	.byte 00
40084130:	70a082        	movi	a8, 112
40084133:	151287        	beq	a2, a8, 4008414c <conversion_radix+0x34>
40084136:	78a082        	movi	a8, 120
40084139:	149287        	bne	a2, a8, 40084151 <conversion_radix+0x39>
4008413c:	021c      	movi.n	a2, 16
4008413e:	000446        	j	40084153 <conversion_radix+0x3b>
40084141:	820c      	movi.n	a2, 8
40084143:	000306        	j	40084153 <conversion_radix+0x3b>
40084146:	a20c      	movi.n	a2, 10
40084148:	0001c6        	j	40084153 <conversion_radix+0x3b>
4008414b:	00          	.byte 00
4008414c:	021c      	movi.n	a2, 16
4008414e:	000046        	j	40084153 <conversion_radix+0x3b>
40084151:	a20c      	movi.n	a2, 10
40084153:	f01d      	retw.n
40084155:	000000        	ill

40084158 <outs>:
40084158:	004136        	entry	a1, 32
4008415b:	060c      	movi.n	a6, 0
4008415d:	000486        	j	40084173 <outs+0x1b>
40084160:	00          	.byte 00
40084161:	00          	.byte 00
40084162:	741b      	addi.n	a7, a4, 1
40084164:	03bd      	mov.n	a11, a3
40084166:	0004a2        	l8ui	a10, a4, 0
40084169:	0002e0        	callx8	a2
4008416c:	010a96        	bltz	a10, 40084180 <outs+0x28>
4008416f:	661b      	addi.n	a6, a6, 1
40084171:	074d      	mov.n	a4, a7
40084173:	eb3457        	bltu	a4, a5, 40084162 <outs+0xa>
40084176:	45cc      	bnez.n	a5, 4008417e <outs+0x26>
40084178:	000472        	l8ui	a7, a4, 0
4008417b:	fe3756        	bnez	a7, 40084162 <outs+0xa>
4008417e:	06ad      	mov.n	a10, a6
40084180:	0a2d      	mov.n	a2, a10
40084182:	f01d      	retw.n

40084184 <char_out>:
40084184:	004136        	entry	a1, 32
40084187:	f16081        	l32r	a8, 40080708 <_init_end+0x308> (3ffbfff4 <_char_out>)
4008418a:	0888      	l32i.n	a8, a8, 0
4008418c:	02ad      	mov.n	a10, a2
4008418e:	0008e0        	callx8	a8
40084191:	0a2d      	mov.n	a2, a10
40084193:	f01d      	retw.n
40084195:	000000        	ill

40084198 <vprintk>:
40084198:	00a136        	entry	a1, 80
4008419b:	086132        	s32i	a3, a1, 32
4008419e:	096142        	s32i	a4, a1, 36
400841a1:	0a6152        	s32i	a5, a1, 40
400841a4:	03dd      	mov.n	a13, a3
400841a6:	04ed      	mov.n	a14, a4
400841a8:	4139      	s32i.n	a3, a1, 16
400841aa:	05fd      	mov.n	a15, a5
400841ac:	5149      	s32i.n	a4, a1, 20
400841ae:	6159      	s32i.n	a5, a1, 24
400841b0:	0b0c      	movi.n	a11, 0
400841b2:	01b9      	s32i.n	a11, a1, 0
400841b4:	02cd      	mov.n	a12, a2
400841b6:	f155a1        	l32r	a10, 4008070c <_init_end+0x30c> (40084184 <char_out>)
400841b9:	ff8765        	call8	40083a30 <z_cbvprintf_impl>
400841bc:	f01d      	retw.n
	...

400841c0 <printk>:
400841c0:	00a136        	entry	a1, 80
400841c3:	5139      	s32i.n	a3, a1, 20
400841c5:	6149      	s32i.n	a4, a1, 24
400841c7:	7159      	s32i.n	a5, a1, 28
400841c9:	8169      	s32i.n	a6, a1, 32
400841cb:	9179      	s32i.n	a7, a1, 36
400841cd:	10c1c2        	addi	a12, a1, 16
400841d0:	11c9      	s32i.n	a12, a1, 4
400841d2:	30c1b2        	addi	a11, a1, 48
400841d5:	01b9      	s32i.n	a11, a1, 0
400841d7:	4d0c      	movi.n	a13, 4
400841d9:	21d9      	s32i.n	a13, a1, 8
400841db:	02ad      	mov.n	a10, a2
400841dd:	fffba5        	call8	40084198 <vprintk>
400841e0:	f01d      	retw.n
	...

400841e4 <console_out>:
400841e4:	004136        	entry	a1, 32
400841e7:	0d9266        	bnei	a2, 10, 400841f8 <console_out+0x14>
400841ea:	f149a1        	l32r	a10, 40080710 <_init_end+0x310> (3f4049f0 <__device_dts_ord_61>)
400841ed:	022a82        	l32i	a8, a10, 8
400841f0:	1888      	l32i.n	a8, a8, 4
400841f2:	0da0b2        	movi	a11, 13
400841f5:	0008e0        	callx8	a8
400841f8:	f146a1        	l32r	a10, 40080710 <_init_end+0x310> (3f4049f0 <__device_dts_ord_61>)
400841fb:	2a88      	l32i.n	a8, a10, 8
400841fd:	1888      	l32i.n	a8, a8, 4
400841ff:	74b020        	extui	a11, a2, 0, 8
40084202:	0008e0        	callx8	a8
40084205:	f01d      	retw.n
	...

40084208 <__start>:
40084208:	004136        	entry	a1, 32
4008420b:	fc50a5        	call8	40080714 <__esp_platform_start>
4008420e:	f01d      	retw.n

40084210 <strncpy>:
40084210:	004136        	entry	a1, 32
40084213:	028d      	mov.n	a8, a2
40084215:	000206        	j	40084221 <strncpy+0x11>
40084218:	004892        	s8i	a9, a8, 0
4008421b:	331b      	addi.n	a3, a3, 1
4008421d:	881b      	addi.n	a8, a8, 1
4008421f:	440b      	addi.n	a4, a4, -1
40084221:	049c      	beqz.n	a4, 40084235 <strncpy+0x25>
40084223:	000392        	l8ui	a9, a3, 0
40084226:	fee956        	bnez	a9, 40084218 <strncpy+0x8>
40084229:	000206        	j	40084235 <strncpy+0x25>
4008422c:	030c      	movi.n	a3, 0
4008422e:	004832        	s8i	a3, a8, 0
40084231:	881b      	addi.n	a8, a8, 1
40084233:	440b      	addi.n	a4, a4, -1
40084235:	ff3456        	bnez	a4, 4008422c <strncpy+0x1c>
40084238:	f01d      	retw.n
	...

4008423c <strlen>:
4008423c:	004136        	entry	a1, 32
4008423f:	028d      	mov.n	a8, a2
40084241:	020c      	movi.n	a2, 0
40084243:	0000c6        	j	4008424a <strlen+0xe>
40084246:	881b      	addi.n	a8, a8, 1
40084248:	221b      	addi.n	a2, a2, 1
4008424a:	000892        	l8ui	a9, a8, 0
4008424d:	ff5956        	bnez	a9, 40084246 <strlen+0xa>
40084250:	f01d      	retw.n
	...

40084254 <strnlen>:
40084254:	004136        	entry	a1, 32
40084257:	080c      	movi.n	a8, 0
40084259:	0000c6        	j	40084260 <strnlen+0xc>
4008425c:	221b      	addi.n	a2, a2, 1
4008425e:	881b      	addi.n	a8, a8, 1
40084260:	000292        	l8ui	a9, a2, 0
40084263:	198c      	beqz.n	a9, 40084268 <strnlen+0x14>
40084265:	f33837        	bltu	a8, a3, 4008425c <strnlen+0x8>
40084268:	082d      	mov.n	a2, a8
4008426a:	f01d      	retw.n

4008426c <memcpy>:
4008426c:	004136        	entry	a1, 32
4008426f:	308230        	xor	a8, a2, a3
40084272:	148080        	extui	a8, a8, 0, 2
40084275:	489c      	beqz.n	a8, 4008428d <memcpy+0x21>
40084277:	028d      	mov.n	a8, a2
40084279:	000e06        	j	400842b5 <memcpy+0x49>
4008427c:	84bc      	beqz.n	a4, 400842b8 <memcpy+0x4c>
4008427e:	000392        	l8ui	a9, a3, 0
40084281:	004892        	s8i	a9, a8, 0
40084284:	440b      	addi.n	a4, a4, -1
40084286:	331b      	addi.n	a3, a3, 1
40084288:	881b      	addi.n	a8, a8, 1
4008428a:	000046        	j	4008428f <memcpy+0x23>
4008428d:	028d      	mov.n	a8, a2
4008428f:	149080        	extui	a9, a8, 0, 2
40084292:	fe6956        	bnez	a9, 4008427c <memcpy+0x10>
40084295:	000286        	j	400842a3 <memcpy+0x37>
40084298:	0398      	l32i.n	a9, a3, 0
4008429a:	0899      	s32i.n	a9, a8, 0
4008429c:	fcc442        	addi	a4, a4, -4
4008429f:	334b      	addi.n	a3, a3, 4
400842a1:	884b      	addi.n	a8, a8, 4
400842a3:	f144f6        	bgeui	a4, 4, 40084298 <memcpy+0x2c>
400842a6:	0002c6        	j	400842b5 <memcpy+0x49>
400842a9:	000392        	l8ui	a9, a3, 0
400842ac:	004892        	s8i	a9, a8, 0
400842af:	440b      	addi.n	a4, a4, -1
400842b1:	331b      	addi.n	a3, a3, 1
400842b3:	881b      	addi.n	a8, a8, 1
400842b5:	ff0456        	bnez	a4, 400842a9 <memcpy+0x3d>
400842b8:	f01d      	retw.n
	...

400842bc <memset>:
400842bc:	004136        	entry	a1, 32
400842bf:	74a030        	extui	a10, a3, 0, 8
400842c2:	028d      	mov.n	a8, a2
400842c4:	000246        	j	400842d1 <memset+0x15>
400842c7:	00          	.byte 00
400842c8:	64bc      	beqz.n	a4, 40084302 <memset+0x46>
400842ca:	0048a2        	s8i	a10, a8, 0
400842cd:	440b      	addi.n	a4, a4, -1
400842cf:	881b      	addi.n	a8, a8, 1
400842d1:	149080        	extui	a9, a8, 0, 2
400842d4:	ff0956        	bnez	a9, 400842c8 <memset+0xc>
400842d7:	743030        	extui	a3, a3, 0, 8
400842da:	119380        	slli	a9, a3, 8
400842dd:	203930        	or	a3, a9, a3
400842e0:	119300        	slli	a9, a3, 16
400842e3:	209930        	or	a9, a9, a3
400842e6:	000186        	j	400842f0 <memset+0x34>
400842e9:	0899      	s32i.n	a9, a8, 0
400842eb:	fcc442        	addi	a4, a4, -4
400842ee:	884b      	addi.n	a8, a8, 4
400842f0:	f544f6        	bgeui	a4, 4, 400842e9 <memset+0x2d>
400842f3:	000206        	j	400842ff <memset+0x43>
400842f6:	00          	.byte 00
400842f7:	00          	.byte 00
400842f8:	0048a2        	s8i	a10, a8, 0
400842fb:	440b      	addi.n	a4, a4, -1
400842fd:	881b      	addi.n	a8, a8, 1
400842ff:	ff5456        	bnez	a4, 400842f8 <memset+0x3c>
40084302:	f01d      	retw.n

Disassembly of section .flash.text:

400d0020 <_image_irom_vaddr>:
400d0020:	3f40004c 	
400d0024:	3f400054 	
400d0028:	00002710 	
400d002c:	000c0000 	
400d0030:	ffefffff 	
400d0034:	00007e90 	
400d0038:	3ffb02d0 	
400d003c:	3f404a38 	
400d0040:	3f4000b0 	
400d0044:	00160000 	
400d0048:	3f4000bc 	
400d004c:	3f4049c0 	
400d0050:	3f400078 	
400d0054:	3f400094 	
400d0058:	3ffbfff4 	
400d005c:	00002000 	
400d0060:	fffff03f 	
400d0064:	fffc0fff 	
400d0068:	8003ffff 	
400d006c:	80000000 	
400d0070:	7fffffff 	
400d0074:	00001000 	
400d0078:	00000800 	
400d007c:	3ff65000 	
400d0080:	3ff42000 	
400d0084:	3ff64000 	
400d0088:	feffffff 	
400d008c:	fdffffff 	
400d0090:	ff9fffff 	
400d0094:	fc7fffff 	
400d0098:	04c4b400 	
400d009c:	10624dd3 	
400d00a0:	dfffffff 	
400d00a4:	20000000 	
400d00a8:	fe6fbfff 	
400d00ac:	ffff0fff 	
400d00b0:	00004000 	
400d00b4:	00800000 	
400d00b8:	00100000 	
400d00bc:	01000000 	
400d00c0:	00008000 	
400d00c4:	ffffc7ff 	
400d00c8:	fbffffff 	
400d00cc:	fffeffff 	
400d00d0:	fffcffff 	
400d00d4:	ffe3ffff 	
400d00d8:	00ffffff 	
400d00dc:	ff000000 	
400d00e0:	03ffffff 	
400d00e4:	bfffffff 	
400d00e8:	0fffffff 	
400d00ec:	00000ffc 	
400d00f0:	000fffff 	
400d00f4:	fff00000 	
400d00f8:	08000000 	
400d00fc:	f7ffffff 	
400d0100:	efffffff 	
400d0104:	00040000 	
400d0108:	fffff000 	
400d010c:	ff000fff 	
400d0110:	40000000 	
400d0114:	000f4240 	
400d0118:	ff0fffff 	
400d011c:	ff80ffff 	
400d0120:	ff7fffff 	
400d0124:	ffff7fff 	
400d0128:	ffff80ff 	
400d012c:	80ffffff 	
400d0130:	3ff40000 	
400d0134:	3ff50000 	
400d0138:	3ff6e000 	
400d013c:	3ff40000 	
400d0140:	3ff50000 	
400d0144:	60000000 	
400d0148:	60010000 	
400d014c:	6002e000 	
400d0150:	00e4e1bf 	
400d0154:	3ffbfff8 	
400d0158:	3f403c3c 	
400d015c:	3f4036bc 	
400d0160:	40007d54 	
400d0164:	3f400040 	
400d0168:	40009278 	
400d016c:	4000cff8 	
400d0170:	3ff48050 	
400d0174:	3ff4848c 	
400d0178:	e73ff7df 	
400d017c:	00060000 	
400d0180:	ffcfffff 	
400d0184:	00300000 	
400d0188:	00080000 	
400d018c:	3ff48000 	
400d0190:	3ffc1cec 	
400d0194:	3ff48030 	
400d0198:	fffbfabf 	
400d019c:	fff7ffff 	
400d01a0:	fff9ffff 	
400d01a4:	3ff48070 	
400d01a8:	3ff4801c 	
400d01ac:	ffffc03f 	
400d01b0:	40008534 	
400d01b4:	3fffffff 	
400d01b8:	3ff4807c 	
400d01bc:	3ff5a014 	
400d01c0:	00003800 	
400d01c4:	3ff480b0 	
400d01c8:	0000fffe 	
400d01cc:	3ff66000 	
400d01d0:	3ff0003c 	
400d01d4:	3f403c38 	
400d01d8:	3f403c6c 	
400d01dc:	00010001 	
400d01e0:	3ff480b4 	
400d01e4:	3ff66004 	
400d01e8:	e7ffffff 	
400d01ec:	3f403c9c 	
400d01f0:	10000000 	
400d01f4:	0081b320 	
400d01f8:	0ffff000 	
400d01fc:	0007a120 	
400d0200:	431bde83 	
400d0204:	23ffffff 	
400d0208:	ff003fff 	
400d020c:	3ff48078 	
400d0210:	03000000 	
400d0214:	f1ffffff 	
400d0218:	fe3fffff 	
400d021c:	3ff00044 	
400d0220:	fffff7ff 	
400d0224:	3ff0005c 	
400d0228:	3ff00094 	
400d022c:	3ff000a0 	
400d0230:	3ff000a4 	
400d0234:	3ff000ac 	
400d0238:	ffffdfff 	
400d023c:	ffbfffff 	
400d0240:	00020000 	
400d0244:	3ff48084 	
400d0248:	fffbffff 	
400d024c:	fffeaabf 	
400d0250:	3ff48080 	
400d0254:	fffedfff 	
400d0258:	3ff48088 	
400d025c:	f555ffff 	
400d0260:	ffffbfff 	
400d0264:	ffffefff 	
400d0268:	3ff4803c 	
400d026c:	3ff48048 	
400d0270:	000081b3 	
400d0274:	000249f0 	
400d0278:	3ff5f068 	
400d027c:	ffff9fff 	
400d0280:	00006000 	
400d0284:	8000ffff 	
400d0288:	7fff0000 	
400d028c:	01ffffff 	
400d0290:	3f403cbc 	
400d0294:	3f403cc8 	
400d0298:	3ff5f06c 	
400d029c:	7fffefff 	
400d02a0:	0f424000 	
400d02a4:	3f403d08 	
400d02a8:	3f403d18 	
400d02ac:	3f403d60 	
400d02b0:	3f403da8 	
400d02b4:	ffc03fff 	
400d02b8:	fe01ffff 	
400d02bc:	ffff8fff 	
400d02c0:	6000e044 	
400d02c4:	0003ff00 	
400d02c8:	fffdbfff 	
400d02cc:	3f403dd4 	
400d02d0:	3f403e10 	
400d02d4:	3f403e68 	
400d02d8:	3ff66008 	
400d02dc:	00180000 	
400d02e0:	3ff5f070 	
400d02e4:	3ff5f08c 	
400d02e8:	3ff5f090 	
400d02ec:	3ff5f084 	
400d02f0:	3ff5f088 	
400d02f4:	3ff5f094 	
400d02f8:	3ff5f0a4 	
400d02fc:	e0001fff 	
400d0300:	00050000 	
400d0304:	c0000800 	
400d0308:	00200000 	
400d030c:	00010000 	
400d0310:	00400000 	
400d0314:	00030800 	
400d0318:	00030000 	
400d031c:	3f403ebc 	
400d0320:	3f403f40 	
400d0324:	3ff0001c 	
400d0328:	3ff000cc 	
400d032c:	3ff000c0 	
400d0330:	3ff00020 	
400d0334:	3ff000d0 	
400d0338:	3ff000c4 	
400d033c:	3ffc1d14 	
400d0340:	3ffc1cf0 	
400d0344:	3f403fc4 	
400d0348:	3ffc0a70 	
400d034c:	3ffc0960 	
400d0350:	3f4041c4 	
400d0354:	3ffbfffc 	
400d0358:	0000455a 	
400d035c:	3ffc0000 	
400d0360:	3ffc1d88 	
400d0364:	3ffc1d8c 	
400d0368:	3f4041d0 	
400d036c:	3f4041dc 	
400d0370:	3f4041f8 	
400d0374:	3f404208 	
400d0378:	3ffc1dd4 	
400d037c:	3ffc1dd8 	
400d0380:	400d33e8 	
400d0384:	3f404224 	
400d0388:	ffc1ffff 	
400d038c:	bff3e000 	
400d0390:	0ff3dfff 	
400d0394:	3f404248 	
400d0398:	3ffc1ed8 	
400d039c:	4008086c 	
400d03a0:	c03fffff 	
400d03a4:	3ffc1dd0 	
400d03a8:	4000c1ec 	
400d03ac:	4000681c 	
400d03b0:	3f40426c 	
400d03b4:	00037c36 	
400d03b8:	061a8c08 	
400d03bc:	fffeffbd 	
400d03c0:	00641394 	
400d03c4:	3ff4f0ac 	
400d03c8:	3ff6d0ac 	
400d03cc:	400081d4 	
400d03d0:	04c4b3ff 	
400d03d4:	3f400044 	
400d03d8:	3f40432c 	
400d03dc:	fffc00ff 	
400d03e0:	ffe7ffff 	
400d03e4:	400081d4 	
400d03e8:	400841e4 	
400d03ec:	3f4049f0 	
400d03f0:	3f404330 	
400d03f4:	3f404364 	
400d03f8:	3f404390 	
400d03fc:	3f4043ac 	
400d0400:	3f4043d0 	
400d0404:	3f4043f4 	
400d0408:	3f404418 	
400d040c:	3ffc1edc 	
400d0410:	60035144 	
400d0414:	0ffd114c 	
400d0418:	3f4037a8 	
400d041c:	02000000 	
400d0420:	04000000 	
400d0424:	06000000 	
400d0428:	fffc1fff 	
400d042c:	0effffff 	
400d0430:	3f4044f8 	
400d0434:	3f403b98 	
400d0438:	3f40451c 	
400d043c:	3f403708 	
400d0440:	3f404530 	
400d0444:	3f404558 	
400d0448:	fffff3ff 	
400d044c:	00000c00 	
400d0450:	3ff44000 	
400d0454:	40009f0c 	
400d0458:	3ffc1f38 	
400d045c:	40080a04 	
400d0460:	3ff44000 	
400d0464:	3f4045cc 	
400d0468:	3ff44800 	
400d046c:	40009edc 	
400d0470:	3f4045d4 	
400d0474:	3f404604 	
400d0478:	3f404778 	
400d047c:	3ff005a8 	
400d0480:	40080d9c 	

400d0484 <main>:
400d0484:	004136        	entry	a1, 32
400d0487:	000da5        	call8	400d0560 <user_display_init>
400d048a:	000ae5        	call8	400d0538 <user_display_test_image>
400d048d:	fee4c1        	l32r	a12, 400d0020 <_image_irom_vaddr> (3f40004c <__rodata_region_start+0xc>)
400d0490:	9b4c      	movi.n	a11, 73
400d0492:	fee4a1        	l32r	a10, 400d0024 <_image_irom_vaddr+0x4> (3f400054 <__rodata_region_start+0x14>)
400d0495:	004725        	call8	400d0908 <z_log_minimal_printk>
400d0498:	fee4a1        	l32r	a10, 400d0028 <_image_irom_vaddr+0x8> (2710 <CONFIG_SYS_CLOCK_TICKS_PER_SEC>)
400d049b:	0b0c      	movi.n	a11, 0
400d049d:	b22525        	call8	400826f0 <z_impl_k_sleep>
400d04a0:	fffa46        	j	400d048d <main+0x9>
	...

400d04a4 <z_impl_gpio_pin_configure>:
400d04a4:	004136        	entry	a1, 32
400d04a7:	02ad      	mov.n	a10, a2
400d04a9:	03bd      	mov.n	a11, a3
400d04ab:	022292        	l32i	a9, a2, 8
400d04ae:	042282        	l32i	a8, a2, 16
400d04b1:	0b7447        	bbci	a4, 20, 400d04c0 <z_impl_gpio_pin_configure+0x1c>
400d04b4:	fedec1        	l32r	a12, 400d002c <_image_irom_vaddr+0xc> (c0000 <_image_irom_start+0xa670c>)
400d04b7:	0504c7        	bnone	a4, a12, 400d04c0 <z_impl_gpio_pin_configure+0x1c>
400d04ba:	026407        	bbci	a4, 0, 400d04c0 <z_impl_gpio_pin_configure+0x1c>
400d04bd:	3044c0        	xor	a4, a4, a12
400d04c0:	fedcc1        	l32r	a12, 400d0030 <_image_irom_vaddr+0x10> (ffefffff <_rtc_bss_end+0xafefffff>)
400d04c3:	10c4c0        	and	a12, a4, a12
400d04c6:	126407        	bbci	a4, 0, 400d04dc <z_impl_gpio_pin_configure+0x38>
400d04c9:	0848      	l32i.n	a4, a8, 0
400d04cb:	1d0c      	movi.n	a13, 1
400d04cd:	401b00        	ssl	a11
400d04d0:	a1dd00        	sll	a13, a13
400d04d3:	2044d0        	or	a4, a4, a13
400d04d6:	0849      	s32i.n	a4, a8, 0
400d04d8:	000506        	j	400d04f0 <z_impl_gpio_pin_configure+0x4c>
400d04db:	00          	.byte 00
400d04dc:	0848      	l32i.n	a4, a8, 0
400d04de:	1e0c      	movi.n	a14, 1
400d04e0:	401b00        	ssl	a11
400d04e3:	a1ee00        	sll	a14, a14
400d04e6:	fd7c      	movi.n	a13, -1
400d04e8:	30dde0        	xor	a13, a13, a14
400d04eb:	1044d0        	and	a4, a4, a13
400d04ee:	0849      	s32i.n	a4, a8, 0
400d04f0:	0948      	l32i.n	a4, a9, 0
400d04f2:	0004e0        	callx8	a4
400d04f5:	0a2d      	mov.n	a2, a10
400d04f7:	f01d      	retw.n
400d04f9:	000000        	ill

400d04fc <gpio_pin_configure_dt>:
400d04fc:	004136        	entry	a1, 32
400d04ff:	0022a2        	l32i	a10, a2, 0
400d0502:	0402b2        	l8ui	a11, a2, 4
400d0505:	0312c2        	l16ui	a12, a2, 6
400d0508:	20cc30        	or	a12, a12, a3
400d050b:	fff9a5        	call8	400d04a4 <z_impl_gpio_pin_configure>
400d050e:	202aa0        	or	a2, a10, a10
400d0511:	000090        	retw

400d0514 <gpio_pin_set>:
400d0514:	004136        	entry	a1, 32
400d0517:	02ad      	mov.n	a10, a2
400d0519:	04cd      	mov.n	a12, a4
400d051b:	03bd      	mov.n	a11, a3
400d051d:	4288      	l32i.n	a8, a2, 16
400d051f:	0888      	l32i.n	a8, a8, 0
400d0521:	0b5837        	bbc	a8, a3, 400d0530 <gpio_pin_set+0x1c>
400d0524:	01a082        	movi	a8, 1
400d0527:	00a092        	movi	a9, 0
400d052a:	938940        	movnez	a8, a9, a4
400d052d:	74c080        	extui	a12, a8, 0, 8
400d0530:	04ff25        	call8	400d5524 <gpio_pin_set_raw>
400d0533:	0a2d      	mov.n	a2, a10
400d0535:	f01d      	retw.n
	...

400d0538 <user_display_test_image>:
400d0538:	004136        	entry	a1, 32
400d053b:	febf21        	l32r	a2, 400d0038 <_image_irom_vaddr+0x18> (3ffb02d0 <test_image>)
400d053e:	febdb1        	l32r	a11, 400d0034 <_image_irom_vaddr+0x14> (7e90 <_image_irom_size+0x2148>)
400d0541:	0022a2        	l32i	a10, a2, 0
400d0544:	0500e5        	call8	400d5554 <user_display_swap_bytes>
400d0547:	febda1        	l32r	a10, 400d003c <_image_irom_vaddr+0x1c> (3f404a38 <__device_dts_ord_77>)
400d054a:	022a82        	l32i	a8, a10, 8
400d054d:	022882        	l32i	a8, a8, 8
400d0550:	02e8      	l32i.n	a14, a2, 0
400d0552:	febbd1        	l32r	a13, 400d0040 <_image_irom_vaddr+0x20> (3f4000b0 <desc>)
400d0555:	0c0c      	movi.n	a12, 0
400d0557:	0cbd      	mov.n	a11, a12
400d0559:	0008e0        	callx8	a8
400d055c:	f01d      	retw.n
	...

400d0560 <user_display_init>:
400d0560:	004136        	entry	a1, 32
400d0563:	feb8b1        	l32r	a11, 400d0044 <_image_irom_vaddr+0x24> (160000 <_image_irom_start+0x14670c>)
400d0566:	feb8a1        	l32r	a10, 400d0048 <_image_irom_vaddr+0x28> (3f4000bc <display_pin_bl>)
400d0569:	fff925        	call8	400d04fc <gpio_pin_configure_dt>
400d056c:	0c0c      	movi.n	a12, 0
400d056e:	4b0c      	movi.n	a11, 4
400d0570:	feb7a1        	l32r	a10, 400d004c <_image_irom_vaddr+0x2c> (3f4049c0 <__device_dts_ord_11>)
400d0573:	fffa25        	call8	400d0514 <gpio_pin_set>
400d0576:	feb1a1        	l32r	a10, 400d003c <_image_irom_vaddr+0x1c> (3f404a38 <__device_dts_ord_77>)
400d0579:	b2b665        	call8	400830e0 <z_device_is_ready>
400d057c:	00ca56        	bnez	a10, 400d058c <user_display_init+0x2c>
400d057f:	49a0b2        	movi	a11, 73
400d0582:	feb3a1        	l32r	a10, 400d0050 <_image_irom_vaddr+0x30> (3f400078 <__rodata_region_start+0x38>)
400d0585:	003825        	call8	400d0908 <z_log_minimal_printk>
400d0588:	000886        	j	400d05ae <user_display_init+0x4e>
400d058b:	00          	.byte 00
400d058c:	feaca1        	l32r	a10, 400d003c <_image_irom_vaddr+0x1c> (3f404a38 <__device_dts_ord_77>)
400d058f:	022a82        	l32i	a8, a10, 8
400d0592:	012882        	l32i	a8, a8, 4
400d0595:	0008e0        	callx8	a8
400d0598:	8a8c      	beqz.n	a10, 400d05a4 <user_display_init+0x44>
400d059a:	0acd      	mov.n	a12, a10
400d059c:	9b4c      	movi.n	a11, 73
400d059e:	feada1        	l32r	a10, 400d0054 <_image_irom_vaddr+0x34> (3f400094 <__rodata_region_start+0x54>)
400d05a1:	003665        	call8	400d0908 <z_log_minimal_printk>
400d05a4:	1c0c      	movi.n	a12, 1
400d05a6:	4b0c      	movi.n	a11, 4
400d05a8:	fea9a1        	l32r	a10, 400d004c <_image_irom_vaddr+0x2c> (3f4049c0 <__device_dts_ord_11>)
400d05ab:	fff6a5        	call8	400d0514 <gpio_pin_set>
400d05ae:	f01d      	retw.n

400d05b0 <__printk_hook_install>:
400d05b0:	004136        	entry	a1, 32
400d05b3:	fea981        	l32r	a8, 400d0058 <_image_irom_vaddr+0x38> (3ffbfff4 <_char_out>)
400d05b6:	0829      	s32i.n	a2, a8, 0
400d05b8:	f01d      	retw.n
	...

400d05bc <z_thread_entry>:
400d05bc:	004136        	entry	a1, 32
400d05bf:	20c550        	or	a12, a5, a5
400d05c2:	20b440        	or	a11, a4, a4
400d05c5:	03ad      	mov.n	a10, a3
400d05c7:	0002e0        	callx8	a2
400d05ca:	b21a25        	call8	4008276c <z_impl_z_current_get>
400d05cd:	b21fe5        	call8	400827cc <z_impl_k_thread_abort>

400d05d0 <free_list_remove>:
400d05d0:	004136        	entry	a1, 32
400d05d3:	20a220        	or	a10, a2, a2
400d05d6:	20b330        	or	a11, a3, a3
400d05d9:	b08320        	addx8	a8, a3, a2
400d05dc:	011882        	l16ui	a8, a8, 2
400d05df:	418180        	srli	a8, a8, 1
400d05e2:	40f880        	nsau	a8, a8
400d05e5:	1fa0c2        	movi	a12, 31
400d05e8:	c0cc80        	sub	a12, a12, a8
400d05eb:	04fca5        	call8	400d55b4 <free_list_remove_bidx>
400d05ee:	f01d      	retw.n

400d05f0 <free_list_add>:
400d05f0:	004136        	entry	a1, 32
400d05f3:	20a220        	or	a10, a2, a2
400d05f6:	20b330        	or	a11, a3, a3
400d05f9:	b08320        	addx8	a8, a3, a2
400d05fc:	011882        	l16ui	a8, a8, 2
400d05ff:	418180        	srli	a8, a8, 1
400d0602:	40f880        	nsau	a8, a8
400d0605:	1fa0c2        	movi	a12, 31
400d0608:	c0cc80        	sub	a12, a12, a8
400d060b:	04ffe5        	call8	400d5608 <free_list_add_bidx>
400d060e:	f01d      	retw.n

400d0610 <free_chunk>:
400d0610:	004136        	entry	a1, 32
400d0613:	1143d0        	slli	a4, a3, 3
400d0616:	542b      	addi.n	a5, a4, 2
400d0618:	525a      	add.n	a5, a2, a5
400d061a:	0015b2        	l16ui	a11, a5, 0
400d061d:	41b1b0        	srli	a11, a11, 1
400d0620:	b3ba      	add.n	a11, a3, a11
400d0622:	b08b20        	addx8	a8, a11, a2
400d0625:	011882        	l16ui	a8, a8, 2
400d0628:	13e807        	bbsi	a8, 0, 400d063f <free_chunk+0x2f>
400d062b:	02ad      	mov.n	a10, a2
400d062d:	fffa25        	call8	400d05d0 <free_list_remove>
400d0630:	0015c2        	l16ui	a12, a5, 0
400d0633:	41c1c0        	srli	a12, a12, 1
400d0636:	c3ca      	add.n	a12, a3, a12
400d0638:	03bd      	mov.n	a11, a3
400d063a:	02ad      	mov.n	a10, a2
400d063c:	050725        	call8	400d56b0 <merge_chunks>
400d063f:	424a      	add.n	a4, a2, a4
400d0641:	0014b2        	l16ui	a11, a4, 0
400d0644:	c0b3b0        	sub	a11, a3, a11
400d0647:	b05b20        	addx8	a5, a11, a2
400d064a:	011552        	l16ui	a5, a5, 2
400d064d:	18e507        	bbsi	a5, 0, 400d0669 <free_chunk+0x59>
400d0650:	20a220        	or	a10, a2, a2
400d0653:	fff7e5        	call8	400d05d0 <free_list_remove>
400d0656:	0014b2        	l16ui	a11, a4, 0
400d0659:	03cd      	mov.n	a12, a3
400d065b:	c0b3b0        	sub	a11, a3, a11
400d065e:	02ad      	mov.n	a10, a2
400d0660:	0504e5        	call8	400d56b0 <merge_chunks>
400d0663:	001442        	l16ui	a4, a4, 0
400d0666:	c03340        	sub	a3, a3, a4
400d0669:	03bd      	mov.n	a11, a3
400d066b:	02ad      	mov.n	a10, a2
400d066d:	fff825        	call8	400d05f0 <free_list_add>
400d0670:	f01d      	retw.n
	...

400d0674 <alloc_chunk>:
400d0674:	004136        	entry	a1, 32
400d0677:	02ad      	mov.n	a10, a2
400d0679:	40f3d0        	nsau	a13, a3
400d067c:	fc1c      	movi.n	a12, 31
400d067e:	c0ccd0        	sub	a12, a12, a13
400d0681:	2c4b      	addi.n	a2, a12, 4
400d0683:	a022a0        	addx4	a2, a2, a10
400d0686:	0022e2        	l32i	a14, a2, 0
400d0689:	cebc      	beqz.n	a14, 400d06c9 <alloc_chunk+0x55>
400d068b:	03a0b2        	movi	a11, 3
400d068e:	04cc22        	addi	a2, a12, 4
400d0691:	a022a0        	addx4	a2, a2, a10
400d0694:	002222        	l32i	a2, a2, 0
400d0697:	1192d0        	slli	a9, a2, 3
400d069a:	b082a0        	addx8	a8, a2, a10
400d069d:	011882        	l16ui	a8, a8, 2
400d06a0:	418180        	srli	a8, a8, 1
400d06a3:	0b3837        	bltu	a8, a3, 400d06b2 <alloc_chunk+0x3e>
400d06a6:	20b220        	or	a11, a2, a2
400d06a9:	04f0a5        	call8	400d55b4 <free_list_remove_bidx>
400d06ac:	001306        	j	400d06fc <alloc_chunk+0x88>
400d06af:	00          	.byte 00
400d06b0:	00          	.byte 00
400d06b1:	00          	.byte 00
400d06b2:	809a90        	add	a9, a10, a9
400d06b5:	031982        	l16ui	a8, a9, 6
400d06b8:	04cc22        	addi	a2, a12, 4
400d06bb:	a022a0        	addx4	a2, a2, a10
400d06be:	006282        	s32i	a8, a2, 0
400d06c1:	bb0b      	addi.n	a11, a11, -1
400d06c3:	002b16        	beqz	a11, 400d06c9 <alloc_chunk+0x55>
400d06c6:	c49e87        	bne	a14, a8, 400d068e <alloc_chunk+0x1a>
400d06c9:	3a28      	l32i.n	a2, a10, 12
400d06cb:	032c      	movi.n	a3, 32
400d06cd:	c033d0        	sub	a3, a3, a13
400d06d0:	180c      	movi.n	a8, 1
400d06d2:	401300        	ssl	a3
400d06d5:	a18800        	sll	a8, a8
400d06d8:	608080        	neg	a8, a8
400d06db:	102280        	and	a2, a2, a8
400d06de:	a29c      	beqz.n	a2, 400d06fc <alloc_chunk+0x88>
400d06e0:	60c020        	neg	a12, a2
400d06e3:	10cc20        	and	a12, a12, a2
400d06e6:	40fcc0        	nsau	a12, a12
400d06e9:	60c0c0        	neg	a12, a12
400d06ec:	23cc22        	addi	a2, a12, 35
400d06ef:	a022a0        	addx4	a2, a2, a10
400d06f2:	0228      	l32i.n	a2, a2, 0
400d06f4:	1fccc2        	addi	a12, a12, 31
400d06f7:	02bd      	mov.n	a11, a2
400d06f9:	04eba5        	call8	400d55b4 <free_list_remove_bidx>
400d06fc:	f01d      	retw.n
	...

400d0700 <sys_heap_free>:
400d0700:	004136        	entry	a1, 32
400d0703:	01e316        	beqz	a3, 400d0725 <sys_heap_free+0x25>
400d0706:	002222        	l32i	a2, a2, 0
400d0709:	03bd      	mov.n	a11, a3
400d070b:	02ad      	mov.n	a10, a2
400d070d:	04fd65        	call8	400d56e4 <mem_to_chunkid>
400d0710:	b03a20        	addx8	a3, a10, a2
400d0713:	011382        	l16ui	a8, a3, 2
400d0716:	e97c      	movi.n	a9, -2
400d0718:	108890        	and	a8, a8, a9
400d071b:	015382        	s16i	a8, a3, 2
400d071e:	0abd      	mov.n	a11, a10
400d0720:	02ad      	mov.n	a10, a2
400d0722:	ffeee5        	call8	400d0610 <free_chunk>
400d0725:	f01d      	retw.n
	...

400d0728 <sys_heap_alloc>:
400d0728:	004136        	entry	a1, 32
400d072b:	0228      	l32i.n	a2, a2, 0
400d072d:	054316        	beqz	a3, 400d0785 <sys_heap_alloc+0x5d>
400d0730:	418330        	srli	a8, a3, 3
400d0733:	2248      	l32i.n	a4, a2, 8
400d0735:	51b847        	bgeu	a8, a4, 400d078a <sys_heap_alloc+0x62>
400d0738:	33bb      	addi.n	a3, a3, 11
400d073a:	413330        	srli	a3, a3, 3
400d073d:	20b330        	or	a11, a3, a3
400d0740:	02ad      	mov.n	a10, a2
400d0742:	fff325        	call8	400d0674 <alloc_chunk>
400d0745:	0a5d      	mov.n	a5, a10
400d0747:	045a16        	beqz	a10, 400d0790 <sys_heap_alloc+0x68>
400d074a:	116ad0        	slli	a6, a10, 3
400d074d:	b04a20        	addx8	a4, a10, a2
400d0750:	011442        	l16ui	a4, a4, 2
400d0753:	414140        	srli	a4, a4, 1
400d0756:	12b347        	bgeu	a3, a4, 400d076c <sys_heap_alloc+0x44>
400d0759:	3a3a      	add.n	a3, a10, a3
400d075b:	03cd      	mov.n	a12, a3
400d075d:	0abd      	mov.n	a11, a10
400d075f:	02ad      	mov.n	a10, a2
400d0761:	04f0e5        	call8	400d5670 <split_chunks>
400d0764:	03bd      	mov.n	a11, a3
400d0766:	20a220        	or	a10, a2, a2
400d0769:	ffe865        	call8	400d05f0 <free_list_add>
400d076c:	326a      	add.n	a3, a2, a6
400d076e:	011342        	l16ui	a4, a3, 2
400d0771:	160c      	movi.n	a6, 1
400d0773:	204460        	or	a4, a4, a6
400d0776:	015342        	s16i	a4, a3, 2
400d0779:	05bd      	mov.n	a11, a5
400d077b:	02ad      	mov.n	a10, a2
400d077d:	04e2a5        	call8	400d55a8 <chunk_mem>
400d0780:	0a2d      	mov.n	a2, a10
400d0782:	000306        	j	400d0792 <sys_heap_alloc+0x6a>
400d0785:	020c      	movi.n	a2, 0
400d0787:	0001c6        	j	400d0792 <sys_heap_alloc+0x6a>
400d078a:	020c      	movi.n	a2, 0
400d078c:	000086        	j	400d0792 <sys_heap_alloc+0x6a>
400d078f:	00          	.byte 00
400d0790:	020c      	movi.n	a2, 0
400d0792:	f01d      	retw.n

400d0794 <sys_heap_aligned_alloc>:
400d0794:	004136        	entry	a1, 32
400d0797:	0258      	l32i.n	a5, a2, 0
400d0799:	606030        	neg	a6, a3
400d079c:	106630        	and	a6, a6, a3
400d079f:	730b      	addi.n	a7, a3, -1
400d07a1:	107730        	and	a7, a7, a3
400d07a4:	878c      	beqz.n	a7, 400d07b0 <sys_heap_aligned_alloc+0x1c>
400d07a6:	1846f6        	bgeui	a6, 4, 400d07c2 <sys_heap_aligned_alloc+0x2e>
400d07a9:	073d      	mov.n	a3, a7
400d07ab:	067d      	mov.n	a7, a6
400d07ad:	000706        	j	400d07cd <sys_heap_aligned_alloc+0x39>
400d07b0:	1753f6        	bgeui	a3, 5, 400d07cb <sys_heap_aligned_alloc+0x37>
400d07b3:	20b440        	or	a11, a4, a4
400d07b6:	20a220        	or	a10, a2, a2
400d07b9:	fff6e5        	call8	400d0728 <sys_heap_alloc>
400d07bc:	202aa0        	or	a2, a10, a10
400d07bf:	002b46        	j	400d0870 <sys_heap_aligned_alloc+0xdc>
400d07c2:	073d      	mov.n	a3, a7
400d07c4:	067d      	mov.n	a7, a6
400d07c6:	460c      	movi.n	a6, 4
400d07c8:	000046        	j	400d07cd <sys_heap_aligned_alloc+0x39>
400d07cb:	460c      	movi.n	a6, 4
400d07cd:	093416        	beqz	a4, 400d0864 <sys_heap_aligned_alloc+0xd0>
400d07d0:	412340        	srli	a2, a4, 3
400d07d3:	2588      	l32i.n	a8, a5, 8
400d07d5:	023287        	bltu	a2, a8, 400d07db <sys_heap_aligned_alloc+0x47>
400d07d8:	002346        	j	400d0869 <sys_heap_aligned_alloc+0xd5>
400d07db:	b34a      	add.n	a11, a3, a4
400d07dd:	c0bb60        	sub	a11, a11, a6
400d07e0:	bbbb      	addi.n	a11, a11, 11
400d07e2:	41b3b0        	srli	a11, a11, 3
400d07e5:	05ad      	mov.n	a10, a5
400d07e7:	ffe8e5        	call8	400d0674 <alloc_chunk>
400d07ea:	0a6d      	mov.n	a6, a10
400d07ec:	07ea16        	beqz	a10, 400d086e <sys_heap_aligned_alloc+0xda>
400d07ef:	0abd      	mov.n	a11, a10
400d07f1:	05ad      	mov.n	a10, a5
400d07f3:	04db65        	call8	400d55a8 <chunk_mem>
400d07f6:	2a7a      	add.n	a2, a10, a7
400d07f8:	223a      	add.n	a2, a2, a3
400d07fa:	220b      	addi.n	a2, a2, -1
400d07fc:	603030        	neg	a3, a3
400d07ff:	102230        	and	a2, a2, a3
400d0802:	c02270        	sub	a2, a2, a7
400d0805:	424a      	add.n	a4, a2, a4
400d0807:	447b      	addi.n	a4, a4, 7
400d0809:	837c      	movi.n	a3, -8
400d080b:	104430        	and	a4, a4, a3
400d080e:	02bd      	mov.n	a11, a2
400d0810:	05ad      	mov.n	a10, a5
400d0812:	04ed25        	call8	400d56e4 <mem_to_chunkid>
400d0815:	0a3d      	mov.n	a3, a10
400d0817:	c04450        	sub	a4, a4, a5
400d081a:	214340        	srai	a4, a4, 3
400d081d:	047d      	mov.n	a7, a4
400d081f:	0fb6a7        	bgeu	a6, a10, 400d0832 <sys_heap_aligned_alloc+0x9e>
400d0822:	0acd      	mov.n	a12, a10
400d0824:	06bd      	mov.n	a11, a6
400d0826:	05ad      	mov.n	a10, a5
400d0828:	04e465        	call8	400d5670 <split_chunks>
400d082b:	06bd      	mov.n	a11, a6
400d082d:	05ad      	mov.n	a10, a5
400d082f:	ffdc25        	call8	400d05f0 <free_list_add>
400d0832:	1163d0        	slli	a6, a3, 3
400d0835:	b08350        	addx8	a8, a3, a5
400d0838:	011882        	l16ui	a8, a8, 2
400d083b:	418180        	srli	a8, a8, 1
400d083e:	838a      	add.n	a8, a3, a8
400d0840:	10b787        	bgeu	a7, a8, 400d0854 <sys_heap_aligned_alloc+0xc0>
400d0843:	04cd      	mov.n	a12, a4
400d0845:	03bd      	mov.n	a11, a3
400d0847:	20a550        	or	a10, a5, a5
400d084a:	04e265        	call8	400d5670 <split_chunks>
400d084d:	04bd      	mov.n	a11, a4
400d084f:	05ad      	mov.n	a10, a5
400d0851:	ffd9e5        	call8	400d05f0 <free_list_add>
400d0854:	556a      	add.n	a5, a5, a6
400d0856:	011532        	l16ui	a3, a5, 2
400d0859:	140c      	movi.n	a4, 1
400d085b:	203340        	or	a3, a3, a4
400d085e:	015532        	s16i	a3, a5, 2
400d0861:	0002c6        	j	400d0870 <sys_heap_aligned_alloc+0xdc>
400d0864:	020c      	movi.n	a2, 0
400d0866:	000186        	j	400d0870 <sys_heap_aligned_alloc+0xdc>
400d0869:	020c      	movi.n	a2, 0
400d086b:	000046        	j	400d0870 <sys_heap_aligned_alloc+0xdc>
400d086e:	020c      	movi.n	a2, 0
400d0870:	f01d      	retw.n
	...

400d0874 <sys_heap_init>:
400d0874:	004136        	entry	a1, 32
400d0877:	fcc442        	addi	a4, a4, -4
400d087a:	a37b      	addi.n	a10, a3, 7
400d087c:	887c      	movi.n	a8, -8
400d087e:	10aa80        	and	a10, a10, a8
400d0881:	e34a      	add.n	a14, a3, a4
400d0883:	10ee80        	and	a14, a14, a8
400d0886:	c0eea0        	sub	a14, a14, a10
400d0889:	4133e0        	srli	a3, a14, 3
400d088c:	02a9      	s32i.n	a10, a2, 0
400d088e:	2a39      	s32i.n	a3, a10, 8
400d0890:	080c      	movi.n	a8, 0
400d0892:	3a89      	s32i.n	a8, a10, 12
400d0894:	40f320        	nsau	a2, a3
400d0897:	0d2c      	movi.n	a13, 32
400d0899:	c0dd20        	sub	a13, a13, a2
400d089c:	4f2c      	movi.n	a15, 36
400d089e:	c0ff20        	sub	a15, a15, a2
400d08a1:	11ffe0        	slli	a15, a15, 2
400d08a4:	ff7b      	addi.n	a15, a15, 7
400d08a6:	41b3f0        	srli	a11, a15, 3
400d08a9:	000386        	j	400d08bb <sys_heap_init+0x47>
400d08ac:	00          	.byte 00
400d08ad:	04c892        	addi	a9, a8, 4
400d08b0:	a099a0        	addx4	a9, a9, a10
400d08b3:	00a0c2        	movi	a12, 0
400d08b6:	0069c2        	s32i	a12, a9, 0
400d08b9:	881b      	addi.n	a8, a8, 1
400d08bb:	ee28d7        	blt	a8, a13, 400d08ad <sys_heap_init+0x39>
400d08be:	8bba      	add.n	a8, a11, a11
400d08c0:	f48080        	extui	a8, a8, 0, 16
400d08c3:	015a82        	s16i	a8, a10, 2
400d08c6:	0d0c      	movi.n	a13, 0
400d08c8:	005ad2        	s16i	a13, a10, 0
400d08cb:	1c0c      	movi.n	a12, 1
400d08cd:	2088c0        	or	a8, a8, a12
400d08d0:	015a82        	s16i	a8, a10, 2
400d08d3:	c033b0        	sub	a3, a3, a11
400d08d6:	433a      	add.n	a4, a3, a3
400d08d8:	827c      	movi.n	a2, -8
400d08da:	108f20        	and	a8, a15, a2
400d08dd:	982b      	addi.n	a9, a8, 2
400d08df:	9a9a      	add.n	a9, a10, a9
400d08e1:	005942        	s16i	a4, a9, 0
400d08e4:	8a8a      	add.n	a8, a10, a8
400d08e6:	0058b2        	s16i	a11, a8, 0
400d08e9:	108e20        	and	a8, a14, a2
400d08ec:	982b      	addi.n	a9, a8, 2
400d08ee:	9a9a      	add.n	a9, a10, a9
400d08f0:	0059d2        	s16i	a13, a9, 0
400d08f3:	8a8a      	add.n	a8, a10, a8
400d08f5:	005832        	s16i	a3, a8, 0
400d08f8:	011832        	l16ui	a3, a8, 2
400d08fb:	2033c0        	or	a3, a3, a12
400d08fe:	015832        	s16i	a3, a8, 2
400d0901:	ffcee5        	call8	400d05f0 <free_list_add>
400d0904:	f01d      	retw.n
	...

400d0908 <z_log_minimal_printk>:
400d0908:	00a136        	entry	a1, 80
400d090b:	5139      	s32i.n	a3, a1, 20
400d090d:	6149      	s32i.n	a4, a1, 24
400d090f:	7159      	s32i.n	a5, a1, 28
400d0911:	8169      	s32i.n	a6, a1, 32
400d0913:	9179      	s32i.n	a7, a1, 36
400d0915:	10c1c2        	addi	a12, a1, 16
400d0918:	11c9      	s32i.n	a12, a1, 4
400d091a:	30c1b2        	addi	a11, a1, 48
400d091d:	01b9      	s32i.n	a11, a1, 0
400d091f:	4d0c      	movi.n	a13, 4
400d0921:	21d9      	s32i.n	a13, a1, 8
400d0923:	02ad      	mov.n	a10, a2
400d0925:	b38725        	call8	40084198 <vprintk>
400d0928:	f01d      	retw.n
	...

400d092c <spi_ll_master_cal_clock>:
400d092c:	006136        	entry	a1, 48
400d092f:	623b      	addi.n	a6, a2, 3
400d0931:	b36220        	movgez	a6, a2, a2
400d0934:	216260        	srai	a6, a6, 2
400d0937:	906660        	addx2	a6, a6, a6
400d093a:	022637        	blt	a6, a3, 400d0940 <spi_ll_master_cal_clock+0x14>
400d093d:	002a46        	j	400d09ea <spi_ll_master_cal_clock+0xbe>
400d0940:	0020c0        	memw
400d0943:	0138      	l32i.n	a3, a1, 0
400d0945:	c0af42        	movi	a4, -64
400d0948:	103340        	and	a3, a3, a4
400d094b:	0020c0        	memw
400d094e:	0139      	s32i.n	a3, a1, 0
400d0950:	0020c0        	memw
400d0953:	0138      	l32i.n	a3, a1, 0
400d0955:	fdc241        	l32r	a4, 400d0060 <_image_irom_vaddr+0x40> (fffff03f <_rtc_bss_end+0xaffff03f>)
400d0958:	103340        	and	a3, a3, a4
400d095b:	0020c0        	memw
400d095e:	0139      	s32i.n	a3, a1, 0
400d0960:	0020c0        	memw
400d0963:	0138      	l32i.n	a3, a1, 0
400d0965:	fdbf41        	l32r	a4, 400d0064 <_image_irom_vaddr+0x44> (fffc0fff <_rtc_bss_end+0xaffc0fff>)
400d0968:	103340        	and	a3, a3, a4
400d096b:	0020c0        	memw
400d096e:	0139      	s32i.n	a3, a1, 0
400d0970:	0020c0        	memw
400d0973:	0138      	l32i.n	a3, a1, 0
400d0975:	fdbc41        	l32r	a4, 400d0068 <_image_irom_vaddr+0x48> (8003ffff <_rtc_bss_end+0x3003ffff>)
400d0978:	103340        	and	a3, a3, a4
400d097b:	0020c0        	memw
400d097e:	0139      	s32i.n	a3, a1, 0
400d0980:	0020c0        	memw
400d0983:	0138      	l32i.n	a3, a1, 0
400d0985:	fdb941        	l32r	a4, 400d006c <_image_irom_vaddr+0x4c> (80000000 <_rtc_bss_end+0x30000000>)
400d0988:	203340        	or	a3, a3, a4
400d098b:	0020c0        	memw
400d098e:	0139      	s32i.n	a3, a1, 0
400d0990:	003dc6        	j	400d0a8b <spi_ll_master_cal_clock+0x15f>
400d0993:	00          	.byte 00
400d0994:	d282b0        	quos	a8, a2, a11
400d0997:	059f30        	extui	a9, a3, 31, 1
400d099a:	993a      	add.n	a9, a9, a3
400d099c:	219190        	srai	a9, a9, 1
400d099f:	889a      	add.n	a8, a8, a9
400d09a1:	d28830        	quos	a8, a8, a3
400d09a4:	0818a6        	blti	a8, 1, 400d09b0 <spi_ll_master_cal_clock+0x84>
400d09a7:	fdad61        	l32r	a6, 400d005c <_image_irom_vaddr+0x3c> (2000 <CONFIG_HEAP_MEM_POOL_SIZE+0x1000>)
400d09aa:	072687        	blt	a6, a8, 400d09b5 <spi_ll_master_cal_clock+0x89>
400d09ad:	0001c6        	j	400d09b8 <spi_ll_master_cal_clock+0x8c>
400d09b0:	180c      	movi.n	a8, 1
400d09b2:	000086        	j	400d09b8 <spi_ll_master_cal_clock+0x8c>
400d09b5:	fda981        	l32r	a8, 400d005c <_image_irom_vaddr+0x3c> (2000 <CONFIG_HEAP_MEM_POOL_SIZE+0x1000>)
400d09b8:	8298b0        	mull	a9, a8, a11
400d09bb:	d29290        	quos	a9, a2, a9
400d09be:	c09930        	sub	a9, a9, a3
400d09c1:	609190        	abs	a9, a9
400d09c4:	6c1b      	addi.n	a6, a12, 1
400d09c6:	1f0c      	movi.n	a15, 1
400d09c8:	0a0c      	movi.n	a10, 0
400d09ca:	83af60        	moveqz	a10, a15, a6
400d09cd:	74a0a0        	extui	a10, a10, 0, 8
400d09d0:	01ad97        	bge	a13, a9, 400d09d5 <spi_ll_master_cal_clock+0xa9>
400d09d3:	0f0c      	movi.n	a15, 0
400d09d5:	74f0f0        	extui	a15, a15, 0, 8
400d09d8:	20aaf0        	or	a10, a10, a15
400d09db:	5a8c      	beqz.n	a10, 400d09e4 <spi_ll_master_cal_clock+0xb8>
400d09dd:	09dd      	mov.n	a13, a9
400d09df:	08ed      	mov.n	a14, a8
400d09e1:	20cbb0        	or	a12, a11, a11
400d09e4:	bb1b      	addi.n	a11, a11, 1
400d09e6:	000206        	j	400d09f2 <spi_ll_master_cal_clock+0xc6>
400d09e9:	00          	.byte 00
400d09ea:	0d0c      	movi.n	a13, 0
400d09ec:	fe7c      	movi.n	a14, -1
400d09ee:	0ecd      	mov.n	a12, a14
400d09f0:	2b0c      	movi.n	a11, 2
400d09f2:	084c      	movi.n	a8, 64
400d09f4:	9ca8b7        	bge	a8, a11, 400d0994 <spi_ll_master_cal_clock+0x68>
400d09f7:	824c40        	mull	a4, a12, a4
400d09fa:	7fc462        	addi	a6, a4, 127
400d09fd:	ffa032        	movi	a3, 255
400d0a00:	363a      	add.n	a3, a6, a3
400d0a02:	b33660        	movgez	a3, a6, a6
400d0a05:	213830        	srai	a3, a3, 8
400d0a08:	80a062        	movi	a6, 128
400d0a0b:	022647        	blt	a6, a4, 400d0a11 <spi_ll_master_cal_clock+0xe5>
400d0a0e:	01a032        	movi	a3, 1
400d0a11:	0020c0        	memw
400d0a14:	0148      	l32i.n	a4, a1, 0
400d0a16:	fd9661        	l32r	a6, 400d0070 <_image_irom_vaddr+0x50> (7fffffff <_rtc_bss_end+0x2fffffff>)
400d0a19:	104460        	and	a4, a4, a6
400d0a1c:	0020c0        	memw
400d0a1f:	0149      	s32i.n	a4, a1, 0
400d0a21:	6c0b      	addi.n	a6, a12, -1
400d0a23:	546060        	extui	a6, a6, 0, 6
400d0a26:	118640        	slli	a8, a6, 12
400d0a29:	0020c0        	memw
400d0a2c:	0148      	l32i.n	a4, a1, 0
400d0a2e:	fd8d91        	l32r	a9, 400d0064 <_image_irom_vaddr+0x44> (fffc0fff <_rtc_bss_end+0xaffc0fff>)
400d0a31:	104490        	and	a4, a4, a9
400d0a34:	204480        	or	a4, a4, a8
400d0a37:	0020c0        	memw
400d0a3a:	0149      	s32i.n	a4, a1, 0
400d0a3c:	8e0b      	addi.n	a8, a14, -1
400d0a3e:	c48080        	extui	a8, a8, 0, 13
400d0a41:	0188e0        	slli	a8, a8, 18
400d0a44:	0020c0        	memw
400d0a47:	0148      	l32i.n	a4, a1, 0
400d0a49:	fd8791        	l32r	a9, 400d0068 <_image_irom_vaddr+0x48> (8003ffff <_rtc_bss_end+0x3003ffff>)
400d0a4c:	104490        	and	a4, a4, a9
400d0a4f:	204480        	or	a4, a4, a8
400d0a52:	0020c0        	memw
400d0a55:	0149      	s32i.n	a4, a1, 0
400d0a57:	330b      	addi.n	a3, a3, -1
400d0a59:	543030        	extui	a3, a3, 0, 6
400d0a5c:	1133a0        	slli	a3, a3, 6
400d0a5f:	0020c0        	memw
400d0a62:	0148      	l32i.n	a4, a1, 0
400d0a64:	fd7f81        	l32r	a8, 400d0060 <_image_irom_vaddr+0x40> (fffff03f <_rtc_bss_end+0xaffff03f>)
400d0a67:	104480        	and	a4, a4, a8
400d0a6a:	203430        	or	a3, a4, a3
400d0a6d:	0020c0        	memw
400d0a70:	0139      	s32i.n	a3, a1, 0
400d0a72:	0020c0        	memw
400d0a75:	0138      	l32i.n	a3, a1, 0
400d0a77:	c0af42        	movi	a4, -64
400d0a7a:	103340        	and	a3, a3, a4
400d0a7d:	203360        	or	a3, a3, a6
400d0a80:	0020c0        	memw
400d0a83:	0139      	s32i.n	a3, a1, 0
400d0a85:	82cce0        	mull	a12, a12, a14
400d0a88:	d222c0        	quos	a2, a2, a12
400d0a8b:	558c      	beqz.n	a5, 400d0a94 <spi_ll_master_cal_clock+0x168>
400d0a8d:	0020c0        	memw
400d0a90:	0138      	l32i.n	a3, a1, 0
400d0a92:	0539      	s32i.n	a3, a5, 0
400d0a94:	f01d      	retw.n
	...

400d0a98 <s_spi_hal_dma_init_config>:
400d0a98:	004136        	entry	a1, 32
400d0a9b:	4298      	l32i.n	a9, a2, 16
400d0a9d:	0020c0        	memw
400d0aa0:	402982        	l32i	a8, a9, 0x100
400d0aa3:	fd74a1        	l32r	a10, 400d0074 <_image_irom_vaddr+0x54> (1000 <CONFIG_HEAP_MEM_POOL_SIZE>)
400d0aa6:	2088a0        	or	a8, a8, a10
400d0aa9:	0020c0        	memw
400d0aac:	406982        	s32i	a8, a9, 0x100
400d0aaf:	3298      	l32i.n	a9, a2, 12
400d0ab1:	0020c0        	memw
400d0ab4:	402982        	l32i	a8, a9, 0x100
400d0ab7:	fd70a1        	l32r	a10, 400d0078 <_image_irom_vaddr+0x58> (800 <CONFIG_ISR_STACK_SIZE>)
400d0aba:	2088a0        	or	a8, a8, a10
400d0abd:	0020c0        	memw
400d0ac0:	406982        	s32i	a8, a9, 0x100
400d0ac3:	4228      	l32i.n	a2, a2, 16
400d0ac5:	0020c0        	memw
400d0ac8:	402282        	l32i	a8, a2, 0x100
400d0acb:	00a492        	movi	a9, 0x400
400d0ace:	208890        	or	a8, a8, a9
400d0ad1:	0020c0        	memw
400d0ad4:	406282        	s32i	a8, a2, 0x100
400d0ad7:	f01d      	retw.n
400d0ad9:	000000        	ill

400d0adc <spi_hal_init>:
400d0adc:	004136        	entry	a1, 32
400d0adf:	8c5c      	movi.n	a12, 88
400d0ae1:	0b0c      	movi.n	a11, 0
400d0ae3:	02ad      	mov.n	a10, a2
400d0ae5:	b37d65        	call8	400842bc <memset>
400d0ae8:	838c      	beqz.n	a3, 400d0af4 <spi_hal_init+0x18>
400d0aea:	0e1366        	bnei	a3, 1, 400d0afc <spi_hal_init+0x20>
400d0aed:	fd6531        	l32r	a3, 400d0084 <_image_irom_vaddr+0x64> (3ff64000 <SPI2>)
400d0af0:	0002c6        	j	400d0aff <spi_hal_init+0x23>
400d0af3:	00          	.byte 00
400d0af4:	fd6331        	l32r	a3, 400d0080 <_image_irom_vaddr+0x60> (3ff42000 <SPI1>)
400d0af7:	000106        	j	400d0aff <spi_hal_init+0x23>
400d0afa:	00          	.byte 00
400d0afb:	00          	.byte 00
400d0afc:	fd6031        	l32r	a3, 400d007c <_image_irom_vaddr+0x5c> (3ff65000 <SPI3>)
400d0aff:	026232        	s32i	a3, a2, 8
400d0b02:	002482        	l32i	a8, a4, 0
400d0b05:	036282        	s32i	a8, a2, 12
400d0b08:	1488      	l32i.n	a8, a4, 4
400d0b0a:	4289      	s32i.n	a8, a2, 16
400d0b0c:	080482        	l8ui	a8, a4, 8
400d0b0f:	144282        	s8i	a8, a2, 20
400d0b12:	3488      	l32i.n	a8, a4, 12
400d0b14:	0289      	s32i.n	a8, a2, 0
400d0b16:	4488      	l32i.n	a8, a4, 16
400d0b18:	1289      	s32i.n	a8, a2, 4
400d0b1a:	5488      	l32i.n	a8, a4, 20
400d0b1c:	6289      	s32i.n	a8, a2, 24
400d0b1e:	6488      	l32i.n	a8, a4, 24
400d0b20:	7289      	s32i.n	a8, a2, 28
400d0b22:	7448      	l32i.n	a4, a4, 28
400d0b24:	8249      	s32i.n	a4, a2, 32
400d0b26:	040c      	movi.n	a4, 0
400d0b28:	0020c0        	memw
400d0b2b:	5349      	s32i.n	a4, a3, 20
400d0b2d:	0020c0        	memw
400d0b30:	7348      	l32i.n	a4, a3, 28
400d0b32:	fd5581        	l32r	a8, 400d0088 <_image_irom_vaddr+0x68> (feffffff <_rtc_bss_end+0xaeffffff>)
400d0b35:	104480        	and	a4, a4, a8
400d0b38:	0020c0        	memw
400d0b3b:	7349      	s32i.n	a4, a3, 28
400d0b3d:	0020c0        	memw
400d0b40:	7348      	l32i.n	a4, a3, 28
400d0b42:	fd5281        	l32r	a8, 400d008c <_image_irom_vaddr+0x6c> (fdffffff <_rtc_bss_end+0xadffffff>)
400d0b45:	104480        	and	a4, a4, a8
400d0b48:	0020c0        	memw
400d0b4b:	7349      	s32i.n	a4, a3, 28
400d0b4d:	0020c0        	memw
400d0b50:	e348      	l32i.n	a4, a3, 56
400d0b52:	086c      	movi.n	a8, -32
400d0b54:	104480        	and	a4, a4, a8
400d0b57:	0020c0        	memw
400d0b5a:	e349      	s32i.n	a4, a3, 56
400d0b5c:	02ad      	mov.n	a10, a2
400d0b5e:	fff3a5        	call8	400d0a98 <s_spi_hal_dma_init_config>
400d0b61:	0020c0        	memw
400d0b64:	e328      	l32i.n	a2, a3, 56
400d0b66:	00a242        	movi	a4, 0x200
400d0b69:	202240        	or	a2, a2, a4
400d0b6c:	0020c0        	memw
400d0b6f:	e329      	s32i.n	a2, a3, 56
400d0b71:	0020c0        	memw
400d0b74:	e328      	l32i.n	a2, a3, 56
400d0b76:	041c      	movi.n	a4, 16
400d0b78:	202240        	or	a2, a2, a4
400d0b7b:	0020c0        	memw
400d0b7e:	e329      	s32i.n	a2, a3, 56
400d0b80:	0020c0        	memw
400d0b83:	5328      	l32i.n	a2, a3, 20
400d0b85:	fd4241        	l32r	a4, 400d0090 <_image_irom_vaddr+0x70> (ff9fffff <_rtc_bss_end+0xaf9fffff>)
400d0b88:	102240        	and	a2, a2, a4
400d0b8b:	0020c0        	memw
400d0b8e:	5329      	s32i.n	a2, a3, 20
400d0b90:	0020c0        	memw
400d0b93:	5328      	l32i.n	a2, a3, 20
400d0b95:	fd3f41        	l32r	a4, 400d0094 <_image_irom_vaddr+0x74> (fc7fffff <_rtc_bss_end+0xac7fffff>)
400d0b98:	102240        	and	a2, a2, a4
400d0b9b:	0020c0        	memw
400d0b9e:	5329      	s32i.n	a2, a3, 20
400d0ba0:	f01d      	retw.n
	...

400d0ba4 <spi_hal_cal_timing>:
400d0ba4:	004136        	entry	a1, 32
400d0ba7:	743030        	extui	a3, a3, 0, 8
400d0baa:	fd3b81        	l32r	a8, 400d0098 <_image_irom_vaddr+0x78> (4c4b400 <CONFIG_FLASH_SIZE+0x484b400>)
400d0bad:	d22820        	quos	a2, a8, a2
400d0bb0:	538c      	beqz.n	a3, 400d0bb9 <spi_hal_cal_timing+0x15>
400d0bb2:	991c      	movi.n	a9, 25
400d0bb4:	0000c6        	j	400d0bbb <spi_hal_cal_timing+0x17>
400d0bb7:	00          	.byte 00
400d0bb8:	00          	.byte 00
400d0bb9:	090c      	movi.n	a9, 0
400d0bbb:	841b      	addi.n	a8, a4, 1
400d0bbd:	889a      	add.n	a8, a8, a9
400d0bbf:	a08880        	addx4	a8, a8, a8
400d0bc2:	1188c0        	slli	a8, a8, 4
400d0bc5:	fd3541        	l32r	a4, 400d009c <_image_irom_vaddr+0x7c> (10624dd3 <CONFIG_SYS_CLOCK_HW_CYCLES_PER_SEC+0x21431d3>)
400d0bc8:	b24840        	mulsh	a4, a8, a4
400d0bcb:	214640        	srai	a4, a4, 6
400d0bce:	319f80        	srai	a9, a8, 31
400d0bd1:	c04490        	sub	a4, a4, a9
400d0bd4:	19ac92        	movi	a9, 0xfffffc19
400d0bd7:	01a897        	bge	a8, a9, 400d0bdc <spi_hal_cal_timing+0x38>
400d0bda:	040c      	movi.n	a4, 0
400d0bdc:	d29420        	quos	a9, a4, a2
400d0bdf:	0d19a6        	blti	a9, 1, 400d0bf0 <spi_hal_cal_timing+0x4c>
400d0be2:	891b      	addi.n	a8, a9, 1
400d0be4:	828820        	mull	a8, a8, a2
400d0be7:	c04840        	sub	a4, a8, a4
400d0bea:	440b      	addi.n	a4, a4, -1
400d0bec:	000386        	j	400d0bfe <spi_hal_cal_timing+0x5a>
400d0bef:	00          	.byte 00
400d0bf0:	1144e0        	slli	a4, a4, 2
400d0bf3:	05a247        	bge	a2, a4, 400d0bfc <spi_hal_cal_timing+0x58>
400d0bf6:	040c      	movi.n	a4, 0
400d0bf8:	000086        	j	400d0bfe <spi_hal_cal_timing+0x5a>
400d0bfb:	00          	.byte 00
400d0bfc:	f47c      	movi.n	a4, -1
400d0bfe:	0599      	s32i.n	a9, a5, 0
400d0c00:	0649      	s32i.n	a4, a6, 0
400d0c02:	f01d      	retw.n

400d0c04 <spi_hal_cal_clock_conf>:
400d0c04:	006136        	entry	a1, 48
400d0c07:	20d110        	or	a13, a1, a1
400d0c0a:	0322c2        	l32i	a12, a2, 12
400d0c0d:	22b8      	l32i.n	a11, a2, 8
400d0c0f:	fd22a1        	l32r	a10, 400d0098 <_image_irom_vaddr+0x78> (4c4b400 <CONFIG_FLASH_SIZE+0x484b400>)
400d0c12:	ffd1a5        	call8	400d092c <spi_ll_master_cal_clock>
400d0c15:	0a5d      	mov.n	a5, a10
400d0c17:	e18b      	addi.n	a14, a1, 8
400d0c19:	04c1d2        	addi	a13, a1, 4
400d0c1c:	42c8      	l32i.n	a12, a2, 16
400d0c1e:	1402b2        	l8ui	a11, a2, 20
400d0c21:	fff825        	call8	400d0ba4 <spi_hal_cal_timing>
400d0c24:	0288      	l32i.n	a8, a2, 0
400d0c26:	68cc      	bnez.n	a8, 400d0c30 <spi_hal_cal_clock_conf+0x2c>
400d0c28:	1188      	l32i.n	a8, a1, 4
400d0c2a:	288c      	beqz.n	a8, 400d0c30 <spi_hal_cal_clock_conf+0x2c>
400d0c2c:	1228      	l32i.n	a2, a2, 4
400d0c2e:	629c      	beqz.n	a2, 400d0c48 <spi_hal_cal_clock_conf+0x44>
400d0c30:	a48c      	beqz.n	a4, 400d0c3e <spi_hal_cal_clock_conf+0x3a>
400d0c32:	0128      	l32i.n	a2, a1, 0
400d0c34:	0429      	s32i.n	a2, a4, 0
400d0c36:	1128      	l32i.n	a2, a1, 4
400d0c38:	1429      	s32i.n	a2, a4, 4
400d0c3a:	2128      	l32i.n	a2, a1, 8
400d0c3c:	2429      	s32i.n	a2, a4, 8
400d0c3e:	c38c      	beqz.n	a3, 400d0c4e <spi_hal_cal_clock_conf+0x4a>
400d0c40:	0359      	s32i.n	a5, a3, 0
400d0c42:	020c      	movi.n	a2, 0
400d0c44:	000206        	j	400d0c50 <spi_hal_cal_clock_conf+0x4c>
400d0c47:	00          	.byte 00
400d0c48:	06a122        	movi	a2, 0x106
400d0c4b:	000046        	j	400d0c50 <spi_hal_cal_clock_conf+0x4c>
400d0c4e:	020c      	movi.n	a2, 0
400d0c50:	f01d      	retw.n
	...

400d0c54 <spi_ll_master_set_mode>:
400d0c54:	004136        	entry	a1, 32
400d0c57:	13ec      	bnez.n	a3, 400d0c7c <spi_ll_master_set_mode+0x28>
400d0c59:	0020c0        	memw
400d0c5c:	d238      	l32i.n	a3, a2, 52
400d0c5e:	fd1081        	l32r	a8, 400d00a0 <_image_irom_vaddr+0x80> (dfffffff <_rtc_bss_end+0x8fffffff>)
400d0c61:	103380        	and	a3, a3, a8
400d0c64:	0020c0        	memw
400d0c67:	d239      	s32i.n	a3, a2, 52
400d0c69:	0020c0        	memw
400d0c6c:	7238      	l32i.n	a3, a2, 28
400d0c6e:	7faf82        	movi	a8, -129
400d0c71:	103380        	and	a3, a3, a8
400d0c74:	0020c0        	memw
400d0c77:	7239      	s32i.n	a3, a2, 28
400d0c79:	001cc6        	j	400d0cf0 <spi_ll_master_set_mode+0x9c>
400d0c7c:	241366        	bnei	a3, 1, 400d0ca4 <spi_ll_master_set_mode+0x50>
400d0c7f:	0020c0        	memw
400d0c82:	d238      	l32i.n	a3, a2, 52
400d0c84:	fd0781        	l32r	a8, 400d00a0 <_image_irom_vaddr+0x80> (dfffffff <_rtc_bss_end+0x8fffffff>)
400d0c87:	103380        	and	a3, a3, a8
400d0c8a:	0020c0        	memw
400d0c8d:	d239      	s32i.n	a3, a2, 52
400d0c8f:	0020c0        	memw
400d0c92:	7238      	l32i.n	a3, a2, 28
400d0c94:	80a082        	movi	a8, 128
400d0c97:	203380        	or	a3, a3, a8
400d0c9a:	0020c0        	memw
400d0c9d:	7239      	s32i.n	a3, a2, 28
400d0c9f:	001346        	j	400d0cf0 <spi_ll_master_set_mode+0x9c>
400d0ca2:	00          	.byte 00
400d0ca3:	00          	.byte 00
400d0ca4:	252366        	bnei	a3, 2, 400d0ccd <spi_ll_master_set_mode+0x79>
400d0ca7:	0020c0        	memw
400d0caa:	d238      	l32i.n	a3, a2, 52
400d0cac:	fcfe81        	l32r	a8, 400d00a4 <_image_irom_vaddr+0x84> (20000000 <CONFIG_SYS_CLOCK_HW_CYCLES_PER_SEC+0x11b1e400>)
400d0caf:	203380        	or	a3, a3, a8
400d0cb2:	0020c0        	memw
400d0cb5:	d239      	s32i.n	a3, a2, 52
400d0cb7:	0020c0        	memw
400d0cba:	7238      	l32i.n	a3, a2, 28
400d0cbc:	80a082        	movi	a8, 128
400d0cbf:	203380        	or	a3, a3, a8
400d0cc2:	0020c0        	memw
400d0cc5:	7239      	s32i.n	a3, a2, 28
400d0cc7:	000946        	j	400d0cf0 <spi_ll_master_set_mode+0x9c>
400d0cca:	00          	.byte 00
400d0ccb:	00          	.byte 00
400d0ccc:	00          	.byte 00
400d0ccd:	1f3366        	bnei	a3, 3, 400d0cf0 <spi_ll_master_set_mode+0x9c>
400d0cd0:	0020c0        	memw
400d0cd3:	d238      	l32i.n	a3, a2, 52
400d0cd5:	fcf381        	l32r	a8, 400d00a4 <_image_irom_vaddr+0x84> (20000000 <CONFIG_SYS_CLOCK_HW_CYCLES_PER_SEC+0x11b1e400>)
400d0cd8:	203380        	or	a3, a3, a8
400d0cdb:	0020c0        	memw
400d0cde:	d239      	s32i.n	a3, a2, 52
400d0ce0:	0020c0        	memw
400d0ce3:	7238      	l32i.n	a3, a2, 28
400d0ce5:	7faf82        	movi	a8, -129
400d0ce8:	103380        	and	a3, a3, a8
400d0ceb:	0020c0        	memw
400d0cee:	7239      	s32i.n	a3, a2, 28
400d0cf0:	f01d      	retw.n
	...

400d0cf4 <spi_ll_master_set_line_mode>:
400d0cf4:	006136        	entry	a1, 48
400d0cf7:	0139      	s32i.n	a3, a1, 0
400d0cf9:	0020c0        	memw
400d0cfc:	2288      	l32i.n	a8, a2, 8
400d0cfe:	fcea91        	l32r	a9, 400d00a8 <_image_irom_vaddr+0x88> (fe6fbfff <_rtc_bss_end+0xae6fbfff>)
400d0d01:	108890        	and	a8, a8, a9
400d0d04:	0020c0        	memw
400d0d07:	2289      	s32i.n	a8, a2, 8
400d0d09:	0020c0        	memw
400d0d0c:	7288      	l32i.n	a8, a2, 28
400d0d0e:	fce791        	l32r	a9, 400d00ac <_image_irom_vaddr+0x8c> (ffff0fff <_rtc_bss_end+0xafff0fff>)
400d0d11:	108890        	and	a8, a8, a9
400d0d14:	0020c0        	memw
400d0d17:	7289      	s32i.n	a8, a2, 28
400d0d19:	020182        	l8ui	a8, a1, 2
400d0d1c:	052826        	beqi	a8, 2, 400d0d25 <spi_ll_master_set_line_mode+0x31>
400d0d1f:	654826        	beqi	a8, 4, 400d0d88 <spi_ll_master_set_line_mode+0x94>
400d0d22:	002f86        	j	400d0de4 <spi_ll_master_set_line_mode+0xf0>
400d0d25:	010182        	l8ui	a8, a1, 1
400d0d28:	251866        	bnei	a8, 1, 400d0d51 <spi_ll_master_set_line_mode+0x5d>
400d0d2b:	0020c0        	memw
400d0d2e:	2288      	l32i.n	a8, a2, 8
400d0d30:	fce091        	l32r	a9, 400d00b0 <_image_irom_vaddr+0x90> (4000 <CONFIG_COVERAGE_GCOV_HEAP_SIZE>)
400d0d33:	208890        	or	a8, a8, a9
400d0d36:	0020c0        	memw
400d0d39:	2289      	s32i.n	a8, a2, 8
400d0d3b:	0020c0        	memw
400d0d3e:	7288      	l32i.n	a8, a2, 28
400d0d40:	fccd91        	l32r	a9, 400d0074 <_image_irom_vaddr+0x54> (1000 <CONFIG_HEAP_MEM_POOL_SIZE>)
400d0d43:	208890        	or	a8, a8, a9
400d0d46:	0020c0        	memw
400d0d49:	7289      	s32i.n	a8, a2, 28
400d0d4b:	000946        	j	400d0d74 <spi_ll_master_set_line_mode+0x80>
400d0d4e:	00          	.byte 00
400d0d4f:	00          	.byte 00
400d0d50:	00          	.byte 00
400d0d51:	1f2866        	bnei	a8, 2, 400d0d74 <spi_ll_master_set_line_mode+0x80>
400d0d54:	0020c0        	memw
400d0d57:	2288      	l32i.n	a8, a2, 8
400d0d59:	fcd691        	l32r	a9, 400d00b4 <_image_irom_vaddr+0x94> (800000 <CONFIG_FLASH_SIZE+0x400000>)
400d0d5c:	208890        	or	a8, a8, a9
400d0d5f:	0020c0        	memw
400d0d62:	2289      	s32i.n	a8, a2, 8
400d0d64:	0020c0        	memw
400d0d67:	7288      	l32i.n	a8, a2, 28
400d0d69:	fcd191        	l32r	a9, 400d00b0 <_image_irom_vaddr+0x90> (4000 <CONFIG_COVERAGE_GCOV_HEAP_SIZE>)
400d0d6c:	208890        	or	a8, a8, a9
400d0d6f:	0020c0        	memw
400d0d72:	7289      	s32i.n	a8, a2, 28
400d0d74:	0020c0        	memw
400d0d77:	2288      	l32i.n	a8, a2, 8
400d0d79:	fcb891        	l32r	a9, 400d005c <_image_irom_vaddr+0x3c> (2000 <CONFIG_HEAP_MEM_POOL_SIZE+0x1000>)
400d0d7c:	208890        	or	a8, a8, a9
400d0d7f:	0020c0        	memw
400d0d82:	2289      	s32i.n	a8, a2, 8
400d0d84:	001706        	j	400d0de4 <spi_ll_master_set_line_mode+0xf0>
400d0d87:	00          	.byte 00
400d0d88:	010182        	l8ui	a8, a1, 1
400d0d8b:	221866        	bnei	a8, 1, 400d0db1 <spi_ll_master_set_line_mode+0xbd>
400d0d8e:	0020c0        	memw
400d0d91:	2288      	l32i.n	a8, a2, 8
400d0d93:	fcc991        	l32r	a9, 400d00b8 <_image_irom_vaddr+0x98> (100000 <_image_irom_start+0xe670c>)
400d0d96:	208890        	or	a8, a8, a9
400d0d99:	0020c0        	memw
400d0d9c:	2289      	s32i.n	a8, a2, 8
400d0d9e:	0020c0        	memw
400d0da1:	7288      	l32i.n	a8, a2, 28
400d0da3:	fcae91        	l32r	a9, 400d005c <_image_irom_vaddr+0x3c> (2000 <CONFIG_HEAP_MEM_POOL_SIZE+0x1000>)
400d0da6:	208890        	or	a8, a8, a9
400d0da9:	0020c0        	memw
400d0dac:	7289      	s32i.n	a8, a2, 28
400d0dae:	000886        	j	400d0dd4 <spi_ll_master_set_line_mode+0xe0>
400d0db1:	1f4866        	bnei	a8, 4, 400d0dd4 <spi_ll_master_set_line_mode+0xe0>
400d0db4:	0020c0        	memw
400d0db7:	2288      	l32i.n	a8, a2, 8
400d0db9:	fcc091        	l32r	a9, 400d00bc <_image_irom_vaddr+0x9c> (1000000 <CONFIG_FLASH_SIZE+0xc00000>)
400d0dbc:	208890        	or	a8, a8, a9
400d0dbf:	0020c0        	memw
400d0dc2:	2289      	s32i.n	a8, a2, 8
400d0dc4:	0020c0        	memw
400d0dc7:	7288      	l32i.n	a8, a2, 28
400d0dc9:	fcbd91        	l32r	a9, 400d00c0 <_image_irom_vaddr+0xa0> (8000 <_image_irom_size+0x22b8>)
400d0dcc:	208890        	or	a8, a8, a9
400d0dcf:	0020c0        	memw
400d0dd2:	7289      	s32i.n	a8, a2, 28
400d0dd4:	0020c0        	memw
400d0dd7:	2288      	l32i.n	a8, a2, 8
400d0dd9:	fca091        	l32r	a9, 400d005c <_image_irom_vaddr+0x3c> (2000 <CONFIG_HEAP_MEM_POOL_SIZE+0x1000>)
400d0ddc:	208890        	or	a8, a8, a9
400d0ddf:	0020c0        	memw
400d0de2:	2289      	s32i.n	a8, a2, 8
400d0de4:	f01d      	retw.n
	...

400d0de8 <spi_ll_write_buffer>:
400d0de8:	006136        	entry	a1, 48
400d0deb:	050c      	movi.n	a5, 0
400d0ded:	000886        	j	400d0e13 <spi_ll_write_buffer+0x2b>
400d0df0:	00          	.byte 00
400d0df1:	41b350        	srli	a11, a5, 3
400d0df4:	04a0c2        	movi	a12, 4
400d0df7:	80b3b0        	add	a11, a3, a11
400d0dfa:	20a110        	or	a10, a1, a1
400d0dfd:	b346e5        	call8	4008426c <memcpy>
400d0e00:	418550        	srli	a8, a5, 5
400d0e03:	20c882        	addi	a8, a8, 32
400d0e06:	a08820        	addx4	a8, a8, a2
400d0e09:	0198      	l32i.n	a9, a1, 0
400d0e0b:	0020c0        	memw
400d0e0e:	0899      	s32i.n	a9, a8, 0
400d0e10:	20c552        	addi	a5, a5, 32
400d0e13:	da3547        	bltu	a5, a4, 400d0df1 <spi_ll_write_buffer+0x9>
400d0e16:	f01d      	retw.n

400d0e18 <spi_ll_read_buffer>:
400d0e18:	006136        	entry	a1, 48
400d0e1b:	050c      	movi.n	a5, 0
400d0e1d:	000c86        	j	400d0e53 <spi_ll_read_buffer+0x3b>
400d0e20:	00          	.byte 00
400d0e21:	418550        	srli	a8, a5, 5
400d0e24:	20c882        	addi	a8, a8, 32
400d0e27:	a08820        	addx4	a8, a8, a2
400d0e2a:	0020c0        	memw
400d0e2d:	0888      	l32i.n	a8, a8, 0
400d0e2f:	0189      	s32i.n	a8, a1, 0
400d0e31:	c0c450        	sub	a12, a4, a5
400d0e34:	082c      	movi.n	a8, 32
400d0e36:	02a8c7        	bge	a8, a12, 400d0e3c <spi_ll_read_buffer+0x24>
400d0e39:	20c880        	or	a12, a8, a8
400d0e3c:	41a350        	srli	a10, a5, 3
400d0e3f:	8c7b      	addi.n	a8, a12, 7
400d0e41:	cceb      	addi.n	a12, a12, 14
400d0e43:	b3c880        	movgez	a12, a8, a8
400d0e46:	21c3c0        	srai	a12, a12, 3
400d0e49:	01bd      	mov.n	a11, a1
400d0e4b:	a3aa      	add.n	a10, a3, a10
400d0e4d:	b341e5        	call8	4008426c <memcpy>
400d0e50:	20c552        	addi	a5, a5, 32
400d0e53:	ca3547        	bltu	a5, a4, 400d0e21 <spi_ll_read_buffer+0x9>
400d0e56:	f01d      	retw.n

400d0e58 <spi_hal_setup_device>:
400d0e58:	004136        	entry	a1, 32
400d0e5b:	2228      	l32i.n	a2, a2, 8
400d0e5d:	33b8      	l32i.n	a11, a3, 12
400d0e5f:	7388      	l32i.n	a8, a3, 28
400d0e61:	2f6857        	bbci	a8, 5, 400d0e94 <spi_hal_setup_device+0x3c>
400d0e64:	0020c0        	memw
400d0e67:	d298      	l32i.n	a9, a2, 52
400d0e69:	249b90        	extui	a9, a9, 11, 3
400d0e6c:	180c      	movi.n	a8, 1
400d0e6e:	401b00        	ssl	a11
400d0e71:	a18800        	sll	a8, a8
400d0e74:	208890        	or	a8, a8, a9
400d0e77:	248080        	extui	a8, a8, 0, 3
400d0e7a:	118850        	slli	a8, a8, 11
400d0e7d:	0020c0        	memw
400d0e80:	d298      	l32i.n	a9, a2, 52
400d0e82:	fc90a1        	l32r	a10, 400d00c4 <_image_irom_vaddr+0xa4> (ffffc7ff <_rtc_bss_end+0xafffc7ff>)
400d0e85:	1099a0        	and	a9, a9, a10
400d0e88:	208980        	or	a8, a9, a8
400d0e8b:	0020c0        	memw
400d0e8e:	d289      	s32i.n	a8, a2, 52
400d0e90:	000c46        	j	400d0ec5 <spi_hal_setup_device+0x6d>
400d0e93:	00          	.byte 00
400d0e94:	0020c0        	memw
400d0e97:	d298      	l32i.n	a9, a2, 52
400d0e99:	249b90        	extui	a9, a9, 11, 3
400d0e9c:	1a0c      	movi.n	a10, 1
400d0e9e:	401b00        	ssl	a11
400d0ea1:	a1aa00        	sll	a10, a10
400d0ea4:	f87c      	movi.n	a8, -1
400d0ea6:	3088a0        	xor	a8, a8, a10
400d0ea9:	108890        	and	a8, a8, a9
400d0eac:	248080        	extui	a8, a8, 0, 3
400d0eaf:	118850        	slli	a8, a8, 11
400d0eb2:	0020c0        	memw
400d0eb5:	d298      	l32i.n	a9, a2, 52
400d0eb7:	fc83a1        	l32r	a10, 400d00c4 <_image_irom_vaddr+0xa4> (ffffc7ff <_rtc_bss_end+0xafffc7ff>)
400d0eba:	1099a0        	and	a9, a9, a10
400d0ebd:	208980        	or	a8, a9, a8
400d0ec0:	0020c0        	memw
400d0ec3:	d289      	s32i.n	a8, a2, 52
400d0ec5:	33b8      	l32i.n	a11, a3, 12
400d0ec7:	7388      	l32i.n	a8, a3, 28
400d0ec9:	306867        	bbci	a8, 6, 400d0efd <spi_hal_setup_device+0xa5>
400d0ecc:	0020c0        	memw
400d0ecf:	d298      	l32i.n	a9, a2, 52
400d0ed1:	249690        	extui	a9, a9, 6, 3
400d0ed4:	180c      	movi.n	a8, 1
400d0ed6:	401b00        	ssl	a11
400d0ed9:	a18800        	sll	a8, a8
400d0edc:	208890        	or	a8, a8, a9
400d0edf:	248080        	extui	a8, a8, 0, 3
400d0ee2:	1188a0        	slli	a8, a8, 6
400d0ee5:	0020c0        	memw
400d0ee8:	d298      	l32i.n	a9, a2, 52
400d0eea:	3faea2        	movi	a10, 0xfffffe3f
400d0eed:	1099a0        	and	a9, a9, a10
400d0ef0:	208980        	or	a8, a9, a8
400d0ef3:	0020c0        	memw
400d0ef6:	d289      	s32i.n	a8, a2, 52
400d0ef8:	000d46        	j	400d0f31 <spi_hal_setup_device+0xd9>
400d0efb:	00          	.byte 00
400d0efc:	00          	.byte 00
400d0efd:	0020c0        	memw
400d0f00:	0d2292        	l32i	a9, a2, 52
400d0f03:	249690        	extui	a9, a9, 6, 3
400d0f06:	01a0a2        	movi	a10, 1
400d0f09:	401b00        	ssl	a11
400d0f0c:	a1aa00        	sll	a10, a10
400d0f0f:	ffaf82        	movi	a8, -1
400d0f12:	3088a0        	xor	a8, a8, a10
400d0f15:	108890        	and	a8, a8, a9
400d0f18:	248080        	extui	a8, a8, 0, 3
400d0f1b:	1188a0        	slli	a8, a8, 6
400d0f1e:	0020c0        	memw
400d0f21:	d298      	l32i.n	a9, a2, 52
400d0f23:	3faea2        	movi	a10, 0xfffffe3f
400d0f26:	1099a0        	and	a9, a9, a10
400d0f29:	208980        	or	a8, a9, a8
400d0f2c:	0020c0        	memw
400d0f2f:	d289      	s32i.n	a8, a2, 52
400d0f31:	4388      	l32i.n	a8, a3, 16
400d0f33:	0020c0        	memw
400d0f36:	6289      	s32i.n	a8, a2, 24
400d0f38:	1c0392        	l8ui	a9, a3, 28
400d0f3b:	049390        	extui	a9, a9, 3, 1
400d0f3e:	019970        	slli	a9, a9, 25
400d0f41:	0020c0        	memw
400d0f44:	2288      	l32i.n	a8, a2, 8
400d0f46:	fc51a1        	l32r	a10, 400d008c <_image_irom_vaddr+0x6c> (fdffffff <_rtc_bss_end+0xadffffff>)
400d0f49:	1088a0        	and	a8, a8, a10
400d0f4c:	208890        	or	a8, a8, a9
400d0f4f:	0020c0        	memw
400d0f52:	2289      	s32i.n	a8, a2, 8
400d0f54:	1c0392        	l8ui	a9, a3, 28
400d0f57:	049290        	extui	a9, a9, 2, 1
400d0f5a:	019960        	slli	a9, a9, 26
400d0f5d:	0020c0        	memw
400d0f60:	2288      	l32i.n	a8, a2, 8
400d0f62:	fc59a1        	l32r	a10, 400d00c8 <_image_irom_vaddr+0xa8> (fbffffff <_rtc_bss_end+0xabffffff>)
400d0f65:	1088a0        	and	a8, a8, a10
400d0f68:	208890        	or	a8, a8, a9
400d0f6b:	0020c0        	memw
400d0f6e:	2289      	s32i.n	a8, a2, 8
400d0f70:	0003b2        	l8ui	a11, a3, 0
400d0f73:	02ad      	mov.n	a10, a2
400d0f75:	ffcde5        	call8	400d0c54 <spi_ll_master_set_mode>
400d0f78:	1c03a2        	l8ui	a10, a3, 28
400d0f7b:	280c      	movi.n	a8, 2
400d0f7d:	10aa80        	and	a10, a10, a8
400d0f80:	180c      	movi.n	a8, 1
400d0f82:	090c      	movi.n	a9, 0
400d0f84:	09cd      	mov.n	a12, a9
400d0f86:	83c8a0        	moveqz	a12, a8, a10
400d0f89:	0020c0        	memw
400d0f8c:	72a8      	l32i.n	a10, a2, 28
400d0f8e:	eb7c      	movi.n	a11, -2
400d0f90:	10aab0        	and	a10, a10, a11
400d0f93:	20aac0        	or	a10, a10, a12
400d0f96:	0020c0        	memw
400d0f99:	72a9      	s32i.n	a10, a2, 28
400d0f9b:	73c8      	l32i.n	a12, a3, 28
400d0f9d:	10cc80        	and	a12, a12, a8
400d0fa0:	11cc00        	slli	a12, a12, 16
400d0fa3:	0020c0        	memw
400d0fa6:	72a8      	l32i.n	a10, a2, 28
400d0fa8:	fc49d1        	l32r	a13, 400d00cc <_image_irom_vaddr+0xac> (fffeffff <_rtc_bss_end+0xaffeffff>)
400d0fab:	10aad0        	and	a10, a10, a13
400d0fae:	20aac0        	or	a10, a10, a12
400d0fb1:	0020c0        	memw
400d0fb4:	72a9      	s32i.n	a10, a2, 28
400d0fb6:	0403d2        	l8ui	a13, a3, 4
400d0fb9:	cd0b      	addi.n	a12, a13, -1
400d0fbb:	34c0c0        	extui	a12, a12, 0, 4
400d0fbe:	0020c0        	memw
400d0fc1:	52a8      	l32i.n	a10, a2, 20
400d0fc3:	0e7c      	movi.n	a14, -16
400d0fc5:	10aae0        	and	a10, a10, a14
400d0fc8:	20aac0        	or	a10, a10, a12
400d0fcb:	0020c0        	memw
400d0fce:	52a9      	s32i.n	a10, a2, 20
400d0fd0:	09cd      	mov.n	a12, a9
400d0fd2:	93c8d0        	movnez	a12, a8, a13
400d0fd5:	11ccb0        	slli	a12, a12, 5
400d0fd8:	0020c0        	memw
400d0fdb:	72a8      	l32i.n	a10, a2, 28
400d0fdd:	dfafd2        	movi	a13, -33
400d0fe0:	10aad0        	and	a10, a10, a13
400d0fe3:	20aac0        	or	a10, a10, a12
400d0fe6:	0020c0        	memw
400d0fe9:	72a9      	s32i.n	a10, a2, 28
400d0feb:	23d8      	l32i.n	a13, a3, 8
400d0fed:	34c0d0        	extui	a12, a13, 0, 4
400d0ff0:	11ccc0        	slli	a12, a12, 4
400d0ff3:	0020c0        	memw
400d0ff6:	52a8      	l32i.n	a10, a2, 20
400d0ff8:	0fafe2        	movi	a14, -241
400d0ffb:	10aae0        	and	a10, a10, a14
400d0ffe:	20aac0        	or	a10, a10, a12
400d1001:	0020c0        	memw
400d1004:	52a9      	s32i.n	a10, a2, 20
400d1006:	09cd      	mov.n	a12, a9
400d1008:	93c8d0        	movnez	a12, a8, a13
400d100b:	11ccc0        	slli	a12, a12, 4
400d100e:	0020c0        	memw
400d1011:	72a8      	l32i.n	a10, a2, 28
400d1013:	fd6c      	movi.n	a13, -17
400d1015:	10aad0        	and	a10, a10, a13
400d1018:	20aac0        	or	a10, a10, a12
400d101b:	0020c0        	memw
400d101e:	72a9      	s32i.n	a10, a2, 28
400d1020:	3338      	l32i.n	a3, a3, 12
400d1022:	09cd      	mov.n	a12, a9
400d1024:	93c830        	movnez	a12, a8, a3
400d1027:	0020c0        	memw
400d102a:	d2a8      	l32i.n	a10, a2, 52
400d102c:	10aab0        	and	a10, a10, a11
400d102f:	20aac0        	or	a10, a10, a12
400d1032:	0020c0        	memw
400d1035:	d2a9      	s32i.n	a10, a2, 52
400d1037:	a30b      	addi.n	a10, a3, -1
400d1039:	09bd      	mov.n	a11, a9
400d103b:	93b8a0        	movnez	a11, a8, a10
400d103e:	bbba      	add.n	a11, a11, a11
400d1040:	0020c0        	memw
400d1043:	d2a8      	l32i.n	a10, a2, 52
400d1045:	dc7c      	movi.n	a12, -3
400d1047:	10aac0        	and	a10, a10, a12
400d104a:	20aab0        	or	a10, a10, a11
400d104d:	0020c0        	memw
400d1050:	d2a9      	s32i.n	a10, a2, 52
400d1052:	fec332        	addi	a3, a3, -2
400d1055:	838930        	moveqz	a8, a9, a3
400d1058:	1188e0        	slli	a8, a8, 2
400d105b:	0020c0        	memw
400d105e:	d238      	l32i.n	a3, a2, 52
400d1060:	b97c      	movi.n	a9, -5
400d1062:	103390        	and	a3, a3, a9
400d1065:	203380        	or	a3, a3, a8
400d1068:	0020c0        	memw
400d106b:	d239      	s32i.n	a3, a2, 52
400d106d:	f01d      	retw.n
	...

400d1070 <spi_hal_setup_trans>:
400d1070:	008136        	entry	a1, 64
400d1073:	046122        	s32i	a2, a1, 16
400d1076:	022222        	l32i	a2, a2, 8
400d1079:	0020c0        	memw
400d107c:	0e2252        	l32i	a5, a2, 56
400d107f:	f66c      	movi.n	a6, -17
400d1081:	105560        	and	a5, a5, a6
400d1084:	0020c0        	memw
400d1087:	e259      	s32i.n	a5, a2, 56
400d1089:	0020c0        	memw
400d108c:	0258      	l32i.n	a5, a2, 0
400d108e:	a4b8      	l32i.n	a11, a4, 40
400d1090:	02ad      	mov.n	a10, a2
400d1092:	ffc625        	call8	400d0cf4 <spi_ll_master_set_line_mode>
400d1095:	9458      	l32i.n	a5, a4, 36
400d1097:	d58c      	beqz.n	a5, 400d10a8 <spi_hal_setup_trans+0x38>
400d1099:	7368      	l32i.n	a6, a3, 28
400d109b:	251c      	movi.n	a5, 18
400d109d:	105560        	and	a5, a5, a6
400d10a0:	092566        	bnei	a5, 2, 400d10ad <spi_hal_setup_trans+0x3d>
400d10a3:	5388      	l32i.n	a8, a3, 20
400d10a5:	000186        	j	400d10af <spi_hal_setup_trans+0x3f>
400d10a8:	080c      	movi.n	a8, 0
400d10aa:	000046        	j	400d10af <spi_hal_setup_trans+0x3f>
400d10ad:	080c      	movi.n	a8, 0
400d10af:	3458      	l32i.n	a5, a4, 12
400d10b1:	558a      	add.n	a5, a5, a8
400d10b3:	170c      	movi.n	a7, 1
400d10b5:	060c      	movi.n	a6, 0
400d10b7:	837650        	moveqz	a7, a6, a5
400d10ba:	017730        	slli	a7, a7, 29
400d10bd:	0020c0        	memw
400d10c0:	7268      	l32i.n	a6, a2, 28
400d10c2:	fbf791        	l32r	a9, 400d00a0 <_image_irom_vaddr+0x80> (dfffffff <_rtc_bss_end+0x8fffffff>)
400d10c5:	106690        	and	a6, a6, a9
400d10c8:	206670        	or	a6, a6, a7
400d10cb:	0020c0        	memw
400d10ce:	7269      	s32i.n	a6, a2, 28
400d10d0:	0020c0        	memw
400d10d3:	8268      	l32i.n	a6, a2, 32
400d10d5:	0020c0        	memw
400d10d8:	0169      	s32i.n	a6, a1, 0
400d10da:	550b      	addi.n	a5, a5, -1
400d10dc:	745050        	extui	a5, a5, 0, 8
400d10df:	0020c0        	memw
400d10e2:	004152        	s8i	a5, a1, 0
400d10e5:	0020c0        	memw
400d10e8:	0158      	l32i.n	a5, a1, 0
400d10ea:	0020c0        	memw
400d10ed:	8259      	s32i.n	a5, a2, 32
400d10ef:	6358      	l32i.n	a5, a3, 24
400d10f1:	01d5d6        	bgez	a5, 400d1112 <spi_hal_setup_trans+0xa2>
400d10f4:	0358      	l32i.n	a5, a3, 0
400d10f6:	1f2526        	beqi	a5, 2, 400d1119 <spi_hal_setup_trans+0xa9>
400d10f9:	0b35e6        	bgei	a5, 3, 400d1108 <spi_hal_setup_trans+0x98>
400d10fc:	05ac      	beqz.n	a5, 400d1120 <spi_hal_setup_trans+0xb0>
400d10fe:	261566        	bnei	a5, 1, 400d1128 <spi_hal_setup_trans+0xb8>
400d1101:	160c      	movi.n	a6, 1
400d1103:	050c      	movi.n	a5, 0
400d1105:	000cc6        	j	400d113c <spi_hal_setup_trans+0xcc>
400d1108:	243566        	bnei	a5, 3, 400d1130 <spi_hal_setup_trans+0xc0>
400d110b:	260c      	movi.n	a6, 2
400d110d:	050c      	movi.n	a5, 0
400d110f:	000a46        	j	400d113c <spi_hal_setup_trans+0xcc>
400d1112:	28ac      	beqz.n	a8, 400d1138 <spi_hal_setup_trans+0xc8>
400d1114:	060c      	movi.n	a6, 0
400d1116:	000886        	j	400d113c <spi_hal_setup_trans+0xcc>
400d1119:	160c      	movi.n	a6, 1
400d111b:	050c      	movi.n	a5, 0
400d111d:	0006c6        	j	400d113c <spi_hal_setup_trans+0xcc>
400d1120:	260c      	movi.n	a6, 2
400d1122:	050c      	movi.n	a5, 0
400d1124:	000506        	j	400d113c <spi_hal_setup_trans+0xcc>
400d1127:	00          	.byte 00
400d1128:	060c      	movi.n	a6, 0
400d112a:	065d      	mov.n	a5, a6
400d112c:	000306        	j	400d113c <spi_hal_setup_trans+0xcc>
400d112f:	00          	.byte 00
400d1130:	060c      	movi.n	a6, 0
400d1132:	065d      	mov.n	a5, a6
400d1134:	000106        	j	400d113c <spi_hal_setup_trans+0xcc>
400d1137:	00          	.byte 00
400d1138:	060c      	movi.n	a6, 0
400d113a:	065d      	mov.n	a5, a6
400d113c:	117600        	slli	a7, a6, 16
400d113f:	0020c0        	memw
400d1142:	5268      	l32i.n	a6, a2, 20
400d1144:	fbe381        	l32r	a8, 400d00d0 <_image_irom_vaddr+0xb0> (fffcffff <_rtc_bss_end+0xaffcffff>)
400d1147:	106680        	and	a6, a6, a8
400d114a:	206670        	or	a6, a6, a7
400d114d:	0020c0        	memw
400d1150:	5269      	s32i.n	a6, a2, 20
400d1152:	245050        	extui	a5, a5, 0, 3
400d1155:	0155e0        	slli	a5, a5, 18
400d1158:	0020c0        	memw
400d115b:	5268      	l32i.n	a6, a2, 20
400d115d:	fbdd71        	l32r	a7, 400d00d4 <_image_irom_vaddr+0xb4> (ffe3ffff <_rtc_bss_end+0xafe3ffff>)
400d1160:	106670        	and	a6, a6, a7
400d1163:	205650        	or	a5, a6, a5
400d1166:	0020c0        	memw
400d1169:	5259      	s32i.n	a5, a2, 20
400d116b:	4468      	l32i.n	a6, a4, 16
400d116d:	660b      	addi.n	a6, a6, -1
400d116f:	fbda51        	l32r	a5, 400d00d8 <_image_irom_vaddr+0xb8> (ffffff <CONFIG_FLASH_SIZE+0xbfffff>)
400d1172:	106650        	and	a6, a6, a5
400d1175:	0020c0        	memw
400d1178:	a258      	l32i.n	a5, a2, 40
400d117a:	fbd871        	l32r	a7, 400d00dc <_image_irom_vaddr+0xbc> (ff000000 <_rtc_bss_end+0xaf000000>)
400d117d:	105570        	and	a5, a5, a7
400d1180:	205560        	or	a5, a5, a6
400d1183:	0020c0        	memw
400d1186:	a259      	s32i.n	a5, a2, 40
400d1188:	1c0352        	l8ui	a5, a3, 28
400d118b:	260c      	movi.n	a6, 2
400d118d:	105560        	and	a5, a5, a6
400d1190:	745050        	extui	a5, a5, 0, 8
400d1193:	b59c      	beqz.n	a5, 400d11b2 <spi_hal_setup_trans+0x142>
400d1195:	5468      	l32i.n	a6, a4, 20
400d1197:	660b      	addi.n	a6, a6, -1
400d1199:	fbcf51        	l32r	a5, 400d00d8 <_image_irom_vaddr+0xb8> (ffffff <CONFIG_FLASH_SIZE+0xbfffff>)
400d119c:	106650        	and	a6, a6, a5
400d119f:	0020c0        	memw
400d11a2:	b258      	l32i.n	a5, a2, 44
400d11a4:	105570        	and	a5, a5, a7
400d11a7:	205560        	or	a5, a5, a6
400d11aa:	0020c0        	memw
400d11ad:	b259      	s32i.n	a5, a2, 44
400d11af:	000706        	j	400d11cf <spi_hal_setup_trans+0x15f>
400d11b2:	4468      	l32i.n	a6, a4, 16
400d11b4:	660b      	addi.n	a6, a6, -1
400d11b6:	fbc851        	l32r	a5, 400d00d8 <_image_irom_vaddr+0xb8> (ffffff <CONFIG_FLASH_SIZE+0xbfffff>)
400d11b9:	106650        	and	a6, a6, a5
400d11bc:	0020c0        	memw
400d11bf:	b258      	l32i.n	a5, a2, 44
400d11c1:	fbc671        	l32r	a7, 400d00dc <_image_irom_vaddr+0xbc> (ff000000 <_rtc_bss_end+0xaf000000>)
400d11c4:	105570        	and	a5, a5, a7
400d11c7:	205560        	or	a5, a5, a6
400d11ca:	0020c0        	memw
400d11cd:	b259      	s32i.n	a5, a2, 44
400d11cf:	14c8      	l32i.n	a12, a4, 4
400d11d1:	2468      	l32i.n	a6, a4, 8
400d11d3:	1c0352        	l8ui	a5, a3, 28
400d11d6:	270c      	movi.n	a7, 2
400d11d8:	105570        	and	a5, a5, a7
400d11db:	745050        	extui	a5, a5, 0, 8
400d11de:	65cc      	bnez.n	a5, 400d11e8 <spi_hal_setup_trans+0x178>
400d11e0:	1358      	l32i.n	a5, a3, 4
400d11e2:	258c      	beqz.n	a5, 400d11e8 <spi_hal_setup_trans+0x178>
400d11e4:	060c      	movi.n	a6, 0
400d11e6:	06cd      	mov.n	a12, a6
400d11e8:	760b      	addi.n	a7, a6, -1
400d11ea:	017760        	slli	a7, a7, 26
400d11ed:	0020c0        	memw
400d11f0:	8258      	l32i.n	a5, a2, 32
400d11f2:	fbbb81        	l32r	a8, 400d00e0 <_image_irom_vaddr+0xc0> (3ffffff <CONFIG_FLASH_SIZE+0x3bfffff>)
400d11f5:	105580        	and	a5, a5, a8
400d11f8:	205570        	or	a5, a5, a7
400d11fb:	0020c0        	memw
400d11fe:	8259      	s32i.n	a5, a2, 32
400d1200:	150c      	movi.n	a5, 1
400d1202:	070c      	movi.n	a7, 0
400d1204:	079d      	mov.n	a9, a7
400d1206:	939560        	movnez	a9, a5, a6
400d1209:	019920        	slli	a9, a9, 30
400d120c:	0020c0        	memw
400d120f:	7288      	l32i.n	a8, a2, 28
400d1211:	fbb4a1        	l32r	a10, 400d00e4 <_image_irom_vaddr+0xc4> (bfffffff <_rtc_bss_end+0x6fffffff>)
400d1214:	1088a0        	and	a8, a8, a10
400d1217:	208890        	or	a8, a8, a9
400d121a:	0020c0        	memw
400d121d:	7289      	s32i.n	a8, a2, 28
400d121f:	9c0b      	addi.n	a9, a12, -1
400d1221:	019940        	slli	a9, a9, 28
400d1224:	0020c0        	memw
400d1227:	9288      	l32i.n	a8, a2, 36
400d1229:	fbafa1        	l32r	a10, 400d00e8 <_image_irom_vaddr+0xc8> (fffffff <CONFIG_SYS_CLOCK_HW_CYCLES_PER_SEC+0x1b1e3ff>)
400d122c:	1088a0        	and	a8, a8, a10
400d122f:	208890        	or	a8, a8, a9
400d1232:	0020c0        	memw
400d1235:	9289      	s32i.n	a8, a2, 36
400d1237:	079d      	mov.n	a9, a7
400d1239:	9395c0        	movnez	a9, a5, a12
400d123c:	019910        	slli	a9, a9, 31
400d123f:	0020c0        	memw
400d1242:	7288      	l32i.n	a8, a2, 28
400d1244:	fb8ba1        	l32r	a10, 400d0070 <_image_irom_vaddr+0x50> (7fffffff <_rtc_bss_end+0x2fffffff>)
400d1247:	1088a0        	and	a8, a8, a10
400d124a:	208890        	or	a8, a8, a9
400d124d:	0020c0        	memw
400d1250:	7289      	s32i.n	a8, a2, 28
400d1252:	1c03d2        	l8ui	a13, a3, 28
400d1255:	04d2d0        	extui	a13, a13, 2, 1
400d1258:	0014b2        	l16ui	a11, a4, 0
400d125b:	02ad      	mov.n	a10, a2
400d125d:	044a65        	call8	400d5704 <spi_ll_set_command>
400d1260:	73f8      	l32i.n	a15, a3, 28
400d1262:	04f2f0        	extui	a15, a15, 2, 1
400d1265:	06ed      	mov.n	a14, a6
400d1267:	64c8      	l32i.n	a12, a4, 24
400d1269:	74d8      	l32i.n	a13, a4, 28
400d126b:	20a220        	or	a10, a2, a2
400d126e:	044f65        	call8	400d5764 <spi_ll_set_address>
400d1271:	b438      	l32i.n	a3, a4, 44
400d1273:	835730        	moveqz	a5, a7, a3
400d1276:	015520        	slli	a5, a5, 30
400d1279:	0020c0        	memw
400d127c:	d238      	l32i.n	a3, a2, 52
400d127e:	fb9961        	l32r	a6, 400d00e4 <_image_irom_vaddr+0xc4> (bfffffff <_rtc_bss_end+0x6fffffff>)
400d1281:	103360        	and	a3, a3, a6
400d1284:	203350        	or	a3, a3, a5
400d1287:	0020c0        	memw
400d128a:	d239      	s32i.n	a3, a2, 52
400d128c:	0c3c      	movi.n	a12, 48
400d128e:	04bd      	mov.n	a11, a4
400d1290:	4128      	l32i.n	a2, a1, 16
400d1292:	28c2a2        	addi	a10, a2, 40
400d1295:	b2fd65        	call8	4008426c <memcpy>
400d1298:	f01d      	retw.n
	...

400d129c <spi_hal_prepare_data>:
400d129c:	004136        	entry	a1, 32
400d129f:	022252        	l32i	a5, a2, 8
400d12a2:	0924b2        	l32i	a11, a4, 36
400d12a5:	099b16        	beqz	a11, 400d1342 <spi_hal_prepare_data+0xa6>
400d12a8:	140282        	l8ui	a8, a2, 20
400d12ab:	0cb816        	beqz	a8, 400d137a <spi_hal_prepare_data+0xde>
400d12ae:	0524c2        	l32i	a12, a4, 20
400d12b1:	8c7b      	addi.n	a8, a12, 7
400d12b3:	cceb      	addi.n	a12, a12, 14
400d12b5:	b3c880        	movgez	a12, a8, a8
400d12b8:	1e0c      	movi.n	a14, 1
400d12ba:	fb8cd1        	l32r	a13, 400d00ec <_image_irom_vaddr+0xcc> (ffc <CONFIG_ISR_STACK_SIZE+0x7fc>)
400d12bd:	21c3c0        	srai	a12, a12, 3
400d12c0:	12a8      	l32i.n	a10, a2, 4
400d12c2:	001ee5        	call8	400d14b0 <lldesc_setup_link_constrained>
400d12c5:	3288      	l32i.n	a8, a2, 12
400d12c7:	0020c0        	memw
400d12ca:	402892        	l32i	a9, a8, 0x100
400d12cd:	4a0c      	movi.n	a10, 4
400d12cf:	2099a0        	or	a9, a9, a10
400d12d2:	0020c0        	memw
400d12d5:	406892        	s32i	a9, a8, 0x100
400d12d8:	0020c0        	memw
400d12db:	402892        	l32i	a9, a8, 0x100
400d12de:	ba7c      	movi.n	a10, -5
400d12e0:	1099a0        	and	a9, a9, a10
400d12e3:	0020c0        	memw
400d12e6:	406892        	s32i	a9, a8, 0x100
400d12e9:	2288      	l32i.n	a8, a2, 8
400d12eb:	0020c0        	memw
400d12ee:	402892        	l32i	a9, a8, 0x100
400d12f1:	0a3c      	movi.n	a10, 48
400d12f3:	2099a0        	or	a9, a9, a10
400d12f6:	0020c0        	memw
400d12f9:	406892        	s32i	a9, a8, 0x100
400d12fc:	0020c0        	memw
400d12ff:	402892        	l32i	a9, a8, 0x100
400d1302:	cfafa2        	movi	a10, -49
400d1305:	1099a0        	and	a9, a9, a10
400d1308:	0020c0        	memw
400d130b:	406892        	s32i	a9, a8, 0x100
400d130e:	3298      	l32i.n	a9, a2, 12
400d1310:	12a8      	l32i.n	a10, a2, 4
400d1312:	fb7781        	l32r	a8, 400d00f0 <_image_irom_vaddr+0xd0> (fffff <_image_irom_start+0xe670b>)
400d1315:	10aa80        	and	a10, a10, a8
400d1318:	0020c0        	memw
400d131b:	422982        	l32i	a8, a9, 0x108
400d131e:	fb75b1        	l32r	a11, 400d00f4 <_image_irom_vaddr+0xd4> (fff00000 <_rtc_bss_end+0xaff00000>)
400d1321:	1088b0        	and	a8, a8, a11
400d1324:	2088a0        	or	a8, a8, a10
400d1327:	0020c0        	memw
400d132a:	426982        	s32i	a8, a9, 0x108
400d132d:	0020c0        	memw
400d1330:	422982        	l32i	a8, a9, 0x108
400d1333:	fb5ca1        	l32r	a10, 400d00a4 <_image_irom_vaddr+0x84> (20000000 <CONFIG_SYS_CLOCK_HW_CYCLES_PER_SEC+0x11b1e400>)
400d1336:	2088a0        	or	a8, a8, a10
400d1339:	0020c0        	memw
400d133c:	426982        	s32i	a8, a9, 0x108
400d133f:	000dc6        	j	400d137a <spi_hal_prepare_data+0xde>
400d1342:	140282        	l8ui	a8, a2, 20
400d1345:	18bc      	beqz.n	a8, 400d137a <spi_hal_prepare_data+0xde>
400d1347:	1c0382        	l8ui	a8, a3, 28
400d134a:	290c      	movi.n	a9, 2
400d134c:	108890        	and	a8, a8, a9
400d134f:	748080        	extui	a8, a8, 0, 8
400d1352:	48ec      	bnez.n	a8, 400d137a <spi_hal_prepare_data+0xde>
400d1354:	3288      	l32i.n	a8, a2, 12
400d1356:	0020c0        	memw
400d1359:	422892        	l32i	a9, a8, 0x108
400d135c:	fb66a1        	l32r	a10, 400d00f4 <_image_irom_vaddr+0xd4> (fff00000 <_rtc_bss_end+0xaff00000>)
400d135f:	1099a0        	and	a9, a9, a10
400d1362:	0020c0        	memw
400d1365:	426892        	s32i	a9, a8, 0x108
400d1368:	0020c0        	memw
400d136b:	422892        	l32i	a9, a8, 0x108
400d136e:	fb4da1        	l32r	a10, 400d00a4 <_image_irom_vaddr+0x84> (20000000 <CONFIG_SYS_CLOCK_HW_CYCLES_PER_SEC+0x11b1e400>)
400d1371:	2099a0        	or	a9, a9, a10
400d1374:	0020c0        	memw
400d1377:	426892        	s32i	a9, a8, 0x108
400d137a:	84b8      	l32i.n	a11, a4, 32
400d137c:	0a4b16        	beqz	a11, 400d1424 <spi_hal_prepare_data+0x188>
400d137f:	140282        	l8ui	a8, a2, 20
400d1382:	b8cc      	bnez.n	a8, 400d1391 <spi_hal_prepare_data+0xf5>
400d1384:	44c8      	l32i.n	a12, a4, 16
400d1386:	20a550        	or	a10, a5, a5
400d1389:	ffa5e5        	call8	400d0de8 <spi_ll_write_buffer>
400d138c:	002506        	j	400d1424 <spi_hal_prepare_data+0x188>
400d138f:	00          	.byte 00
400d1390:	00          	.byte 00
400d1391:	0424c2        	l32i	a12, a4, 16
400d1394:	07cc82        	addi	a8, a12, 7
400d1397:	0eccc2        	addi	a12, a12, 14
400d139a:	b3c880        	movgez	a12, a8, a8
400d139d:	0e0c      	movi.n	a14, 0
400d139f:	fb53d1        	l32r	a13, 400d00ec <_image_irom_vaddr+0xcc> (ffc <CONFIG_ISR_STACK_SIZE+0x7fc>)
400d13a2:	21c3c0        	srai	a12, a12, 3
400d13a5:	02a8      	l32i.n	a10, a2, 0
400d13a7:	0010a5        	call8	400d14b0 <lldesc_setup_link_constrained>
400d13aa:	4288      	l32i.n	a8, a2, 16
400d13ac:	0020c0        	memw
400d13af:	402892        	l32i	a9, a8, 0x100
400d13b2:	8a0c      	movi.n	a10, 8
400d13b4:	2099a0        	or	a9, a9, a10
400d13b7:	0020c0        	memw
400d13ba:	406892        	s32i	a9, a8, 0x100
400d13bd:	0020c0        	memw
400d13c0:	402892        	l32i	a9, a8, 0x100
400d13c3:	7a7c      	movi.n	a10, -9
400d13c5:	1099a0        	and	a9, a9, a10
400d13c8:	0020c0        	memw
400d13cb:	406892        	s32i	a9, a8, 0x100
400d13ce:	2288      	l32i.n	a8, a2, 8
400d13d0:	0020c0        	memw
400d13d3:	402892        	l32i	a9, a8, 0x100
400d13d6:	0a3c      	movi.n	a10, 48
400d13d8:	2099a0        	or	a9, a9, a10
400d13db:	0020c0        	memw
400d13de:	406892        	s32i	a9, a8, 0x100
400d13e1:	0020c0        	memw
400d13e4:	402892        	l32i	a9, a8, 0x100
400d13e7:	cfafa2        	movi	a10, -49
400d13ea:	1099a0        	and	a9, a9, a10
400d13ed:	0020c0        	memw
400d13f0:	406892        	s32i	a9, a8, 0x100
400d13f3:	4288      	l32i.n	a8, a2, 16
400d13f5:	0298      	l32i.n	a9, a2, 0
400d13f7:	fb3e21        	l32r	a2, 400d00f0 <_image_irom_vaddr+0xd0> (fffff <_image_irom_start+0xe670b>)
400d13fa:	109920        	and	a9, a9, a2
400d13fd:	0020c0        	memw
400d1400:	412822        	l32i	a2, a8, 0x104
400d1403:	fb3ca1        	l32r	a10, 400d00f4 <_image_irom_vaddr+0xd4> (fff00000 <_rtc_bss_end+0xaff00000>)
400d1406:	1022a0        	and	a2, a2, a10
400d1409:	202290        	or	a2, a2, a9
400d140c:	0020c0        	memw
400d140f:	416822        	s32i	a2, a8, 0x104
400d1412:	0020c0        	memw
400d1415:	412822        	l32i	a2, a8, 0x104
400d1418:	fb2391        	l32r	a9, 400d00a4 <_image_irom_vaddr+0x84> (20000000 <CONFIG_SYS_CLOCK_HW_CYCLES_PER_SEC+0x11b1e400>)
400d141b:	202290        	or	a2, a2, a9
400d141e:	0020c0        	memw
400d1421:	416822        	s32i	a2, a8, 0x104
400d1424:	1c0322        	l8ui	a2, a3, 28
400d1427:	230c      	movi.n	a3, 2
400d1429:	102230        	and	a2, a2, a3
400d142c:	742020        	extui	a2, a2, 0, 8
400d142f:	22cc      	bnez.n	a2, 400d1435 <spi_hal_prepare_data+0x199>
400d1431:	9428      	l32i.n	a2, a4, 36
400d1433:	22cc      	bnez.n	a2, 400d1439 <spi_hal_prepare_data+0x19d>
400d1435:	8428      	l32i.n	a2, a4, 32
400d1437:	129c      	beqz.n	a2, 400d144c <spi_hal_prepare_data+0x1b0>
400d1439:	0020c0        	memw
400d143c:	7528      	l32i.n	a2, a5, 28
400d143e:	fb2e31        	l32r	a3, 400d00f8 <_image_irom_vaddr+0xd8> (8000000 <CONFIG_FLASH_SIZE+0x7c00000>)
400d1441:	202230        	or	a2, a2, a3
400d1444:	0020c0        	memw
400d1447:	7529      	s32i.n	a2, a5, 28
400d1449:	0003c6        	j	400d145c <spi_hal_prepare_data+0x1c0>
400d144c:	0020c0        	memw
400d144f:	7528      	l32i.n	a2, a5, 28
400d1451:	fb2a31        	l32r	a3, 400d00fc <_image_irom_vaddr+0xdc> (f7ffffff <_rtc_bss_end+0xa7ffffff>)
400d1454:	102230        	and	a2, a2, a3
400d1457:	0020c0        	memw
400d145a:	7529      	s32i.n	a2, a5, 28
400d145c:	9438      	l32i.n	a3, a4, 36
400d145e:	140c      	movi.n	a4, 1
400d1460:	020c      	movi.n	a2, 0
400d1462:	834230        	moveqz	a4, a2, a3
400d1465:	014440        	slli	a4, a4, 28
400d1468:	0020c0        	memw
400d146b:	7528      	l32i.n	a2, a5, 28
400d146d:	fb2431        	l32r	a3, 400d0100 <_image_irom_vaddr+0xe0> (efffffff <_rtc_bss_end+0x9fffffff>)
400d1470:	102230        	and	a2, a2, a3
400d1473:	202240        	or	a2, a2, a4
400d1476:	0020c0        	memw
400d1479:	7529      	s32i.n	a2, a5, 28
400d147b:	f01d      	retw.n
400d147d:	000000        	ill

400d1480 <spi_hal_user_start>:
400d1480:	004136        	entry	a1, 32
400d1483:	2298      	l32i.n	a9, a2, 8
400d1485:	0020c0        	memw
400d1488:	0988      	l32i.n	a8, a9, 0
400d148a:	fb1ea1        	l32r	a10, 400d0104 <_image_irom_vaddr+0xe4> (40000 <_image_irom_start+0x2670c>)
400d148d:	2088a0        	or	a8, a8, a10
400d1490:	0020c0        	memw
400d1493:	0989      	s32i.n	a8, a9, 0
400d1495:	f01d      	retw.n
	...

400d1498 <spi_hal_fetch_result>:
400d1498:	004136        	entry	a1, 32
400d149b:	1322b2        	l32i	a11, a2, 76
400d149e:	ab8c      	beqz.n	a11, 400d14ac <spi_hal_fetch_result+0x14>
400d14a0:	140282        	l8ui	a8, a2, 20
400d14a3:	58cc      	bnez.n	a8, 400d14ac <spi_hal_fetch_result+0x14>
400d14a5:	f2c8      	l32i.n	a12, a2, 60
400d14a7:	22a8      	l32i.n	a10, a2, 8
400d14a9:	ff96e5        	call8	400d0e18 <spi_ll_read_buffer>
400d14ac:	f01d      	retw.n
	...

400d14b0 <lldesc_setup_link_constrained>:
400d14b0:	004136        	entry	a1, 32
400d14b3:	746060        	extui	a6, a6, 0, 8
400d14b6:	080c      	movi.n	a8, 0
400d14b8:	003146        	j	400d1581 <lldesc_setup_link_constrained+0xd1>
400d14bb:	00          	.byte 00
400d14bc:	042547        	blt	a5, a4, 400d14c4 <lldesc_setup_link_constrained+0x14>
400d14bf:	04ad      	mov.n	a10, a4
400d14c1:	000046        	j	400d14c6 <lldesc_setup_link_constrained+0x16>
400d14c4:	05ad      	mov.n	a10, a5
400d14c6:	e6bc      	beqz.n	a6, 400d1508 <lldesc_setup_link_constrained+0x58>
400d14c8:	9a3b      	addi.n	a9, a10, 3
400d14ca:	f49090        	extui	a9, a9, 0, 16
400d14cd:	90b880        	addx2	a11, a8, a8
400d14d0:	a0bb20        	addx4	a11, a11, a2
400d14d3:	fb06c1        	l32r	a12, 400d00ec <_image_irom_vaddr+0xcc> (ffc <CONFIG_ISR_STACK_SIZE+0x7fc>)
400d14d6:	1099c0        	and	a9, a9, a12
400d14d9:	b49090        	extui	a9, a9, 0, 12
400d14dc:	0020c0        	memw
400d14df:	0bc8      	l32i.n	a12, a11, 0
400d14e1:	fb09d1        	l32r	a13, 400d0108 <_image_irom_vaddr+0xe8> (fffff000 <_rtc_bss_end+0xaffff000>)
400d14e4:	10ccd0        	and	a12, a12, a13
400d14e7:	20cc90        	or	a12, a12, a9
400d14ea:	0020c0        	memw
400d14ed:	0bc9      	s32i.n	a12, a11, 0
400d14ef:	119940        	slli	a9, a9, 12
400d14f2:	0020c0        	memw
400d14f5:	0bc8      	l32i.n	a12, a11, 0
400d14f7:	fb05d1        	l32r	a13, 400d010c <_image_irom_vaddr+0xec> (ff000fff <_rtc_bss_end+0xaf000fff>)
400d14fa:	10ccd0        	and	a12, a12, a13
400d14fd:	209c90        	or	a9, a12, a9
400d1500:	0020c0        	memw
400d1503:	0b99      	s32i.n	a9, a11, 0
400d1505:	000c46        	j	400d153a <lldesc_setup_link_constrained+0x8a>
400d1508:	909880        	addx2	a9, a8, a8
400d150b:	a09920        	addx4	a9, a9, a2
400d150e:	b4b0a0        	extui	a11, a10, 0, 12
400d1511:	0020c0        	memw
400d1514:	09c8      	l32i.n	a12, a9, 0
400d1516:	fafcd1        	l32r	a13, 400d0108 <_image_irom_vaddr+0xe8> (fffff000 <_rtc_bss_end+0xaffff000>)
400d1519:	10ccd0        	and	a12, a12, a13
400d151c:	20ccb0        	or	a12, a12, a11
400d151f:	0020c0        	memw
400d1522:	09c9      	s32i.n	a12, a9, 0
400d1524:	11bb40        	slli	a11, a11, 12
400d1527:	0020c0        	memw
400d152a:	09c8      	l32i.n	a12, a9, 0
400d152c:	faf8d1        	l32r	a13, 400d010c <_image_irom_vaddr+0xec> (ff000fff <_rtc_bss_end+0xaf000fff>)
400d152f:	10ccd0        	and	a12, a12, a13
400d1532:	20bcb0        	or	a11, a12, a11
400d1535:	0020c0        	memw
400d1538:	09b9      	s32i.n	a11, a9, 0
400d153a:	909880        	addx2	a9, a8, a8
400d153d:	a09920        	addx4	a9, a9, a2
400d1540:	1939      	s32i.n	a3, a9, 4
400d1542:	0020c0        	memw
400d1545:	09b8      	l32i.n	a11, a9, 0
400d1547:	fae7c1        	l32r	a12, 400d00e4 <_image_irom_vaddr+0xc4> (bfffffff <_rtc_bss_end+0x6fffffff>)
400d154a:	10bbc0        	and	a11, a11, a12
400d154d:	0020c0        	memw
400d1550:	09b9      	s32i.n	a11, a9, 0
400d1552:	0020c0        	memw
400d1555:	09b8      	l32i.n	a11, a9, 0
400d1557:	fad2c1        	l32r	a12, 400d00a0 <_image_irom_vaddr+0x80> (dfffffff <_rtc_bss_end+0x8fffffff>)
400d155a:	10bbc0        	and	a11, a11, a12
400d155d:	0020c0        	memw
400d1560:	09b9      	s32i.n	a11, a9, 0
400d1562:	0020c0        	memw
400d1565:	09b8      	l32i.n	a11, a9, 0
400d1567:	fac1c1        	l32r	a12, 400d006c <_image_irom_vaddr+0x4c> (80000000 <_rtc_bss_end+0x30000000>)
400d156a:	20bbc0        	or	a11, a11, a12
400d156d:	0020c0        	memw
400d1570:	09b9      	s32i.n	a11, a9, 0
400d1572:	881b      	addi.n	a8, a8, 1
400d1574:	90b880        	addx2	a11, a8, a8
400d1577:	a0bb20        	addx4	a11, a11, a2
400d157a:	29b9      	s32i.n	a11, a9, 8
400d157c:	c044a0        	sub	a4, a4, a10
400d157f:	33aa      	add.n	a3, a3, a10
400d1581:	f37456        	bnez	a4, 400d14bc <lldesc_setup_link_constrained+0xc>
400d1584:	908880        	addx2	a8, a8, a8
400d1587:	1188e0        	slli	a8, a8, 2
400d158a:	f4c882        	addi	a8, a8, -12
400d158d:	228a      	add.n	a2, a2, a8
400d158f:	0020c0        	memw
400d1592:	0238      	l32i.n	a3, a2, 0
400d1594:	fadf41        	l32r	a4, 400d0110 <_image_irom_vaddr+0xf0> (40000000 <dram0_seg_1_heap+0x195d0>)
400d1597:	203340        	or	a3, a3, a4
400d159a:	0020c0        	memw
400d159d:	0239      	s32i.n	a3, a2, 0
400d159f:	030c      	movi.n	a3, 0
400d15a1:	2239      	s32i.n	a3, a2, 8
400d15a3:	f01d      	retw.n
400d15a5:	000000        	ill

400d15a8 <uart_hal_set_sclk>:
400d15a8:	004136        	entry	a1, 32
400d15ab:	02a8      	l32i.n	a10, a2, 0
400d15ad:	180c      	movi.n	a8, 1
400d15af:	090c      	movi.n	a9, 0
400d15b1:	938930        	movnez	a8, a9, a3
400d15b4:	019850        	slli	a9, a8, 27
400d15b7:	0020c0        	memw
400d15ba:	8a88      	l32i.n	a8, a10, 32
400d15bc:	fad0b1        	l32r	a11, 400d00fc <_image_irom_vaddr+0xdc> (f7ffffff <_rtc_bss_end+0xa7ffffff>)
400d15bf:	1088b0        	and	a8, a8, a11
400d15c2:	208890        	or	a8, a8, a9
400d15c5:	0020c0        	memw
400d15c8:	8a89      	s32i.n	a8, a10, 32
400d15ca:	f01d      	retw.n

400d15cc <uart_hal_set_baudrate>:
400d15cc:	004136        	entry	a1, 32
400d15cf:	0298      	l32i.n	a9, a2, 0
400d15d1:	0020c0        	memw
400d15d4:	8988      	l32i.n	a8, a9, 32
400d15d6:	0678b7        	bbci	a8, 27, 400d15e0 <uart_hal_set_baudrate+0x14>
400d15d9:	faaf81        	l32r	a8, 400d0098 <_image_irom_vaddr+0x78> (4c4b400 <CONFIG_FLASH_SIZE+0x484b400>)
400d15dc:	0000c6        	j	400d15e3 <uart_hal_set_baudrate+0x17>
400d15df:	00          	.byte 00
400d15e0:	facd81        	l32r	a8, 400d0114 <_image_irom_vaddr+0xf4> (f4240 <_image_irom_start+0xda94c>)
400d15e3:	1188c0        	slli	a8, a8, 4
400d15e6:	c23830        	quou	a3, a8, a3
400d15e9:	41a430        	srli	a10, a3, 4
400d15ec:	fac181        	l32r	a8, 400d00f0 <_image_irom_vaddr+0xd0> (fffff <_image_irom_start+0xe670b>)
400d15ef:	10aa80        	and	a10, a10, a8
400d15f2:	0020c0        	memw
400d15f5:	5988      	l32i.n	a8, a9, 20
400d15f7:	fabfb1        	l32r	a11, 400d00f4 <_image_irom_vaddr+0xd4> (fff00000 <_rtc_bss_end+0xaff00000>)
400d15fa:	1088b0        	and	a8, a8, a11
400d15fd:	2088a0        	or	a8, a8, a10
400d1600:	0020c0        	memw
400d1603:	5989      	s32i.n	a8, a9, 20
400d1605:	343030        	extui	a3, a3, 0, 4
400d1608:	0133c0        	slli	a3, a3, 20
400d160b:	0020c0        	memw
400d160e:	5988      	l32i.n	a8, a9, 20
400d1610:	fac2a1        	l32r	a10, 400d0118 <_image_irom_vaddr+0xf8> (ff0fffff <_rtc_bss_end+0xaf0fffff>)
400d1613:	1088a0        	and	a8, a8, a10
400d1616:	203830        	or	a3, a8, a3
400d1619:	0020c0        	memw
400d161c:	5939      	s32i.n	a3, a9, 20
400d161e:	f01d      	retw.n

400d1620 <uart_hal_set_hw_flow_ctrl>:
400d1620:	004136        	entry	a1, 32
400d1623:	744040        	extui	a4, a4, 0, 8
400d1626:	0288      	l32i.n	a8, a2, 0
400d1628:	2c6307        	bbci	a3, 0, 400d1658 <uart_hal_set_hw_flow_ctrl+0x38>
400d162b:	644040        	extui	a4, a4, 0, 7
400d162e:	114400        	slli	a4, a4, 16
400d1631:	0020c0        	memw
400d1634:	9898      	l32i.n	a9, a8, 36
400d1636:	fab9a1        	l32r	a10, 400d011c <_image_irom_vaddr+0xfc> (ff80ffff <_rtc_bss_end+0xaf80ffff>)
400d1639:	1099a0        	and	a9, a9, a10
400d163c:	204940        	or	a4, a9, a4
400d163f:	0020c0        	memw
400d1642:	9849      	s32i.n	a4, a8, 36
400d1644:	0020c0        	memw
400d1647:	9848      	l32i.n	a4, a8, 36
400d1649:	fa9a91        	l32r	a9, 400d00b4 <_image_irom_vaddr+0x94> (800000 <CONFIG_FLASH_SIZE+0x400000>)
400d164c:	204490        	or	a4, a4, a9
400d164f:	0020c0        	memw
400d1652:	9849      	s32i.n	a4, a8, 36
400d1654:	000406        	j	400d1668 <uart_hal_set_hw_flow_ctrl+0x48>
400d1657:	00          	.byte 00
400d1658:	0020c0        	memw
400d165b:	9848      	l32i.n	a4, a8, 36
400d165d:	fab091        	l32r	a9, 400d0120 <_image_irom_vaddr+0x100> (ff7fffff <_rtc_bss_end+0xaf7fffff>)
400d1660:	104490        	and	a4, a4, a9
400d1663:	0020c0        	memw
400d1666:	9849      	s32i.n	a4, a8, 36
400d1668:	146317        	bbci	a3, 1, 400d1680 <uart_hal_set_hw_flow_ctrl+0x60>
400d166b:	0020c0        	memw
400d166e:	8838      	l32i.n	a3, a8, 32
400d1670:	fa9441        	l32r	a4, 400d00c0 <_image_irom_vaddr+0xa0> (8000 <_image_irom_size+0x22b8>)
400d1673:	203340        	or	a3, a3, a4
400d1676:	0020c0        	memw
400d1679:	8839      	s32i.n	a3, a8, 32
400d167b:	000446        	j	400d1690 <uart_hal_set_hw_flow_ctrl+0x70>
400d167e:	00          	.byte 00
400d167f:	00          	.byte 00
400d1680:	0020c0        	memw
400d1683:	8838      	l32i.n	a3, a8, 32
400d1685:	faa741        	l32r	a4, 400d0124 <_image_irom_vaddr+0x104> (ffff7fff <_rtc_bss_end+0xafff7fff>)
400d1688:	103340        	and	a3, a3, a4
400d168b:	0020c0        	memw
400d168e:	8839      	s32i.n	a3, a8, 32
400d1690:	f01d      	retw.n
	...

400d1694 <uart_hal_set_txfifo_empty_thr>:
400d1694:	004136        	entry	a1, 32
400d1697:	0298      	l32i.n	a9, a2, 0
400d1699:	643030        	extui	a3, a3, 0, 7
400d169c:	113380        	slli	a3, a3, 8
400d169f:	0020c0        	memw
400d16a2:	9988      	l32i.n	a8, a9, 36
400d16a4:	faa1a1        	l32r	a10, 400d0128 <_image_irom_vaddr+0x108> (ffff80ff <_rtc_bss_end+0xafff80ff>)
400d16a7:	1088a0        	and	a8, a8, a10
400d16aa:	208830        	or	a8, a8, a3
400d16ad:	0020c0        	memw
400d16b0:	9989      	s32i.n	a8, a9, 36
400d16b2:	f01d      	retw.n

400d16b4 <uart_hal_set_rx_timeout>:
400d16b4:	004136        	entry	a1, 32
400d16b7:	743030        	extui	a3, a3, 0, 8
400d16ba:	20a220        	or	a10, a2, a2
400d16bd:	042b25        	call8	400d5970 <uart_hal_get_symb_len>
400d16c0:	002282        	l32i	a8, a2, 0
400d16c3:	82aa30        	mull	a10, a10, a3
400d16c6:	f4a0a0        	extui	a10, a10, 0, 16
400d16c9:	0020c0        	memw
400d16cc:	082822        	l32i	a2, a8, 32
400d16cf:	09f2b7        	bbsi	a2, 27, 400d16dc <uart_hal_set_rx_timeout+0x28>
400d16d2:	11aad0        	slli	a10, a10, 3
400d16d5:	f4a0a0        	extui	a10, a10, 0, 16
400d16d8:	000146        	j	400d16e1 <uart_hal_set_rx_timeout+0x2d>
400d16db:	00          	.byte 00
400d16dc:	aa7b      	addi.n	a10, a10, 7
400d16de:	41a3a0        	srli	a10, a10, 3
400d16e1:	baac      	beqz.n	a10, 400d1710 <uart_hal_set_rx_timeout+0x5c>
400d16e3:	64a0a0        	extui	a10, a10, 0, 7
400d16e6:	01aa80        	slli	a10, a10, 24
400d16e9:	0020c0        	memw
400d16ec:	9838      	l32i.n	a3, a8, 36
400d16ee:	fa8f21        	l32r	a2, 400d012c <_image_irom_vaddr+0x10c> (80ffffff <_rtc_bss_end+0x30ffffff>)
400d16f1:	103320        	and	a3, a3, a2
400d16f4:	2033a0        	or	a3, a3, a10
400d16f7:	0020c0        	memw
400d16fa:	9839      	s32i.n	a3, a8, 36
400d16fc:	0020c0        	memw
400d16ff:	9828      	l32i.n	a2, a8, 36
400d1701:	fa5a31        	l32r	a3, 400d006c <_image_irom_vaddr+0x4c> (80000000 <_rtc_bss_end+0x30000000>)
400d1704:	202230        	or	a2, a2, a3
400d1707:	0020c0        	memw
400d170a:	9829      	s32i.n	a2, a8, 36
400d170c:	000406        	j	400d1720 <uart_hal_set_rx_timeout+0x6c>
400d170f:	00          	.byte 00
400d1710:	0020c0        	memw
400d1713:	9828      	l32i.n	a2, a8, 36
400d1715:	fa5631        	l32r	a3, 400d0070 <_image_irom_vaddr+0x50> (7fffffff <_rtc_bss_end+0x2fffffff>)
400d1718:	102230        	and	a2, a2, a3
400d171b:	0020c0        	memw
400d171e:	9829      	s32i.n	a2, a8, 36
400d1720:	f01d      	retw.n
	...

400d1724 <uart_hal_rxfifo_rst>:
400d1724:	006136        	entry	a1, 48
400d1727:	0298      	l32i.n	a9, a2, 0
400d1729:	fa8481        	l32r	a8, 400d013c <_image_irom_vaddr+0x11c> (3ff40000 <UART0>)
400d172c:	0c1987        	beq	a9, a8, 400d173c <uart_hal_rxfifo_rst+0x18>
400d172f:	fa8481        	l32r	a8, 400d0140 <_image_irom_vaddr+0x120> (3ff50000 <UART1>)
400d1732:	0e9987        	bne	a9, a8, 400d1744 <uart_hal_rxfifo_rst+0x20>
400d1735:	fa7fb1        	l32r	a11, 400d0134 <_image_irom_vaddr+0x114> (3ff50000 <UART1>)
400d1738:	0002c6        	j	400d1747 <uart_hal_rxfifo_rst+0x23>
400d173b:	00          	.byte 00
400d173c:	fa7db1        	l32r	a11, 400d0130 <_image_irom_vaddr+0x110> (3ff40000 <UART0>)
400d173f:	000106        	j	400d1747 <uart_hal_rxfifo_rst+0x23>
400d1742:	00          	.byte 00
400d1743:	00          	.byte 00
400d1744:	fa7db1        	l32r	a11, 400d0138 <_image_irom_vaddr+0x118> (3ff6e000 <SPI3+0x9000>)
400d1747:	0020c0        	memw
400d174a:	7988      	l32i.n	a8, a9, 28
400d174c:	0020c0        	memw
400d174f:	0189      	s32i.n	a8, a1, 0
400d1751:	0020c0        	memw
400d1754:	000182        	l8ui	a8, a1, 0
400d1757:	748080        	extui	a8, a8, 0, 8
400d175a:	0020c0        	memw
400d175d:	1829a2        	l32i	a10, a9, 96
400d1760:	0020c0        	memw
400d1763:	11a9      	s32i.n	a10, a1, 4
400d1765:	38dc      	bnez.n	a8, 400d177c <uart_hal_rxfifo_rst+0x58>
400d1767:	0020c0        	memw
400d176a:	0121a2        	l32i	a10, a1, 4
400d176d:	a4a2a0        	extui	a10, a10, 2, 11
400d1770:	0020c0        	memw
400d1773:	012182        	l32i	a8, a1, 4
400d1776:	a48d80        	extui	a8, a8, 13, 11
400d1779:	071a87        	beq	a10, a8, 400d1784 <uart_hal_rxfifo_rst+0x60>
400d177c:	0020c0        	memw
400d177f:	0b88      	l32i.n	a8, a11, 0
400d1781:	fff086        	j	400d1747 <uart_hal_rxfifo_rst+0x23>
400d1784:	f01d      	retw.n
	...

400d1788 <uart_hal_write_txfifo>:
400d1788:	006136        	entry	a1, 48
400d178b:	0288      	l32i.n	a8, a2, 0
400d178d:	0020c0        	memw
400d1790:	7888      	l32i.n	a8, a8, 28
400d1792:	0020c0        	memw
400d1795:	0189      	s32i.n	a8, a1, 0
400d1797:	0020c0        	memw
400d179a:	020192        	l8ui	a9, a1, 2
400d179d:	749090        	extui	a9, a9, 0, 8
400d17a0:	80a082        	movi	a8, 128
400d17a3:	c08890        	sub	a8, a8, a9
400d17a6:	f49080        	extui	a9, a8, 0, 16
400d17a9:	f48080        	extui	a8, a8, 0, 16
400d17ac:	02b487        	bgeu	a4, a8, 400d17b2 <uart_hal_write_txfifo+0x2a>
400d17af:	f49040        	extui	a9, a4, 0, 16
400d17b2:	09ad      	mov.n	a10, a9
400d17b4:	0599      	s32i.n	a9, a5, 0
400d17b6:	0228      	l32i.n	a2, a2, 0
400d17b8:	fa6141        	l32r	a4, 400d013c <_image_irom_vaddr+0x11c> (3ff40000 <UART0>)
400d17bb:	0d1247        	beq	a2, a4, 400d17cc <uart_hal_write_txfifo+0x44>
400d17be:	fa6041        	l32r	a4, 400d0140 <_image_irom_vaddr+0x120> (3ff50000 <UART1>)
400d17c1:	0f9247        	bne	a2, a4, 400d17d4 <uart_hal_write_txfifo+0x4c>
400d17c4:	fa61b1        	l32r	a11, 400d0148 <_image_irom_vaddr+0x128> (60010000 <_rtc_bss_end+0x10010000>)
400d17c7:	000306        	j	400d17d7 <uart_hal_write_txfifo+0x4f>
400d17ca:	00          	.byte 00
400d17cb:	00          	.byte 00
400d17cc:	fa5eb1        	l32r	a11, 400d0144 <_image_irom_vaddr+0x124> (60000000 <_rtc_bss_end+0x10000000>)
400d17cf:	000106        	j	400d17d7 <uart_hal_write_txfifo+0x4f>
400d17d2:	00          	.byte 00
400d17d3:	00          	.byte 00
400d17d4:	fa5eb1        	l32r	a11, 400d014c <_image_irom_vaddr+0x12c> (6002e000 <_rtc_bss_end+0x1002e000>)
400d17d7:	080c      	movi.n	a8, 0
400d17d9:	0002c6        	j	400d17e8 <uart_hal_write_txfifo+0x60>
400d17dc:	938a      	add.n	a9, a3, a8
400d17de:	000992        	l8ui	a9, a9, 0
400d17e1:	0020c0        	memw
400d17e4:	0b99      	s32i.n	a9, a11, 0
400d17e6:	881b      	addi.n	a8, a8, 1
400d17e8:	f038a7        	bltu	a8, a10, 400d17dc <uart_hal_write_txfifo+0x54>
400d17eb:	f01d      	retw.n
400d17ed:	000000        	ill

400d17f0 <uart_hal_read_rxfifo>:
400d17f0:	006136        	entry	a1, 48
400d17f3:	0488      	l32i.n	a8, a4, 0
400d17f5:	0218a6        	blti	a8, 1, 400d17fb <uart_hal_read_rxfifo+0xb>
400d17f8:	002086        	j	400d187e <uart_hal_read_rxfifo+0x8e>
400d17fb:	0298      	l32i.n	a9, a2, 0
400d17fd:	0020c0        	memw
400d1800:	7988      	l32i.n	a8, a9, 28
400d1802:	0020c0        	memw
400d1805:	0189      	s32i.n	a8, a1, 0
400d1807:	0020c0        	memw
400d180a:	000182        	l8ui	a8, a1, 0
400d180d:	74a080        	extui	a10, a8, 0, 8
400d1810:	0020c0        	memw
400d1813:	182982        	l32i	a8, a9, 96
400d1816:	0020c0        	memw
400d1819:	1189      	s32i.n	a8, a1, 4
400d181b:	0020c0        	memw
400d181e:	1188      	l32i.n	a8, a1, 4
400d1820:	a48d80        	extui	a8, a8, 13, 11
400d1823:	0020c0        	memw
400d1826:	1198      	l32i.n	a9, a1, 4
400d1828:	a49290        	extui	a9, a9, 2, 11
400d182b:	15b987        	bgeu	a9, a8, 400d1844 <uart_hal_read_rxfifo+0x54>
400d182e:	0020c0        	memw
400d1831:	1188      	l32i.n	a8, a1, 4
400d1833:	a48d80        	extui	a8, a8, 13, 11
400d1836:	0020c0        	memw
400d1839:	1198      	l32i.n	a9, a1, 4
400d183b:	a49290        	extui	a9, a9, 2, 11
400d183e:	c08890        	sub	a8, a8, a9
400d1841:	000dc6        	j	400d187c <uart_hal_read_rxfifo+0x8c>
400d1844:	0020c0        	memw
400d1847:	1198      	l32i.n	a9, a1, 4
400d1849:	a49d90        	extui	a9, a9, 13, 11
400d184c:	0020c0        	memw
400d184f:	1188      	l32i.n	a8, a1, 4
400d1851:	a48280        	extui	a8, a8, 2, 11
400d1854:	1ab987        	bgeu	a9, a8, 400d1872 <uart_hal_read_rxfifo+0x82>
400d1857:	0020c0        	memw
400d185a:	1188      	l32i.n	a8, a1, 4
400d185c:	a48d80        	extui	a8, a8, 13, 11
400d185f:	80a092        	movi	a9, 128
400d1862:	889a      	add.n	a8, a8, a9
400d1864:	0020c0        	memw
400d1867:	1198      	l32i.n	a9, a1, 4
400d1869:	a49290        	extui	a9, a9, 2, 11
400d186c:	c08890        	sub	a8, a8, a9
400d186f:	000246        	j	400d187c <uart_hal_read_rxfifo+0x8c>
400d1872:	4a8c      	beqz.n	a10, 400d187a <uart_hal_read_rxfifo+0x8a>
400d1874:	80a082        	movi	a8, 128
400d1877:	000046        	j	400d187c <uart_hal_read_rxfifo+0x8c>
400d187a:	080c      	movi.n	a8, 0
400d187c:	0489      	s32i.n	a8, a4, 0
400d187e:	0288      	l32i.n	a8, a2, 0
400d1880:	04b8      	l32i.n	a11, a4, 0
400d1882:	fa2e21        	l32r	a2, 400d013c <_image_irom_vaddr+0x11c> (3ff40000 <UART0>)
400d1885:	0b1827        	beq	a8, a2, 400d1894 <uart_hal_read_rxfifo+0xa4>
400d1888:	fa2e21        	l32r	a2, 400d0140 <_image_irom_vaddr+0x120> (3ff50000 <UART1>)
400d188b:	0d9827        	bne	a8, a2, 400d189c <uart_hal_read_rxfifo+0xac>
400d188e:	fa29c1        	l32r	a12, 400d0134 <_image_irom_vaddr+0x114> (3ff50000 <UART1>)
400d1891:	000286        	j	400d189f <uart_hal_read_rxfifo+0xaf>
400d1894:	fa27c1        	l32r	a12, 400d0130 <_image_irom_vaddr+0x110> (3ff40000 <UART0>)
400d1897:	000106        	j	400d189f <uart_hal_read_rxfifo+0xaf>
400d189a:	00          	.byte 00
400d189b:	00          	.byte 00
400d189c:	fa27c1        	l32r	a12, 400d0138 <_image_irom_vaddr+0x118> (3ff6e000 <SPI3+0x9000>)
400d189f:	080c      	movi.n	a8, 0
400d18a1:	0002c6        	j	400d18b0 <uart_hal_read_rxfifo+0xc0>
400d18a4:	0020c0        	memw
400d18a7:	0ca8      	l32i.n	a10, a12, 0
400d18a9:	938a      	add.n	a9, a3, a8
400d18ab:	0049a2        	s8i	a10, a9, 0
400d18ae:	881b      	addi.n	a8, a8, 1
400d18b0:	f038b7        	bltu	a8, a11, 400d18a4 <uart_hal_read_rxfifo+0xb4>
400d18b3:	f01d      	retw.n
400d18b5:	000000        	ill

400d18b8 <select_rtc_slow_clk>:
400d18b8:	004136        	entry	a1, 32
400d18bb:	143020        	extui	a3, a2, 0, 2
400d18be:	140c      	movi.n	a4, 1
400d18c0:	4c1366        	bnei	a3, 1, 400d1910 <select_rtc_slow_clk+0x58>
400d18c3:	071266        	bnei	a2, 1, 400d18ce <select_rtc_slow_clk+0x16>
400d18c6:	1a0c      	movi.n	a10, 1
400d18c8:	001fe5        	call8	400d1ac8 <rtc_clk_32k_enable>
400d18cb:	000286        	j	400d18d9 <select_rtc_slow_clk+0x21>
400d18ce:	980c      	movi.n	a8, 9
400d18d0:	059287        	bne	a2, a8, 400d18d9 <select_rtc_slow_clk+0x21>
400d18d3:	201110        	or	a1, a1, a1
400d18d6:	002325        	call8	400d1b08 <rtc_clk_32k_enable_external>
400d18d9:	00a4b2        	movi	a11, 0x400
400d18dc:	02a0a2        	movi	a10, 2
400d18df:	00e625        	call8	400d2740 <rtc_clk_cal>
400d18e2:	fa1b81        	l32r	a8, 400d0150 <_image_irom_vaddr+0x130> (e4e1bf <CONFIG_FLASH_SIZE+0xa4e1bf>)
400d18e5:	3838a7        	bltu	a8, a10, 400d1921 <select_rtc_slow_clk+0x69>
400d18e8:	ffc452        	addi	a5, a4, -1
400d18eb:	4614e6        	bgei	a4, 1, 400d1935 <select_rtc_slow_clk+0x7d>
400d18ee:	fa1931        	l32r	a3, 400d0154 <_image_irom_vaddr+0x134> (3ffbfff8 <esp_log_default_level>)
400d18f1:	0338      	l32i.n	a3, a3, 0
400d18f3:	2623b6        	bltui	a3, 2, 400d191d <select_rtc_slow_clk+0x65>
400d18f6:	b1a3a5        	call8	40083330 <esp_log_early_timestamp>
400d18f9:	fa17c1        	l32r	a12, 400d0158 <_image_irom_vaddr+0x138> (3f403c3c <rtc_io_num_map+0xa4>)
400d18fc:	20baa0        	or	a11, a10, a10
400d18ff:	fa17a1        	l32r	a10, 400d015c <_image_irom_vaddr+0x13c> (3f4036bc <cfb_font_1016+0x76c>)
400d1902:	fa1781        	l32r	a8, 400d0160 <_image_irom_vaddr+0x140> (40007d54 <esp_rom_printf>)
400d1905:	0008e0        	callx8	a8
400d1908:	054d      	mov.n	a4, a5
400d190a:	030c      	movi.n	a3, 0
400d190c:	000446        	j	400d1921 <select_rtc_slow_clk+0x69>
400d190f:	00          	.byte 00
400d1910:	0d2366        	bnei	a3, 2, 400d1921 <select_rtc_slow_clk+0x69>
400d1913:	1b0c      	movi.n	a11, 1
400d1915:	0bad      	mov.n	a10, a11
400d1917:	002025        	call8	400d1b18 <rtc_clk_8m_enable>
400d191a:	0000c6        	j	400d1921 <select_rtc_slow_clk+0x69>
400d191d:	054d      	mov.n	a4, a5
400d191f:	030c      	movi.n	a3, 0
400d1921:	20a330        	or	a10, a3, a3
400d1924:	002c65        	call8	400d1bec <rtc_clk_slow_freq_set>
400d1927:	00a4b2        	movi	a11, 0x400
400d192a:	00a0a2        	movi	a10, 0
400d192d:	00e125        	call8	400d2740 <rtc_clk_cal>
400d1930:	0000c6        	j	400d1937 <select_rtc_slow_clk+0x7f>
400d1933:	00          	.byte 00
400d1934:	00          	.byte 00
400d1935:	054d      	mov.n	a4, a5
400d1937:	f85a16        	beqz	a10, 400d18c0 <select_rtc_slow_clk+0x8>
400d193a:	0005e5        	call8	400d1998 <esp_clk_slowclk_cal_set>
400d193d:	f01d      	retw.n
	...

400d1940 <esp_clk_init>:
400d1940:	008136        	entry	a1, 64
400d1943:	fa0821        	l32r	a2, 400d0164 <_image_irom_vaddr+0x144> (3f400040 <__rodata_region_start>)
400d1946:	0022a2        	l32i	a10, a2, 0
400d1949:	0089e5        	call8	400d21e8 <rtc_init>
400d194c:	01a0a2        	movi	a10, 1
400d194f:	002f65        	call8	400d1c44 <rtc_clk_fast_freq_set>
400d1952:	0a0c      	movi.n	a10, 0
400d1954:	fff625        	call8	400d18b8 <select_rtc_slow_clk>
400d1957:	01ad      	mov.n	a10, a1
400d1959:	0056a5        	call8	400d1ec4 <rtc_clk_cpu_freq_get_config>
400d195c:	3128      	l32i.n	a2, a1, 12
400d195e:	10c1b2        	addi	a11, a1, 16
400d1961:	f0a0a2        	movi	a10, 240
400d1964:	004fa5        	call8	400d1e60 <rtc_clk_cpu_freq_mhz_to_config>
400d1967:	0a3d      	mov.n	a3, a10
400d1969:	0a0c      	movi.n	a10, 0
400d196b:	f9ff81        	l32r	a8, 400d0168 <_image_irom_vaddr+0x148> (40009278 <esp_rom_uart_tx_wait_idle>)
400d196e:	0008e0        	callx8	a8
400d1971:	438c      	beqz.n	a3, 400d1979 <esp_clk_init+0x39>
400d1973:	10c1a2        	addi	a10, a1, 16
400d1976:	007ea5        	call8	400d2160 <rtc_clk_cpu_freq_set_config>
400d1979:	03ea80        	rsr.ccount	a8
400d197c:	f0a0a2        	movi	a10, 240
400d197f:	a2ba80        	muluh	a11, a10, a8
400d1982:	02cd      	mov.n	a12, a2
400d1984:	00a0d2        	movi	a13, 0
400d1987:	82aa80        	mull	a10, a10, a8
400d198a:	f9f881        	l32r	a8, 400d016c <_image_irom_vaddr+0x14c> (4000cff8 <__udivdi3>)
400d198d:	0008e0        	callx8	a8
400d1990:	13eaa0        	wsr.ccount	a10
400d1993:	f01d      	retw.n
400d1995:	000000        	ill

400d1998 <esp_clk_slowclk_cal_set>:
400d1998:	004136        	entry	a1, 32
400d199b:	f9f581        	l32r	a8, 400d0170 <_image_irom_vaddr+0x150> (3ff48050 <GPIO+0x4050>)
400d199e:	0020c0        	memw
400d19a1:	0829      	s32i.n	a2, a8, 0
400d19a3:	f01d      	retw.n
400d19a5:	000000        	ill

400d19a8 <rtc_clk_32k_enable_common>:
400d19a8:	004136        	entry	a1, 32
400d19ab:	f9f281        	l32r	a8, 400d0174 <_image_irom_vaddr+0x154> (3ff4848c <GPIO+0x448c>)
400d19ae:	0020c0        	memw
400d19b1:	0898      	l32i.n	a9, a8, 0
400d19b3:	f9f1a1        	l32r	a10, 400d0178 <_image_irom_vaddr+0x158> (e73ff7df <_rtc_bss_end+0x973ff7df>)
400d19b6:	1099a0        	and	a9, a9, a10
400d19b9:	0020c0        	memw
400d19bc:	0899      	s32i.n	a9, a8, 0
400d19be:	0020c0        	memw
400d19c1:	0898      	l32i.n	a9, a8, 0
400d19c3:	f9eea1        	l32r	a10, 400d017c <_image_irom_vaddr+0x15c> (60000 <_image_irom_start+0x4670c>)
400d19c6:	2099a0        	or	a9, a9, a10
400d19c9:	0020c0        	memw
400d19cc:	0899      	s32i.n	a9, a8, 0
400d19ce:	0020c0        	memw
400d19d1:	0898      	l32i.n	a9, a8, 0
400d19d3:	f9eba1        	l32r	a10, 400d0180 <_image_irom_vaddr+0x160> (ffcfffff <_rtc_bss_end+0xafcfffff>)
400d19d6:	1099a0        	and	a9, a9, a10
400d19d9:	0122c0        	slli	a2, a2, 20
400d19dc:	f9eaa1        	l32r	a10, 400d0184 <_image_irom_vaddr+0x164> (300000 <_image_irom_start+0x2e670c>)
400d19df:	1022a0        	and	a2, a2, a10
400d19e2:	209920        	or	a9, a9, a2
400d19e5:	0020c0        	memw
400d19e8:	0899      	s32i.n	a9, a8, 0
400d19ea:	0020c0        	memw
400d19ed:	0898      	l32i.n	a9, a8, 0
400d19ef:	726c      	movi.n	a2, -25
400d19f1:	109920        	and	a9, a9, a2
400d19f4:	1133d0        	slli	a3, a3, 3
400d19f7:	821c      	movi.n	a2, 24
400d19f9:	103320        	and	a3, a3, a2
400d19fc:	209930        	or	a9, a9, a3
400d19ff:	0020c0        	memw
400d1a02:	0899      	s32i.n	a9, a8, 0
400d1a04:	0020c0        	memw
400d1a07:	0898      	l32i.n	a9, a8, 0
400d1a09:	927c      	movi.n	a2, -7
400d1a0b:	109920        	and	a9, a9, a2
400d1a0e:	444a      	add.n	a4, a4, a4
400d1a10:	620c      	movi.n	a2, 6
400d1a12:	104420        	and	a4, a4, a2
400d1a15:	209940        	or	a9, a9, a4
400d1a18:	0020c0        	memw
400d1a1b:	0899      	s32i.n	a9, a8, 0
400d1a1d:	0020c0        	memw
400d1a20:	0898      	l32i.n	a9, a8, 0
400d1a22:	f9d921        	l32r	a2, 400d0188 <_image_irom_vaddr+0x168> (80000 <_image_irom_start+0x6670c>)
400d1a25:	209920        	or	a9, a9, a2
400d1a28:	0020c0        	memw
400d1a2b:	0899      	s32i.n	a9, a8, 0
400d1a2d:	f01d      	retw.n
	...

400d1a30 <rtc_clk_bbpll_disable>:
400d1a30:	004136        	entry	a1, 32
400d1a33:	f9d691        	l32r	a9, 400d018c <_image_irom_vaddr+0x16c> (3ff48000 <GPIO+0x4000>)
400d1a36:	0020c0        	memw
400d1a39:	0988      	l32i.n	a8, a9, 0
400d1a3b:	40a5a2        	movi	a10, 0x540
400d1a3e:	2088a0        	or	a8, a8, a10
400d1a41:	0020c0        	memw
400d1a44:	0989      	s32i.n	a8, a9, 0
400d1a46:	f9d281        	l32r	a8, 400d0190 <_image_irom_vaddr+0x170> (3ffc1cec <s_cur_pll_freq>)
400d1a49:	090c      	movi.n	a9, 0
400d1a4b:	0899      	s32i.n	a9, a8, 0
400d1a4d:	f9d181        	l32r	a8, 400d0194 <_image_irom_vaddr+0x174> (3ff48030 <GPIO+0x4030>)
400d1a50:	0020c0        	memw
400d1a53:	0888      	l32i.n	a8, a8, 0
400d1a55:	137877        	bbci	a8, 23, 400d1a6c <rtc_clk_bbpll_disable+0x3c>
400d1a58:	f9cd91        	l32r	a9, 400d018c <_image_irom_vaddr+0x16c> (3ff48000 <GPIO+0x4000>)
400d1a5b:	0020c0        	memw
400d1a5e:	0988      	l32i.n	a8, a9, 0
400d1a60:	f9a9a1        	l32r	a10, 400d0104 <_image_irom_vaddr+0xe4> (40000 <_image_irom_start+0x2670c>)
400d1a63:	2088a0        	or	a8, a8, a10
400d1a66:	0020c0        	memw
400d1a69:	006982        	s32i	a8, a9, 0
400d1a6c:	f01d      	retw.n
	...

400d1a70 <rtc_clk_bbpll_enable>:
400d1a70:	004136        	entry	a1, 32
400d1a73:	f9c691        	l32r	a9, 400d018c <_image_irom_vaddr+0x16c> (3ff48000 <GPIO+0x4000>)
400d1a76:	0020c0        	memw
400d1a79:	0988      	l32i.n	a8, a9, 0
400d1a7b:	f9c7a1        	l32r	a10, 400d0198 <_image_irom_vaddr+0x178> (fffbfabf <_rtc_bss_end+0xaffbfabf>)
400d1a7e:	1088a0        	and	a8, a8, a10
400d1a81:	0020c0        	memw
400d1a84:	0989      	s32i.n	a8, a9, 0
400d1a86:	8d1c      	movi.n	a13, 24
400d1a88:	0c0c      	movi.n	a12, 0
400d1a8a:	4b0c      	movi.n	a11, 4
400d1a8c:	66a0a2        	movi	a10, 102
400d1a8f:	aecf25        	call8	40080780 <regi2c_ctrl_write_reg>
400d1a92:	0d2c      	movi.n	a13, 32
400d1a94:	1c0c      	movi.n	a12, 1
400d1a96:	4b0c      	movi.n	a11, 4
400d1a98:	66a0a2        	movi	a10, 102
400d1a9b:	aece65        	call8	40080780 <regi2c_ctrl_write_reg>
400d1a9e:	9aa0d2        	movi	a13, 154
400d1aa1:	4c0c      	movi.n	a12, 4
400d1aa3:	20bcc0        	or	a11, a12, a12
400d1aa6:	66a0a2        	movi	a10, 102
400d1aa9:	aecd65        	call8	40080780 <regi2c_ctrl_write_reg>
400d1aac:	0d0c      	movi.n	a13, 0
400d1aae:	ac0c      	movi.n	a12, 10
400d1ab0:	4b0c      	movi.n	a11, 4
400d1ab2:	66a0a2        	movi	a10, 102
400d1ab5:	aecca5        	call8	40080780 <regi2c_ctrl_write_reg>
400d1ab8:	0d0c      	movi.n	a13, 0
400d1aba:	cc0c      	movi.n	a12, 12
400d1abc:	4b0c      	movi.n	a11, 4
400d1abe:	66a0a2        	movi	a10, 102
400d1ac1:	aecbe5        	call8	40080780 <regi2c_ctrl_write_reg>
400d1ac4:	f01d      	retw.n
	...

400d1ac8 <rtc_clk_32k_enable>:
400d1ac8:	004136        	entry	a1, 32
400d1acb:	742020        	extui	a2, a2, 0, 8
400d1ace:	00e216        	beqz	a2, 400d1ae0 <rtc_clk_32k_enable+0x18>
400d1ad1:	00a0c2        	movi	a12, 0
400d1ad4:	03a0b2        	movi	a11, 3
400d1ad7:	1a0c      	movi.n	a10, 1
400d1ad9:	ffece5        	call8	400d19a8 <rtc_clk_32k_enable_common>
400d1adc:	0008c6        	j	400d1b03 <rtc_clk_32k_enable+0x3b>
400d1adf:	00          	.byte 00
400d1ae0:	f9a581        	l32r	a8, 400d0174 <_image_irom_vaddr+0x154> (3ff4848c <GPIO+0x448c>)
400d1ae3:	0020c0        	memw
400d1ae6:	0898      	l32i.n	a9, a8, 0
400d1ae8:	f9ad21        	l32r	a2, 400d019c <_image_irom_vaddr+0x17c> (fff7ffff <_rtc_bss_end+0xaff7ffff>)
400d1aeb:	109920        	and	a9, a9, a2
400d1aee:	0020c0        	memw
400d1af1:	0899      	s32i.n	a9, a8, 0
400d1af3:	0020c0        	memw
400d1af6:	0898      	l32i.n	a9, a8, 0
400d1af8:	f9aa21        	l32r	a2, 400d01a0 <_image_irom_vaddr+0x180> (fff9ffff <_rtc_bss_end+0xaff9ffff>)
400d1afb:	109920        	and	a9, a9, a2
400d1afe:	0020c0        	memw
400d1b01:	0899      	s32i.n	a9, a8, 0
400d1b03:	f01d      	retw.n
400d1b05:	000000        	ill

400d1b08 <rtc_clk_32k_enable_external>:
400d1b08:	004136        	entry	a1, 32
400d1b0b:	1c0c      	movi.n	a12, 1
400d1b0d:	3b0c      	movi.n	a11, 3
400d1b0f:	2a0c      	movi.n	a10, 2
400d1b11:	ffe965        	call8	400d19a8 <rtc_clk_32k_enable_common>
400d1b14:	f01d      	retw.n
	...

400d1b18 <rtc_clk_8m_enable>:
400d1b18:	004136        	entry	a1, 32
400d1b1b:	742020        	extui	a2, a2, 0, 8
400d1b1e:	743030        	extui	a3, a3, 0, 8
400d1b21:	062216        	beqz	a2, 400d1b87 <rtc_clk_8m_enable+0x6f>
400d1b24:	f9a021        	l32r	a2, 400d01a4 <_image_irom_vaddr+0x184> (3ff48070 <GPIO+0x4070>)
400d1b27:	0020c0        	memw
400d1b2a:	0288      	l32i.n	a8, a2, 0
400d1b2c:	bfaf92        	movi	a9, -65
400d1b2f:	108890        	and	a8, a8, a9
400d1b32:	0020c0        	memw
400d1b35:	0289      	s32i.n	a8, a2, 0
400d1b37:	f99c21        	l32r	a2, 400d01a8 <_image_irom_vaddr+0x188> (3ff4801c <GPIO+0x401c>)
400d1b3a:	0020c0        	memw
400d1b3d:	0288      	l32i.n	a8, a2, 0
400d1b3f:	f99b91        	l32r	a9, 400d01ac <_image_irom_vaddr+0x18c> (ffffc03f <_rtc_bss_end+0xafffc03f>)
400d1b42:	108890        	and	a8, a8, a9
400d1b45:	094c      	movi.n	a9, 64
400d1b47:	208890        	or	a8, a8, a9
400d1b4a:	0020c0        	memw
400d1b4d:	0289      	s32i.n	a8, a2, 0
400d1b4f:	639c      	beqz.n	a3, 400d1b69 <rtc_clk_8m_enable+0x51>
400d1b51:	f99431        	l32r	a3, 400d01a4 <_image_irom_vaddr+0x184> (3ff48070 <GPIO+0x4070>)
400d1b54:	0020c0        	memw
400d1b57:	0328      	l32i.n	a2, a3, 0
400d1b59:	7faf82        	movi	a8, -129
400d1b5c:	102280        	and	a2, a2, a8
400d1b5f:	0020c0        	memw
400d1b62:	0329      	s32i.n	a2, a3, 0
400d1b64:	000506        	j	400d1b7c <rtc_clk_8m_enable+0x64>
400d1b67:	00          	.byte 00
400d1b68:	00          	.byte 00
400d1b69:	f98e31        	l32r	a3, 400d01a4 <_image_irom_vaddr+0x184> (3ff48070 <GPIO+0x4070>)
400d1b6c:	0020c0        	memw
400d1b6f:	0328      	l32i.n	a2, a3, 0
400d1b71:	80a082        	movi	a8, 128
400d1b74:	202280        	or	a2, a2, a8
400d1b77:	0020c0        	memw
400d1b7a:	0329      	s32i.n	a2, a3, 0
400d1b7c:	2a3c      	movi.n	a10, 50
400d1b7e:	f98c81        	l32r	a8, 400d01b0 <_image_irom_vaddr+0x190> (40008534 <esp_rom_delay_us>)
400d1b81:	0008e0        	callx8	a8
400d1b84:	000a86        	j	400d1bb2 <rtc_clk_8m_enable+0x9a>
400d1b87:	f98721        	l32r	a2, 400d01a4 <_image_irom_vaddr+0x184> (3ff48070 <GPIO+0x4070>)
400d1b8a:	0020c0        	memw
400d1b8d:	0288      	l32i.n	a8, a2, 0
400d1b8f:	034c      	movi.n	a3, 64
400d1b91:	208830        	or	a8, a8, a3
400d1b94:	0020c0        	memw
400d1b97:	0289      	s32i.n	a8, a2, 0
400d1b99:	f98321        	l32r	a2, 400d01a8 <_image_irom_vaddr+0x188> (3ff4801c <GPIO+0x401c>)
400d1b9c:	0020c0        	memw
400d1b9f:	0288      	l32i.n	a8, a2, 0
400d1ba1:	f98231        	l32r	a3, 400d01ac <_image_irom_vaddr+0x18c> (ffffc03f <_rtc_bss_end+0xafffc03f>)
400d1ba4:	108830        	and	a8, a8, a3
400d1ba7:	00a532        	movi	a3, 0x500
400d1baa:	208830        	or	a8, a8, a3
400d1bad:	0020c0        	memw
400d1bb0:	0289      	s32i.n	a8, a2, 0
400d1bb2:	f01d      	retw.n

400d1bb4 <rtc_clk_8m_enabled>:
400d1bb4:	004136        	entry	a1, 32
400d1bb7:	f97b21        	l32r	a2, 400d01a4 <_image_irom_vaddr+0x184> (3ff48070 <GPIO+0x4070>)
400d1bba:	0020c0        	memw
400d1bbd:	0288      	l32i.n	a8, a2, 0
400d1bbf:	024c      	movi.n	a2, 64
400d1bc1:	108820        	and	a8, a8, a2
400d1bc4:	120c      	movi.n	a2, 1
400d1bc6:	090c      	movi.n	a9, 0
400d1bc8:	932980        	movnez	a2, a9, a8
400d1bcb:	f01d      	retw.n
400d1bcd:	000000        	ill

400d1bd0 <rtc_clk_8md256_enabled>:
400d1bd0:	004136        	entry	a1, 32
400d1bd3:	f97421        	l32r	a2, 400d01a4 <_image_irom_vaddr+0x184> (3ff48070 <GPIO+0x4070>)
400d1bd6:	0020c0        	memw
400d1bd9:	0288      	l32i.n	a8, a2, 0
400d1bdb:	80a022        	movi	a2, 128
400d1bde:	108820        	and	a8, a8, a2
400d1be1:	120c      	movi.n	a2, 1
400d1be3:	090c      	movi.n	a9, 0
400d1be5:	932980        	movnez	a2, a9, a8
400d1be8:	f01d      	retw.n
	...

400d1bec <rtc_clk_slow_freq_set>:
400d1bec:	004136        	entry	a1, 32
400d1bef:	f96d91        	l32r	a9, 400d01a4 <_image_irom_vaddr+0x184> (3ff48070 <GPIO+0x4070>)
400d1bf2:	0020c0        	memw
400d1bf5:	0988      	l32i.n	a8, a9, 0
400d1bf7:	f96fa1        	l32r	a10, 400d01b4 <_image_irom_vaddr+0x194> (3fffffff <dram0_seg_1_heap+0x195cf>)
400d1bfa:	1088a0        	and	a8, a8, a10
400d1bfd:	01a220        	slli	a10, a2, 30
400d1c00:	2088a0        	or	a8, a8, a10
400d1c03:	0020c0        	memw
400d1c06:	0989      	s32i.n	a8, a9, 0
400d1c08:	0020c0        	memw
400d1c0b:	0988      	l32i.n	a8, a9, 0
400d1c0d:	ffae92        	movi	a9, 0xfffffeff
400d1c10:	108890        	and	a8, a8, a9
400d1c13:	051266        	bnei	a2, 1, 400d1c1c <rtc_clk_slow_freq_set+0x30>
400d1c16:	00a122        	movi	a2, 0x100
400d1c19:	000046        	j	400d1c1e <rtc_clk_slow_freq_set+0x32>
400d1c1c:	020c      	movi.n	a2, 0
400d1c1e:	208820        	or	a8, a8, a2
400d1c21:	f96021        	l32r	a2, 400d01a4 <_image_irom_vaddr+0x184> (3ff48070 <GPIO+0x4070>)
400d1c24:	0020c0        	memw
400d1c27:	0289      	s32i.n	a8, a2, 0
400d1c29:	2ca1a2        	movi	a10, 0x12c
400d1c2c:	f96181        	l32r	a8, 400d01b0 <_image_irom_vaddr+0x190> (40008534 <esp_rom_delay_us>)
400d1c2f:	0008e0        	callx8	a8
400d1c32:	f01d      	retw.n

400d1c34 <rtc_clk_slow_freq_get>:
400d1c34:	004136        	entry	a1, 32
400d1c37:	f95b21        	l32r	a2, 400d01a4 <_image_irom_vaddr+0x184> (3ff48070 <GPIO+0x4070>)
400d1c3a:	0020c0        	memw
400d1c3d:	0228      	l32i.n	a2, a2, 0
400d1c3f:	152e20        	extui	a2, a2, 30, 2
400d1c42:	f01d      	retw.n

400d1c44 <rtc_clk_fast_freq_set>:
400d1c44:	004136        	entry	a1, 32
400d1c47:	f95791        	l32r	a9, 400d01a4 <_image_irom_vaddr+0x184> (3ff48070 <GPIO+0x4070>)
400d1c4a:	0020c0        	memw
400d1c4d:	0988      	l32i.n	a8, a9, 0
400d1c4f:	f914a1        	l32r	a10, 400d00a0 <_image_irom_vaddr+0x80> (dfffffff <_rtc_bss_end+0x8fffffff>)
400d1c52:	1088a0        	and	a8, a8, a10
400d1c55:	012230        	slli	a2, a2, 29
400d1c58:	f913a1        	l32r	a10, 400d00a4 <_image_irom_vaddr+0x84> (20000000 <CONFIG_SYS_CLOCK_HW_CYCLES_PER_SEC+0x11b1e400>)
400d1c5b:	1022a0        	and	a2, a2, a10
400d1c5e:	208820        	or	a8, a8, a2
400d1c61:	0020c0        	memw
400d1c64:	0989      	s32i.n	a8, a9, 0
400d1c66:	3a0c      	movi.n	a10, 3
400d1c68:	f95281        	l32r	a8, 400d01b0 <_image_irom_vaddr+0x190> (40008534 <esp_rom_delay_us>)
400d1c6b:	0008e0        	callx8	a8
400d1c6e:	f01d      	retw.n

400d1c70 <rtc_clk_fast_freq_get>:
400d1c70:	004136        	entry	a1, 32
400d1c73:	f94c21        	l32r	a2, 400d01a4 <_image_irom_vaddr+0x184> (3ff48070 <GPIO+0x4070>)
400d1c76:	0020c0        	memw
400d1c79:	0228      	l32i.n	a2, a2, 0
400d1c7b:	052d20        	extui	a2, a2, 29, 1
400d1c7e:	f01d      	retw.n

400d1c80 <rtc_clk_bbpll_configure>:
400d1c80:	006136        	entry	a1, 48
400d1c83:	40a142        	movi	a4, 0x140
400d1c86:	021347        	beq	a3, a4, 400d1c8c <rtc_clk_bbpll_configure+0xc>
400d1c89:	002886        	j	400d1d2f <rtc_clk_bbpll_configure+0xaf>
400d1c8c:	f94b71        	l32r	a7, 400d01b8 <_image_irom_vaddr+0x198> (3ff4807c <GPIO+0x407c>)
400d1c8f:	0020c0        	memw
400d1c92:	0748      	l32i.n	a4, a7, 0
400d1c94:	f90c51        	l32r	a5, 400d00c4 <_image_irom_vaddr+0xa4> (ffffc7ff <_rtc_bss_end+0xafffc7ff>)
400d1c97:	105450        	and	a5, a4, a5
400d1c9a:	f94841        	l32r	a4, 400d01bc <_image_irom_vaddr+0x19c> (3ff5a014 <UART1+0xa014>)
400d1c9d:	0020c0        	memw
400d1ca0:	0468      	l32i.n	a6, a4, 0
400d1ca2:	156660        	extui	a6, a6, 22, 2
400d1ca5:	740c      	movi.n	a4, 7
400d1ca7:	c04460        	sub	a4, a4, a6
400d1caa:	114450        	slli	a4, a4, 11
400d1cad:	f94461        	l32r	a6, 400d01c0 <_image_irom_vaddr+0x1a0> (3800 <CONFIG_SYS_CLOCK_TICKS_PER_SEC+0x10f0>)
400d1cb0:	104460        	and	a4, a4, a6
400d1cb3:	204540        	or	a4, a5, a4
400d1cb6:	0020c0        	memw
400d1cb9:	0749      	s32i.n	a4, a7, 0
400d1cbb:	a41c      	movi.n	a4, 26
400d1cbd:	1b1247        	beq	a2, a4, 400d1cdc <rtc_clk_bbpll_configure+0x5c>
400d1cc0:	842c      	movi.n	a4, 40
400d1cc2:	281247        	beq	a2, a4, 400d1cee <rtc_clk_bbpll_configure+0x6e>
400d1cc5:	841c      	movi.n	a4, 24
400d1cc7:	379247        	bne	a2, a4, 400d1d02 <rtc_clk_bbpll_configure+0x82>
400d1cca:	140c      	movi.n	a4, 1
400d1ccc:	060c      	movi.n	a6, 0
400d1cce:	042d      	mov.n	a2, a4
400d1cd0:	450c      	movi.n	a5, 4
400d1cd2:	e0a082        	movi	a8, 224
400d1cd5:	0189      	s32i.n	a8, a1, 0
400d1cd7:	b70c      	movi.n	a7, 11
400d1cd9:	000d86        	j	400d1d13 <rtc_clk_bbpll_configure+0x93>
400d1cdc:	140c      	movi.n	a4, 1
400d1cde:	060c      	movi.n	a6, 0
400d1ce0:	042d      	mov.n	a2, a4
400d1ce2:	450c      	movi.n	a5, 4
400d1ce4:	e0a082        	movi	a8, 224
400d1ce7:	0189      	s32i.n	a8, a1, 0
400d1ce9:	c70c      	movi.n	a7, 12
400d1ceb:	000906        	j	400d1d13 <rtc_clk_bbpll_configure+0x93>
400d1cee:	340c      	movi.n	a4, 3
400d1cf0:	660c      	movi.n	a6, 6
400d1cf2:	020c      	movi.n	a2, 0
400d1cf4:	025d      	mov.n	a5, a2
400d1cf6:	082c      	movi.n	a8, 32
400d1cf8:	0189      	s32i.n	a8, a1, 0
400d1cfa:	027d      	mov.n	a7, a2
400d1cfc:	0004c6        	j	400d1d13 <rtc_clk_bbpll_configure+0x93>
400d1cff:	00          	.byte 00
400d1d00:	00          	.byte 00
400d1d01:	00          	.byte 00
400d1d02:	00a042        	movi	a4, 0
400d1d05:	206440        	or	a6, a4, a4
400d1d08:	042d      	mov.n	a2, a4
400d1d0a:	450c      	movi.n	a5, 4
400d1d0c:	e0a082        	movi	a8, 224
400d1d0f:	0189      	s32i.n	a8, a1, 0
400d1d11:	c70c      	movi.n	a7, 12
400d1d13:	3d4c      	movi.n	a13, 67
400d1d15:	bc0c      	movi.n	a12, 11
400d1d17:	4b0c      	movi.n	a11, 4
400d1d19:	66a0a2        	movi	a10, 102
400d1d1c:	aea625        	call8	40080780 <regi2c_ctrl_write_reg>
400d1d1f:	84a0d2        	movi	a13, 132
400d1d22:	9c0c      	movi.n	a12, 9
400d1d24:	4b0c      	movi.n	a11, 4
400d1d26:	66a0a2        	movi	a10, 102
400d1d29:	aea565        	call8	40080780 <regi2c_ctrl_write_reg>
400d1d2c:	002986        	j	400d1dd6 <rtc_clk_bbpll_configure+0x156>
400d1d2f:	f92271        	l32r	a7, 400d01b8 <_image_irom_vaddr+0x198> (3ff4807c <GPIO+0x407c>)
400d1d32:	0020c0        	memw
400d1d35:	0748      	l32i.n	a4, a7, 0
400d1d37:	f8e351        	l32r	a5, 400d00c4 <_image_irom_vaddr+0xa4> (ffffc7ff <_rtc_bss_end+0xafffc7ff>)
400d1d3a:	105450        	and	a5, a4, a5
400d1d3d:	f91f41        	l32r	a4, 400d01bc <_image_irom_vaddr+0x19c> (3ff5a014 <UART1+0xa014>)
400d1d40:	0020c0        	memw
400d1d43:	0468      	l32i.n	a6, a4, 0
400d1d45:	156660        	extui	a6, a6, 22, 2
400d1d48:	740c      	movi.n	a4, 7
400d1d4a:	c04460        	sub	a4, a4, a6
400d1d4d:	114450        	slli	a4, a4, 11
400d1d50:	f91c61        	l32r	a6, 400d01c0 <_image_irom_vaddr+0x1a0> (3800 <CONFIG_SYS_CLOCK_TICKS_PER_SEC+0x10f0>)
400d1d53:	104460        	and	a4, a4, a6
400d1d56:	204540        	or	a4, a5, a4
400d1d59:	0020c0        	memw
400d1d5c:	0749      	s32i.n	a4, a7, 0
400d1d5e:	3a0c      	movi.n	a10, 3
400d1d60:	f91481        	l32r	a8, 400d01b0 <_image_irom_vaddr+0x190> (40008534 <esp_rom_delay_us>)
400d1d63:	0008e0        	callx8	a8
400d1d66:	a41c      	movi.n	a4, 26
400d1d68:	1c1247        	beq	a2, a4, 400d1d88 <rtc_clk_bbpll_configure+0x108>
400d1d6b:	842c      	movi.n	a4, 40
400d1d6d:	291247        	beq	a2, a4, 400d1d9a <rtc_clk_bbpll_configure+0x11a>
400d1d70:	841c      	movi.n	a4, 24
400d1d72:	379247        	bne	a2, a4, 400d1dad <rtc_clk_bbpll_configure+0x12d>
400d1d75:	140c      	movi.n	a4, 1
400d1d77:	060c      	movi.n	a6, 0
400d1d79:	042d      	mov.n	a2, a4
400d1d7b:	450c      	movi.n	a5, 4
400d1d7d:	90a082        	movi	a8, 144
400d1d80:	0189      	s32i.n	a8, a1, 0
400d1d82:	b70c      	movi.n	a7, 11
400d1d84:	000d06        	j	400d1dbc <rtc_clk_bbpll_configure+0x13c>
400d1d87:	00          	.byte 00
400d1d88:	140c      	movi.n	a4, 1
400d1d8a:	060c      	movi.n	a6, 0
400d1d8c:	042d      	mov.n	a2, a4
400d1d8e:	450c      	movi.n	a5, 4
400d1d90:	90a082        	movi	a8, 144
400d1d93:	0189      	s32i.n	a8, a1, 0
400d1d95:	c70c      	movi.n	a7, 12
400d1d97:	000846        	j	400d1dbc <rtc_clk_bbpll_configure+0x13c>
400d1d9a:	340c      	movi.n	a4, 3
400d1d9c:	660c      	movi.n	a6, 6
400d1d9e:	020c      	movi.n	a2, 0
400d1da0:	025d      	mov.n	a5, a2
400d1da2:	c81c      	movi.n	a8, 28
400d1da4:	0189      	s32i.n	a8, a1, 0
400d1da6:	027d      	mov.n	a7, a2
400d1da8:	000406        	j	400d1dbc <rtc_clk_bbpll_configure+0x13c>
400d1dab:	00          	.byte 00
400d1dac:	00          	.byte 00
400d1dad:	040c      	movi.n	a4, 0
400d1daf:	046d      	mov.n	a6, a4
400d1db1:	042d      	mov.n	a2, a4
400d1db3:	450c      	movi.n	a5, 4
400d1db5:	e0a082        	movi	a8, 224
400d1db8:	0189      	s32i.n	a8, a1, 0
400d1dba:	c70c      	movi.n	a7, 12
400d1dbc:	c3a0d2        	movi	a13, 195
400d1dbf:	bc0c      	movi.n	a12, 11
400d1dc1:	4b0c      	movi.n	a11, 4
400d1dc3:	66a0a2        	movi	a10, 102
400d1dc6:	ae9ba5        	call8	40080780 <regi2c_ctrl_write_reg>
400d1dc9:	74a0d2        	movi	a13, 116
400d1dcc:	9c0c      	movi.n	a12, 9
400d1dce:	4b0c      	movi.n	a11, 4
400d1dd0:	66a0a2        	movi	a10, 102
400d1dd3:	ae9ae5        	call8	40080780 <regi2c_ctrl_write_reg>
400d1dd6:	11d290        	slli	a13, a2, 7
400d1dd9:	1155c0        	slli	a5, a5, 4
400d1ddc:	20dd50        	or	a13, a13, a5
400d1ddf:	1144a0        	slli	a4, a4, 6
400d1de2:	204640        	or	a4, a6, a4
400d1de5:	20d7d0        	or	a13, a7, a13
400d1de8:	2c0c      	movi.n	a12, 2
400d1dea:	04a0b2        	movi	a11, 4
400d1ded:	66a0a2        	movi	a10, 102
400d1df0:	ae98e5        	call8	40080780 <regi2c_ctrl_write_reg>
400d1df3:	01d8      	l32i.n	a13, a1, 0
400d1df5:	3c0c      	movi.n	a12, 3
400d1df7:	4b0c      	movi.n	a11, 4
400d1df9:	66a0a2        	movi	a10, 102
400d1dfc:	ae9825        	call8	40080780 <regi2c_ctrl_write_reg>
400d1dff:	04dd      	mov.n	a13, a4
400d1e01:	5c0c      	movi.n	a12, 5
400d1e03:	4b0c      	movi.n	a11, 4
400d1e05:	66a0a2        	movi	a10, 102
400d1e08:	ae9765        	call8	40080780 <regi2c_ctrl_write_reg>
400d1e0b:	ffe2a5        	call8	400d1c34 <rtc_clk_slow_freq_get>
400d1e0e:	3acc      	bnez.n	a10, 400d1e15 <rtc_clk_bbpll_configure+0x195>
400d1e10:	0a5c      	movi.n	a10, 80
400d1e12:	000086        	j	400d1e18 <rtc_clk_bbpll_configure+0x198>
400d1e15:	a0a0a2        	movi	a10, 160
400d1e18:	f8e681        	l32r	a8, 400d01b0 <_image_irom_vaddr+0x190> (40008534 <esp_rom_delay_us>)
400d1e1b:	0008e0        	callx8	a8
400d1e1e:	f8dc21        	l32r	a2, 400d0190 <_image_irom_vaddr+0x170> (3ffc1cec <s_cur_pll_freq>)
400d1e21:	0239      	s32i.n	a3, a2, 0
400d1e23:	f01d      	retw.n
400d1e25:	000000        	ill

400d1e28 <rtc_clk_xtal_freq_get>:
400d1e28:	004136        	entry	a1, 32
400d1e2b:	f8e621        	l32r	a2, 400d01c4 <_image_irom_vaddr+0x1a4> (3ff480b0 <GPIO+0x40b0>)
400d1e2e:	0020c0        	memw
400d1e31:	0228      	l32i.n	a2, a2, 0
400d1e33:	f48020        	extui	a8, a2, 0, 16
400d1e36:	f59020        	extui	a9, a2, 16, 16
400d1e39:	0b9987        	bne	a9, a8, 400d1e48 <rtc_clk_xtal_freq_get+0x20>
400d1e3c:	820b      	addi.n	a8, a2, -1
400d1e3e:	d97c      	movi.n	a9, -3
400d1e40:	09b987        	bgeu	a9, a8, 400d1e4d <rtc_clk_xtal_freq_get+0x25>
400d1e43:	080c      	movi.n	a8, 0
400d1e45:	000186        	j	400d1e4f <rtc_clk_xtal_freq_get+0x27>
400d1e48:	080c      	movi.n	a8, 0
400d1e4a:	000046        	j	400d1e4f <rtc_clk_xtal_freq_get+0x27>
400d1e4d:	180c      	movi.n	a8, 1
400d1e4f:	788c      	beqz.n	a8, 400d1e5a <rtc_clk_xtal_freq_get+0x32>
400d1e51:	f8dd81        	l32r	a8, 400d01c8 <_image_irom_vaddr+0x1a8> (fffe <CONFIG_ESP_HEAP_MEM_POOL_REGION_1_SIZE+0x3ffe>)
400d1e54:	102280        	and	a2, a2, a8
400d1e57:	000046        	j	400d1e5c <rtc_clk_xtal_freq_get+0x34>
400d1e5a:	020c      	movi.n	a2, 0
400d1e5c:	f01d      	retw.n
	...

400d1e60 <rtc_clk_cpu_freq_mhz_to_config>:
400d1e60:	004136        	entry	a1, 32
400d1e63:	fffc65        	call8	400d1e28 <rtc_clk_xtal_freq_get>
400d1e66:	173a27        	bltu	a10, a2, 400d1e81 <rtc_clk_cpu_freq_mhz_to_config+0x21>
400d1e69:	c29a20        	quou	a9, a10, a2
400d1e6c:	418190        	srli	a8, a9, 1
400d1e6f:	8088a0        	add	a8, a8, a10
400d1e72:	c28890        	quou	a8, a8, a9
400d1e75:	419287        	bne	a2, a8, 400d1eba <rtc_clk_cpu_freq_mhz_to_config+0x5a>
400d1e78:	202880        	or	a2, a8, a8
400d1e7b:	00a082        	movi	a8, 0
400d1e7e:	000ac6        	j	400d1ead <rtc_clk_cpu_freq_mhz_to_config+0x4d>
400d1e81:	085c      	movi.n	a8, 80
400d1e83:	151287        	beq	a2, a8, 400d1e9c <rtc_clk_cpu_freq_mhz_to_config+0x3c>
400d1e86:	a0a082        	movi	a8, 160
400d1e89:	191287        	beq	a2, a8, 400d1ea6 <rtc_clk_cpu_freq_mhz_to_config+0x46>
400d1e8c:	f0a082        	movi	a8, 240
400d1e8f:	2d9287        	bne	a2, a8, 400d1ec0 <rtc_clk_cpu_freq_mhz_to_config+0x60>
400d1e92:	290c      	movi.n	a9, 2
400d1e94:	180c      	movi.n	a8, 1
400d1e96:	e0a1a2        	movi	a10, 0x1e0
400d1e99:	000406        	j	400d1ead <rtc_clk_cpu_freq_mhz_to_config+0x4d>
400d1e9c:	490c      	movi.n	a9, 4
400d1e9e:	180c      	movi.n	a8, 1
400d1ea0:	40a1a2        	movi	a10, 0x140
400d1ea3:	000186        	j	400d1ead <rtc_clk_cpu_freq_mhz_to_config+0x4d>
400d1ea6:	290c      	movi.n	a9, 2
400d1ea8:	180c      	movi.n	a8, 1
400d1eaa:	40a1a2        	movi	a10, 0x140
400d1ead:	0389      	s32i.n	a8, a3, 0
400d1eaf:	13a9      	s32i.n	a10, a3, 4
400d1eb1:	2399      	s32i.n	a9, a3, 8
400d1eb3:	3329      	s32i.n	a2, a3, 12
400d1eb5:	120c      	movi.n	a2, 1
400d1eb7:	0001c6        	j	400d1ec2 <rtc_clk_cpu_freq_mhz_to_config+0x62>
400d1eba:	020c      	movi.n	a2, 0
400d1ebc:	000086        	j	400d1ec2 <rtc_clk_cpu_freq_mhz_to_config+0x62>
400d1ebf:	00          	.byte 00
400d1ec0:	020c      	movi.n	a2, 0
400d1ec2:	f01d      	retw.n

400d1ec4 <rtc_clk_cpu_freq_get_config>:
400d1ec4:	004136        	entry	a1, 32
400d1ec7:	f8b731        	l32r	a3, 400d01a4 <_image_irom_vaddr+0x184> (3ff48070 <GPIO+0x4070>)
400d1eca:	0020c0        	memw
400d1ecd:	002332        	l32i	a3, a3, 0
400d1ed0:	153b30        	extui	a3, a3, 27, 2
400d1ed3:	211326        	beqi	a3, 1, 400d1ef8 <rtc_clk_cpu_freq_get_config+0x34>
400d1ed6:	722326        	beqi	a3, 2, 400d1f4c <rtc_clk_cpu_freq_get_config+0x88>
400d1ed9:	050356        	bnez	a3, 400d1f2d <rtc_clk_cpu_freq_get_config+0x69>
400d1edc:	f8bc41        	l32r	a4, 400d01cc <_image_irom_vaddr+0x1ac> (3ff66000 <SPI3+0x1000>)
400d1edf:	0020c0        	memw
400d1ee2:	002442        	l32i	a4, a4, 0
400d1ee5:	944040        	extui	a4, a4, 0, 10
400d1ee8:	01c442        	addi	a4, a4, 1
400d1eeb:	fff3e5        	call8	400d1e28 <rtc_clk_xtal_freq_get>
400d1eee:	0a6d      	mov.n	a6, a10
400d1ef0:	c25a40        	quou	a5, a10, a4
400d1ef3:	001f06        	j	400d1f73 <rtc_clk_cpu_freq_get_config+0xaf>
400d1ef6:	00          	.byte 00
400d1ef7:	00          	.byte 00
400d1ef8:	f8b641        	l32r	a4, 400d01d0 <_image_irom_vaddr+0x1b0> (3ff0003c <__font_entry_end+0xafb544>)
400d1efb:	0020c0        	memw
400d1efe:	0448      	l32i.n	a4, a4, 0
400d1f00:	144040        	extui	a4, a4, 0, 2
400d1f03:	04e416        	beqz	a4, 400d1f55 <rtc_clk_cpu_freq_get_config+0x91>
400d1f06:	561426        	beqi	a4, 1, 400d1f60 <rtc_clk_cpu_freq_get_config+0x9c>
400d1f09:	602426        	beqi	a4, 2, 400d1f6d <rtc_clk_cpu_freq_get_config+0xa9>
400d1f0c:	f89281        	l32r	a8, 400d0154 <_image_irom_vaddr+0x134> (3ffbfff8 <esp_log_default_level>)
400d1f0f:	0888      	l32i.n	a8, a8, 0
400d1f11:	f88c      	beqz.n	a8, 400d1f24 <rtc_clk_cpu_freq_get_config+0x60>
400d1f13:	b141e5        	call8	40083330 <esp_log_early_timestamp>
400d1f16:	f8afc1        	l32r	a12, 400d01d4 <_image_irom_vaddr+0x1b4> (3f403c38 <rtc_io_num_map+0xa0>)
400d1f19:	0abd      	mov.n	a11, a10
400d1f1b:	f8afa1        	l32r	a10, 400d01d8 <_image_irom_vaddr+0x1b8> (3f403c6c <rtc_io_num_map+0xd4>)
400d1f1e:	f89081        	l32r	a8, 400d0160 <_image_irom_vaddr+0x140> (40007d54 <esp_rom_printf>)
400d1f21:	0008e0        	callx8	a8
400d1f24:	0117e5        	call8	400d30a4 <abort>
400d1f27:	001206        	j	400d1f73 <rtc_clk_cpu_freq_get_config+0xaf>
400d1f2a:	00          	.byte 00
400d1f2b:	00          	.byte 00
400d1f2c:	00          	.byte 00
400d1f2d:	f88981        	l32r	a8, 400d0154 <_image_irom_vaddr+0x134> (3ffbfff8 <esp_log_default_level>)
400d1f30:	0888      	l32i.n	a8, a8, 0
400d1f32:	010816        	beqz	a8, 400d1f46 <rtc_clk_cpu_freq_get_config+0x82>
400d1f35:	b13fa5        	call8	40083330 <esp_log_early_timestamp>
400d1f38:	f8a7c1        	l32r	a12, 400d01d4 <_image_irom_vaddr+0x1b4> (3f403c38 <rtc_io_num_map+0xa0>)
400d1f3b:	0abd      	mov.n	a11, a10
400d1f3d:	f8a6a1        	l32r	a10, 400d01d8 <_image_irom_vaddr+0x1b8> (3f403c6c <rtc_io_num_map+0xd4>)
400d1f40:	f88881        	l32r	a8, 400d0160 <_image_irom_vaddr+0x140> (40007d54 <esp_rom_printf>)
400d1f43:	0008e0        	callx8	a8
400d1f46:	0115e5        	call8	400d30a4 <abort>
400d1f49:	000986        	j	400d1f73 <rtc_clk_cpu_freq_get_config+0xaf>
400d1f4c:	850c      	movi.n	a5, 8
400d1f4e:	140c      	movi.n	a4, 1
400d1f50:	056d      	mov.n	a6, a5
400d1f52:	000746        	j	400d1f73 <rtc_clk_cpu_freq_get_config+0xaf>
400d1f55:	055c      	movi.n	a5, 80
400d1f57:	440c      	movi.n	a4, 4
400d1f59:	40a162        	movi	a6, 0x140
400d1f5c:	0004c6        	j	400d1f73 <rtc_clk_cpu_freq_get_config+0xaf>
400d1f5f:	00          	.byte 00
400d1f60:	043d      	mov.n	a3, a4
400d1f62:	a0a052        	movi	a5, 160
400d1f65:	240c      	movi.n	a4, 2
400d1f67:	40a162        	movi	a6, 0x140
400d1f6a:	000146        	j	400d1f73 <rtc_clk_cpu_freq_get_config+0xaf>
400d1f6d:	f0a052        	movi	a5, 240
400d1f70:	e0a162        	movi	a6, 0x1e0
400d1f73:	0239      	s32i.n	a3, a2, 0
400d1f75:	1269      	s32i.n	a6, a2, 4
400d1f77:	2249      	s32i.n	a4, a2, 8
400d1f79:	3259      	s32i.n	a5, a2, 12
400d1f7b:	f01d      	retw.n
400d1f7d:	000000        	ill

400d1f80 <rtc_clk_xtal_freq_update>:
400d1f80:	004136        	entry	a1, 32
400d1f83:	f89081        	l32r	a8, 400d01c4 <_image_irom_vaddr+0x1a4> (3ff480b0 <GPIO+0x40b0>)
400d1f86:	0020c0        	memw
400d1f89:	0888      	l32i.n	a8, a8, 0
400d1f8b:	f89491        	l32r	a9, 400d01dc <_image_irom_vaddr+0x1bc> (10001 <CONFIG_ESP_HEAP_MEM_POOL_REGION_1_SIZE+0x4001>)
400d1f8e:	108890        	and	a8, a8, a9
400d1f91:	049897        	bne	a8, a9, 400d1f99 <rtc_clk_xtal_freq_update+0x19>
400d1f94:	180c      	movi.n	a8, 1
400d1f96:	202280        	or	a2, a2, a8
400d1f99:	f48020        	extui	a8, a2, 0, 16
400d1f9c:	112200        	slli	a2, a2, 16
400d1f9f:	208820        	or	a8, a8, a2
400d1fa2:	f88821        	l32r	a2, 400d01c4 <_image_irom_vaddr+0x1a4> (3ff480b0 <GPIO+0x40b0>)
400d1fa5:	0020c0        	memw
400d1fa8:	0289      	s32i.n	a8, a2, 0
400d1faa:	f01d      	retw.n

400d1fac <rtc_clk_apb_freq_update>:
400d1fac:	004136        	entry	a1, 32
400d1faf:	418c20        	srli	a8, a2, 12
400d1fb2:	f42c20        	extui	a2, a2, 12, 16
400d1fb5:	118800        	slli	a8, a8, 16
400d1fb8:	202280        	or	a2, a2, a8
400d1fbb:	f88981        	l32r	a8, 400d01e0 <_image_irom_vaddr+0x1c0> (3ff480b4 <GPIO+0x40b4>)
400d1fbe:	0020c0        	memw
400d1fc1:	0829      	s32i.n	a2, a8, 0
400d1fc3:	f01d      	retw.n
400d1fc5:	000000        	ill

400d1fc8 <rtc_clk_cpu_freq_to_xtal>:
400d1fc8:	004136        	entry	a1, 32
400d1fcb:	20a220        	or	a10, a2, a2
400d1fce:	ae80a5        	call8	400807d8 <ets_update_cpu_frequency>
400d1fd1:	f87e91        	l32r	a9, 400d01cc <_image_irom_vaddr+0x1ac> (3ff66000 <SPI3+0x1000>)
400d1fd4:	0020c0        	memw
400d1fd7:	002982        	l32i	a8, a9, 0
400d1fda:	00aca2        	movi	a10, 0xfffffc00
400d1fdd:	1088a0        	and	a8, a8, a10
400d1fe0:	ffc332        	addi	a3, a3, -1
400d1fe3:	943030        	extui	a3, a3, 0, 10
400d1fe6:	208830        	or	a8, a8, a3
400d1fe9:	0020c0        	memw
400d1fec:	0989      	s32i.n	a8, a9, 0
400d1fee:	820b      	addi.n	a8, a2, -1
400d1ff0:	f87d31        	l32r	a3, 400d01e4 <_image_irom_vaddr+0x1c4> (3ff66004 <SPI3+0x1004>)
400d1ff3:	0020c0        	memw
400d1ff6:	0389      	s32i.n	a8, a3, 0
400d1ff8:	f86b81        	l32r	a8, 400d01a4 <_image_irom_vaddr+0x184> (3ff48070 <GPIO+0x4070>)
400d1ffb:	0020c0        	memw
400d1ffe:	0838      	l32i.n	a3, a8, 0
400d2000:	f87a91        	l32r	a9, 400d01e8 <_image_irom_vaddr+0x1c8> (e7ffffff <_rtc_bss_end+0x97ffffff>)
400d2003:	103390        	and	a3, a3, a9
400d2006:	0020c0        	memw
400d2009:	0839      	s32i.n	a3, a8, 0
400d200b:	f842a1        	l32r	a10, 400d0114 <_image_irom_vaddr+0xf4> (f4240 <_image_irom_start+0xda94c>)
400d200e:	82a2a0        	mull	a10, a2, a10
400d2011:	fff9a5        	call8	400d1fac <rtc_clk_apb_freq_update>
400d2014:	1c32e6        	bgei	a2, 3, 400d2034 <rtc_clk_cpu_freq_to_xtal+0x6c>
400d2017:	f86831        	l32r	a3, 400d01b8 <_image_irom_vaddr+0x198> (3ff4807c <GPIO+0x407c>)
400d201a:	0020c0        	memw
400d201d:	0328      	l32i.n	a2, a3, 0
400d201f:	f82981        	l32r	a8, 400d00c4 <_image_irom_vaddr+0xa4> (ffffc7ff <_rtc_bss_end+0xafffc7ff>)
400d2022:	102280        	and	a2, a2, a8
400d2025:	f81381        	l32r	a8, 400d0074 <_image_irom_vaddr+0x54> (1000 <CONFIG_HEAP_MEM_POOL_SIZE>)
400d2028:	202280        	or	a2, a2, a8
400d202b:	0020c0        	memw
400d202e:	0329      	s32i.n	a2, a3, 0
400d2030:	000646        	j	400d204d <rtc_clk_cpu_freq_to_xtal+0x85>
400d2033:	00          	.byte 00
400d2034:	f86131        	l32r	a3, 400d01b8 <_image_irom_vaddr+0x198> (3ff4807c <GPIO+0x407c>)
400d2037:	0020c0        	memw
400d203a:	0328      	l32i.n	a2, a3, 0
400d203c:	f82281        	l32r	a8, 400d00c4 <_image_irom_vaddr+0xa4> (ffffc7ff <_rtc_bss_end+0xafffc7ff>)
400d203f:	102280        	and	a2, a2, a8
400d2042:	f80681        	l32r	a8, 400d005c <_image_irom_vaddr+0x3c> (2000 <CONFIG_HEAP_MEM_POOL_SIZE+0x1000>)
400d2045:	202280        	or	a2, a2, a8
400d2048:	0020c0        	memw
400d204b:	0329      	s32i.n	a2, a3, 0
400d204d:	f01d      	retw.n
	...

400d2050 <rtc_clk_cpu_freq_to_pll_mhz>:
400d2050:	004136        	entry	a1, 32
400d2053:	f85a31        	l32r	a3, 400d01bc <_image_irom_vaddr+0x19c> (3ff5a014 <UART1+0xa014>)
400d2056:	0020c0        	memw
400d2059:	0388      	l32i.n	a8, a3, 0
400d205b:	158680        	extui	a8, a8, 22, 2
400d205e:	730c      	movi.n	a3, 7
400d2060:	c03380        	sub	a3, a3, a8
400d2063:	085c      	movi.n	a8, 80
400d2065:	441287        	beq	a2, a8, 400d20ad <rtc_clk_cpu_freq_to_pll_mhz+0x5d>
400d2068:	a0a082        	movi	a8, 160
400d206b:	431287        	beq	a2, a8, 400d20b2 <rtc_clk_cpu_freq_to_pll_mhz+0x62>
400d206e:	f0a082        	movi	a8, 240
400d2071:	149287        	bne	a2, a8, 400d2089 <rtc_clk_cpu_freq_to_pll_mhz+0x39>
400d2074:	f85231        	l32r	a3, 400d01bc <_image_irom_vaddr+0x19c> (3ff5a014 <UART1+0xa014>)
400d2077:	0020c0        	memw
400d207a:	0388      	l32i.n	a8, a3, 0
400d207c:	158680        	extui	a8, a8, 22, 2
400d207f:	730c      	movi.n	a3, 7
400d2081:	c03380        	sub	a3, a3, a8
400d2084:	290c      	movi.n	a9, 2
400d2086:	000ac6        	j	400d20b5 <rtc_clk_cpu_freq_to_pll_mhz+0x65>
400d2089:	f83281        	l32r	a8, 400d0154 <_image_irom_vaddr+0x134> (3ffbfff8 <esp_log_default_level>)
400d208c:	002882        	l32i	a8, a8, 0
400d208f:	011816        	beqz	a8, 400d20a4 <rtc_clk_cpu_freq_to_pll_mhz+0x54>
400d2092:	b129e5        	call8	40083330 <esp_log_early_timestamp>
400d2095:	f84fc1        	l32r	a12, 400d01d4 <_image_irom_vaddr+0x1b4> (3f403c38 <rtc_io_num_map+0xa0>)
400d2098:	20baa0        	or	a11, a10, a10
400d209b:	f854a1        	l32r	a10, 400d01ec <_image_irom_vaddr+0x1cc> (3f403c9c <rtc_io_num_map+0x104>)
400d209e:	f83081        	l32r	a8, 400d0160 <_image_irom_vaddr+0x140> (40007d54 <esp_rom_printf>)
400d20a1:	0008e0        	callx8	a8
400d20a4:	00ffe5        	call8	400d30a4 <abort>
400d20a7:	00a092        	movi	a9, 0
400d20aa:	0001c6        	j	400d20b5 <rtc_clk_cpu_freq_to_pll_mhz+0x65>
400d20ad:	090c      	movi.n	a9, 0
400d20af:	000086        	j	400d20b5 <rtc_clk_cpu_freq_to_pll_mhz+0x65>
400d20b2:	01a092        	movi	a9, 1
400d20b5:	f84681        	l32r	a8, 400d01d0 <_image_irom_vaddr+0x1b0> (3ff0003c <__font_entry_end+0xafb544>)
400d20b8:	0020c0        	memw
400d20bb:	0899      	s32i.n	a9, a8, 0
400d20bd:	f83e91        	l32r	a9, 400d01b8 <_image_irom_vaddr+0x198> (3ff4807c <GPIO+0x407c>)
400d20c0:	0020c0        	memw
400d20c3:	0988      	l32i.n	a8, a9, 0
400d20c5:	f7ffa1        	l32r	a10, 400d00c4 <_image_irom_vaddr+0xa4> (ffffc7ff <_rtc_bss_end+0xafffc7ff>)
400d20c8:	1088a0        	and	a8, a8, a10
400d20cb:	113350        	slli	a3, a3, 11
400d20ce:	f83ca1        	l32r	a10, 400d01c0 <_image_irom_vaddr+0x1a0> (3800 <CONFIG_SYS_CLOCK_TICKS_PER_SEC+0x10f0>)
400d20d1:	1033a0        	and	a3, a3, a10
400d20d4:	203830        	or	a3, a8, a3
400d20d7:	0020c0        	memw
400d20da:	0939      	s32i.n	a3, a9, 0
400d20dc:	f83281        	l32r	a8, 400d01a4 <_image_irom_vaddr+0x184> (3ff48070 <GPIO+0x4070>)
400d20df:	0020c0        	memw
400d20e2:	0838      	l32i.n	a3, a8, 0
400d20e4:	f84191        	l32r	a9, 400d01e8 <_image_irom_vaddr+0x1c8> (e7ffffff <_rtc_bss_end+0x97ffffff>)
400d20e7:	103390        	and	a3, a3, a9
400d20ea:	f80391        	l32r	a9, 400d00f8 <_image_irom_vaddr+0xd8> (8000000 <CONFIG_FLASH_SIZE+0x7c00000>)
400d20ed:	203390        	or	a3, a3, a9
400d20f0:	0020c0        	memw
400d20f3:	0839      	s32i.n	a3, a8, 0
400d20f5:	f7e8a1        	l32r	a10, 400d0098 <_image_irom_vaddr+0x78> (4c4b400 <CONFIG_FLASH_SIZE+0x484b400>)
400d20f8:	ffeb25        	call8	400d1fac <rtc_clk_apb_freq_update>
400d20fb:	02ad      	mov.n	a10, a2
400d20fd:	ae6da5        	call8	400807d8 <ets_update_cpu_frequency>
400d2100:	0068e5        	call8	400d2790 <rtc_clk_wait_for_slow_cycle>
400d2103:	f01d      	retw.n
400d2105:	000000        	ill

400d2108 <rtc_clk_cpu_freq_to_8m>:
400d2108:	004136        	entry	a1, 32
400d210b:	08a0a2        	movi	a10, 8
400d210e:	ae6ca5        	call8	400807d8 <ets_update_cpu_frequency>
400d2111:	f82991        	l32r	a9, 400d01b8 <_image_irom_vaddr+0x198> (3ff4807c <GPIO+0x407c>)
400d2114:	0020c0        	memw
400d2117:	002982        	l32i	a8, a9, 0
400d211a:	f7eaa1        	l32r	a10, 400d00c4 <_image_irom_vaddr+0xa4> (ffffc7ff <_rtc_bss_end+0xafffc7ff>)
400d211d:	1088a0        	and	a8, a8, a10
400d2120:	f7cfa1        	l32r	a10, 400d005c <_image_irom_vaddr+0x3c> (2000 <CONFIG_HEAP_MEM_POOL_SIZE+0x1000>)
400d2123:	2088a0        	or	a8, a8, a10
400d2126:	0020c0        	memw
400d2129:	006982        	s32i	a8, a9, 0
400d212c:	f82891        	l32r	a9, 400d01cc <_image_irom_vaddr+0x1ac> (3ff66000 <SPI3+0x1000>)
400d212f:	0020c0        	memw
400d2132:	0988      	l32i.n	a8, a9, 0
400d2134:	00aca2        	movi	a10, 0xfffffc00
400d2137:	1088a0        	and	a8, a8, a10
400d213a:	0020c0        	memw
400d213d:	0989      	s32i.n	a8, a9, 0
400d213f:	f81991        	l32r	a9, 400d01a4 <_image_irom_vaddr+0x184> (3ff48070 <GPIO+0x4070>)
400d2142:	0020c0        	memw
400d2145:	0988      	l32i.n	a8, a9, 0
400d2147:	f828a1        	l32r	a10, 400d01e8 <_image_irom_vaddr+0x1c8> (e7ffffff <_rtc_bss_end+0x97ffffff>)
400d214a:	1088a0        	and	a8, a8, a10
400d214d:	f828a1        	l32r	a10, 400d01f0 <_image_irom_vaddr+0x1d0> (10000000 <CONFIG_SYS_CLOCK_HW_CYCLES_PER_SEC+0x1b1e400>)
400d2150:	2088a0        	or	a8, a8, a10
400d2153:	0020c0        	memw
400d2156:	0989      	s32i.n	a8, a9, 0
400d2158:	f827a1        	l32r	a10, 400d01f4 <_image_irom_vaddr+0x1d4> (81b320 <CONFIG_FLASH_SIZE+0x41b320>)
400d215b:	ffe525        	call8	400d1fac <rtc_clk_apb_freq_update>
400d215e:	f01d      	retw.n

400d2160 <rtc_clk_cpu_freq_set_config>:
400d2160:	004136        	entry	a1, 32
400d2163:	ffcc65        	call8	400d1e28 <rtc_clk_xtal_freq_get>
400d2166:	f80f31        	l32r	a3, 400d01a4 <_image_irom_vaddr+0x184> (3ff48070 <GPIO+0x4070>)
400d2169:	0020c0        	memw
400d216c:	002332        	l32i	a3, a3, 0
400d216f:	153b30        	extui	a3, a3, 27, 2
400d2172:	00e316        	beqz	a3, 400d2184 <rtc_clk_cpu_freq_set_config+0x24>
400d2175:	01a0b2        	movi	a11, 1
400d2178:	ffe4e5        	call8	400d1fc8 <rtc_clk_cpu_freq_to_xtal>
400d217b:	006165        	call8	400d2790 <rtc_clk_wait_for_slow_cycle>
400d217e:	021366        	bnei	a3, 1, 400d2184 <rtc_clk_cpu_freq_set_config+0x24>
400d2181:	ff8ae5        	call8	400d1a30 <rtc_clk_bbpll_disable>
400d2184:	002232        	l32i	a3, a2, 0
400d2187:	00d356        	bnez	a3, 400d2198 <rtc_clk_cpu_freq_set_config+0x38>
400d218a:	0222b2        	l32i	a11, a2, 8
400d218d:	292bb6        	bltui	a11, 2, 400d21ba <rtc_clk_cpu_freq_set_config+0x5a>
400d2190:	32a8      	l32i.n	a10, a2, 12
400d2192:	ffe365        	call8	400d1fc8 <rtc_clk_cpu_freq_to_xtal>
400d2195:	000846        	j	400d21ba <rtc_clk_cpu_freq_set_config+0x5a>
400d2198:	181366        	bnei	a3, 1, 400d21b4 <rtc_clk_cpu_freq_set_config+0x54>
400d219b:	ff8d65        	call8	400d1a70 <rtc_clk_bbpll_enable>
400d219e:	005f25        	call8	400d2790 <rtc_clk_wait_for_slow_cycle>
400d21a1:	ffc865        	call8	400d1e28 <rtc_clk_xtal_freq_get>
400d21a4:	12b8      	l32i.n	a11, a2, 4
400d21a6:	ffada5        	call8	400d1c80 <rtc_clk_bbpll_configure>
400d21a9:	32a8      	l32i.n	a10, a2, 12
400d21ab:	ffea65        	call8	400d2050 <rtc_clk_cpu_freq_to_pll_mhz>
400d21ae:	000206        	j	400d21ba <rtc_clk_cpu_freq_set_config+0x5a>
400d21b1:	00          	.byte 00
400d21b2:	00          	.byte 00
400d21b3:	00          	.byte 00
400d21b4:	022366        	bnei	a3, 2, 400d21ba <rtc_clk_cpu_freq_set_config+0x5a>
400d21b7:	fff525        	call8	400d2108 <rtc_clk_cpu_freq_to_8m>
400d21ba:	f01d      	retw.n

400d21bc <rtc_clk_apb_freq_get>:
400d21bc:	004136        	entry	a1, 32
400d21bf:	f80821        	l32r	a2, 400d01e0 <_image_irom_vaddr+0x1c0> (3ff480b4 <GPIO+0x40b4>)
400d21c2:	0020c0        	memw
400d21c5:	0288      	l32i.n	a8, a2, 0
400d21c7:	118840        	slli	a8, a8, 12
400d21ca:	f80b21        	l32r	a2, 400d01f8 <_image_irom_vaddr+0x1d8> (ffff000 <CONFIG_SYS_CLOCK_HW_CYCLES_PER_SEC+0x1b1d400>)
400d21cd:	108820        	and	a8, a8, a2
400d21d0:	f80b21        	l32r	a2, 400d01fc <_image_irom_vaddr+0x1dc> (7a120 <_image_irom_start+0x6082c>)
400d21d3:	882a      	add.n	a8, a8, a2
400d21d5:	f80a21        	l32r	a2, 400d0200 <_image_irom_vaddr+0x1e0> (431bde83 <_etext+0x30e811b>)
400d21d8:	a28820        	muluh	a8, a8, a2
400d21db:	d58280        	extui	a8, a8, 18, 14
400d21de:	f7cd21        	l32r	a2, 400d0114 <_image_irom_vaddr+0xf4> (f4240 <_image_irom_start+0xda94c>)
400d21e1:	822820        	mull	a2, a8, a2
400d21e4:	f01d      	retw.n
	...

400d21e8 <rtc_init>:
400d21e8:	004136        	entry	a1, 32
400d21eb:	f7ea91        	l32r	a9, 400d0194 <_image_irom_vaddr+0x174> (3ff48030 <GPIO+0x4030>)
400d21ee:	0020c0        	memw
400d21f1:	0988      	l32i.n	a8, a9, 0
400d21f3:	f804a1        	l32r	a10, 400d0204 <_image_irom_vaddr+0x1e4> (23ffffff <CONFIG_SYS_CLOCK_HW_CYCLES_PER_SEC+0x15b1e3ff>)
400d21f6:	1088a0        	and	a8, a8, a10
400d21f9:	0020c0        	memw
400d21fc:	0989      	s32i.n	a8, a9, 0
400d21fe:	f7ea81        	l32r	a8, 400d01a8 <_image_irom_vaddr+0x188> (3ff4801c <GPIO+0x401c>)
400d2201:	0020c0        	memw
400d2204:	0898      	l32i.n	a9, a8, 0
400d2206:	f7b4a1        	l32r	a10, 400d00d8 <_image_irom_vaddr+0xb8> (ffffff <CONFIG_FLASH_SIZE+0xbfffff>)
400d2209:	1099a0        	and	a9, a9, a10
400d220c:	75a020        	extui	a10, a2, 16, 8
400d220f:	01aa80        	slli	a10, a10, 24
400d2212:	2099a0        	or	a9, a9, a10
400d2215:	0020c0        	memw
400d2218:	0899      	s32i.n	a9, a8, 0
400d221a:	0020c0        	memw
400d221d:	0898      	l32i.n	a9, a8, 0
400d221f:	f7faa1        	l32r	a10, 400d0208 <_image_irom_vaddr+0x1e8> (ff003fff <_rtc_bss_end+0xaf003fff>)
400d2222:	1099a0        	and	a9, a9, a10
400d2225:	74a820        	extui	a10, a2, 8, 8
400d2228:	11aa20        	slli	a10, a10, 14
400d222b:	2099a0        	or	a9, a9, a10
400d222e:	0020c0        	memw
400d2231:	0899      	s32i.n	a9, a8, 0
400d2233:	0020c0        	memw
400d2236:	0898      	l32i.n	a9, a8, 0
400d2238:	f7dda1        	l32r	a10, 400d01ac <_image_irom_vaddr+0x18c> (ffffc03f <_rtc_bss_end+0xafffc03f>)
400d223b:	1099a0        	and	a9, a9, a10
400d223e:	74a020        	extui	a10, a2, 0, 8
400d2241:	11aaa0        	slli	a10, a10, 6
400d2244:	2099a0        	or	a9, a9, a10
400d2247:	0020c0        	memw
400d224a:	0899      	s32i.n	a9, a8, 0
400d224c:	f7f081        	l32r	a8, 400d020c <_image_irom_vaddr+0x1ec> (3ff48078 <GPIO+0x4078>)
400d224f:	0020c0        	memw
400d2252:	0898      	l32i.n	a9, a8, 0
400d2254:	f7efa1        	l32r	a10, 400d0210 <_image_irom_vaddr+0x1f0> (3000000 <CONFIG_FLASH_SIZE+0x2c00000>)
400d2257:	2099a0        	or	a9, a9, a10
400d225a:	0020c0        	memw
400d225d:	0899      	s32i.n	a9, a8, 0
400d225f:	0020c0        	memw
400d2262:	0898      	l32i.n	a9, a8, 0
400d2264:	f7b8a1        	l32r	a10, 400d0144 <_image_irom_vaddr+0x124> (60000000 <_rtc_bss_end+0x10000000>)
400d2267:	2099a0        	or	a9, a9, a10
400d226a:	0020c0        	memw
400d226d:	0899      	s32i.n	a9, a8, 0
400d226f:	f7d291        	l32r	a9, 400d01b8 <_image_irom_vaddr+0x198> (3ff4807c <GPIO+0x407c>)
400d2272:	0020c0        	memw
400d2275:	0988      	l32i.n	a8, a9, 0
400d2277:	f7e7a1        	l32r	a10, 400d0214 <_image_irom_vaddr+0x1f4> (f1ffffff <_rtc_bss_end+0xa1ffffff>)
400d227a:	1088a0        	and	a8, a8, a10
400d227d:	f79ea1        	l32r	a10, 400d00f8 <_image_irom_vaddr+0xd8> (8000000 <CONFIG_FLASH_SIZE+0x7c00000>)
400d2280:	2088a0        	or	a8, a8, a10
400d2283:	0020c0        	memw
400d2286:	0989      	s32i.n	a8, a9, 0
400d2288:	0020c0        	memw
400d228b:	0988      	l32i.n	a8, a9, 0
400d228d:	f7e2a1        	l32r	a10, 400d0218 <_image_irom_vaddr+0x1f8> (fe3fffff <_rtc_bss_end+0xae3fffff>)
400d2290:	1088a0        	and	a8, a8, a10
400d2293:	f78aa1        	l32r	a10, 400d00bc <_image_irom_vaddr+0x9c> (1000000 <CONFIG_FLASH_SIZE+0xc00000>)
400d2296:	2088a0        	or	a8, a8, a10
400d2299:	0020c0        	memw
400d229c:	0989      	s32i.n	a8, a9, 0
400d229e:	0282a7        	bany	a2, a10, 400d22a4 <rtc_init+0xbc>
400d22a1:	0024c6        	j	400d2338 <rtc_init+0x150>
400d22a4:	f7de91        	l32r	a9, 400d021c <_image_irom_vaddr+0x1fc> (3ff00044 <__font_entry_end+0xafb54c>)
400d22a7:	0020c0        	memw
400d22aa:	0988      	l32i.n	a8, a9, 0
400d22ac:	f7dda1        	l32r	a10, 400d0220 <_image_irom_vaddr+0x200> (fffff7ff <_rtc_bss_end+0xaffff7ff>)
400d22af:	1088a0        	and	a8, a8, a10
400d22b2:	0020c0        	memw
400d22b5:	0989      	s32i.n	a8, a9, 0
400d22b7:	f7db91        	l32r	a9, 400d0224 <_image_irom_vaddr+0x204> (3ff0005c <__font_entry_end+0xafb564>)
400d22ba:	0020c0        	memw
400d22bd:	0988      	l32i.n	a8, a9, 0
400d22bf:	1088a0        	and	a8, a8, a10
400d22c2:	0020c0        	memw
400d22c5:	0989      	s32i.n	a8, a9, 0
400d22c7:	f7d881        	l32r	a8, 400d0228 <_image_irom_vaddr+0x208> (3ff00094 <__font_entry_end+0xafb59c>)
400d22ca:	0020c0        	memw
400d22cd:	0898      	l32i.n	a9, a8, 0
400d22cf:	03afa2        	movi	a10, -253
400d22d2:	1099a0        	and	a9, a9, a10
400d22d5:	0020c0        	memw
400d22d8:	0899      	s32i.n	a9, a8, 0
400d22da:	0020c0        	memw
400d22dd:	0898      	l32i.n	a9, a8, 0
400d22df:	da7c      	movi.n	a10, -3
400d22e1:	1099a0        	and	a9, a9, a10
400d22e4:	0020c0        	memw
400d22e7:	0899      	s32i.n	a9, a8, 0
400d22e9:	0020c0        	memw
400d22ec:	0898      	l32i.n	a9, a8, 0
400d22ee:	ea7c      	movi.n	a10, -2
400d22f0:	1099a0        	and	a9, a9, a10
400d22f3:	0020c0        	memw
400d22f6:	0899      	s32i.n	a9, a8, 0
400d22f8:	f7cd81        	l32r	a8, 400d022c <_image_irom_vaddr+0x20c> (3ff000a0 <__font_entry_end+0xafb5a8>)
400d22fb:	0020c0        	memw
400d22fe:	0898      	l32i.n	a9, a8, 0
400d2300:	090c      	movi.n	a9, 0
400d2302:	0020c0        	memw
400d2305:	0899      	s32i.n	a9, a8, 0
400d2307:	f7ca91        	l32r	a9, 400d0230 <_image_irom_vaddr+0x210> (3ff000a4 <__font_entry_end+0xafb5ac>)
400d230a:	0020c0        	memw
400d230d:	0988      	l32i.n	a8, a9, 0
400d230f:	1088a0        	and	a8, a8, a10
400d2312:	0020c0        	memw
400d2315:	0989      	s32i.n	a8, a9, 0
400d2317:	f7c781        	l32r	a8, 400d0234 <_image_irom_vaddr+0x214> (3ff000ac <__font_entry_end+0xafb5b4>)
400d231a:	0020c0        	memw
400d231d:	0898      	l32i.n	a9, a8, 0
400d231f:	ffaeb2        	movi	a11, 0xfffffeff
400d2322:	1099b0        	and	a9, a9, a11
400d2325:	0020c0        	memw
400d2328:	0899      	s32i.n	a9, a8, 0
400d232a:	0020c0        	memw
400d232d:	0898      	l32i.n	a9, a8, 0
400d232f:	1099a0        	and	a9, a9, a10
400d2332:	0020c0        	memw
400d2335:	006892        	s32i	a9, a8, 0
400d2338:	02f297        	bbsi	a2, 25, 400d233e <rtc_init+0x156>
400d233b:	007b46        	j	400d252c <rtc_init+0x344>
400d233e:	f79991        	l32r	a9, 400d01a4 <_image_irom_vaddr+0x184> (3ff48070 <GPIO+0x4070>)
400d2341:	0020c0        	memw
400d2344:	0988      	l32i.n	a8, a9, 0
400d2346:	f760a1        	l32r	a10, 400d00c8 <_image_irom_vaddr+0xa8> (fbffffff <_rtc_bss_end+0xabffffff>)
400d2349:	1088a0        	and	a8, a8, a10
400d234c:	0020c0        	memw
400d234f:	0989      	s32i.n	a8, a9, 0
400d2351:	f78e81        	l32r	a8, 400d018c <_image_irom_vaddr+0x16c> (3ff48000 <GPIO+0x4000>)
400d2354:	0020c0        	memw
400d2357:	0898      	l32i.n	a9, a8, 0
400d2359:	f7b7a1        	l32r	a10, 400d0238 <_image_irom_vaddr+0x218> (ffffdfff <_rtc_bss_end+0xafffdfff>)
400d235c:	1099a0        	and	a9, a9, a10
400d235f:	0020c0        	memw
400d2362:	0899      	s32i.n	a9, a8, 0
400d2364:	0020c0        	memw
400d2367:	0898      	l32i.n	a9, a8, 0
400d2369:	f7b4a1        	l32r	a10, 400d023c <_image_irom_vaddr+0x21c> (ffbfffff <_rtc_bss_end+0xafbfffff>)
400d236c:	1099a0        	and	a9, a9, a10
400d236f:	0020c0        	memw
400d2372:	0899      	s32i.n	a9, a8, 0
400d2374:	0020c0        	memw
400d2377:	0898      	l32i.n	a9, a8, 0
400d2379:	f788a1        	l32r	a10, 400d019c <_image_irom_vaddr+0x17c> (fff7ffff <_rtc_bss_end+0xaff7ffff>)
400d237c:	1099a0        	and	a9, a9, a10
400d237f:	0020c0        	memw
400d2382:	0899      	s32i.n	a9, a8, 0
400d2384:	0020c0        	memw
400d2387:	0898      	l32i.n	a9, a8, 0
400d2389:	f750a1        	l32r	a10, 400d00cc <_image_irom_vaddr+0xac> (fffeffff <_rtc_bss_end+0xaffeffff>)
400d238c:	1099a0        	and	a9, a9, a10
400d238f:	0020c0        	memw
400d2392:	0899      	s32i.n	a9, a8, 0
400d2394:	0020c0        	memw
400d2397:	0898      	l32i.n	a9, a8, 0
400d2399:	f747a1        	l32r	a10, 400d00b8 <_image_irom_vaddr+0x98> (100000 <_image_irom_start+0xe670c>)
400d239c:	2099a0        	or	a9, a9, a10
400d239f:	0020c0        	memw
400d23a2:	0899      	s32i.n	a9, a8, 0
400d23a4:	0020c0        	memw
400d23a7:	0898      	l32i.n	a9, a8, 0
400d23a9:	f7a5a1        	l32r	a10, 400d0240 <_image_irom_vaddr+0x220> (20000 <_image_irom_start+0x670c>)
400d23ac:	2099a0        	or	a9, a9, a10
400d23af:	0020c0        	memw
400d23b2:	0899      	s32i.n	a9, a8, 0
400d23b4:	0020c0        	memw
400d23b7:	0898      	l32i.n	a9, a8, 0
400d23b9:	f73da1        	l32r	a10, 400d00b0 <_image_irom_vaddr+0x90> (4000 <CONFIG_COVERAGE_GCOV_HEAP_SIZE>)
400d23bc:	2099a0        	or	a9, a9, a10
400d23bf:	0020c0        	memw
400d23c2:	0899      	s32i.n	a9, a8, 0
400d23c4:	f77491        	l32r	a9, 400d0194 <_image_irom_vaddr+0x174> (3ff48030 <GPIO+0x4030>)
400d23c7:	0020c0        	memw
400d23ca:	09a8      	l32i.n	a10, a9, 0
400d23cc:	f72fb1        	l32r	a11, 400d0088 <_image_irom_vaddr+0x68> (feffffff <_rtc_bss_end+0xaeffffff>)
400d23cf:	10aab0        	and	a10, a10, a11
400d23d2:	0020c0        	memw
400d23d5:	09a9      	s32i.n	a10, a9, 0
400d23d7:	0020c0        	memw
400d23da:	09a8      	l32i.n	a10, a9, 0
400d23dc:	f736b1        	l32r	a11, 400d00b4 <_image_irom_vaddr+0x94> (800000 <CONFIG_FLASH_SIZE+0x400000>)
400d23df:	20aab0        	or	a10, a10, a11
400d23e2:	0020c0        	memw
400d23e5:	09a9      	s32i.n	a10, a9, 0
400d23e7:	0020c0        	memw
400d23ea:	0898      	l32i.n	a9, a8, 0
400d23ec:	f78da1        	l32r	a10, 400d0220 <_image_irom_vaddr+0x200> (fffff7ff <_rtc_bss_end+0xaffff7ff>)
400d23ef:	1099a0        	and	a9, a9, a10
400d23f2:	0020c0        	memw
400d23f5:	0899      	s32i.n	a9, a8, 0
400d23f7:	0020c0        	memw
400d23fa:	0898      	l32i.n	a9, a8, 0
400d23fc:	ffada2        	movi	a10, 0xfffffdff
400d23ff:	1099a0        	and	a9, a9, a10
400d2402:	0020c0        	memw
400d2405:	0899      	s32i.n	a9, a8, 0
400d2407:	f76c81        	l32r	a8, 400d01b8 <_image_irom_vaddr+0x198> (3ff4807c <GPIO+0x407c>)
400d240a:	0020c0        	memw
400d240d:	0898      	l32i.n	a9, a8, 0
400d240f:	f718a1        	l32r	a10, 400d0070 <_image_irom_vaddr+0x50> (7fffffff <_rtc_bss_end+0x2fffffff>)
400d2412:	1099a0        	and	a9, a9, a10
400d2415:	0020c0        	memw
400d2418:	0899      	s32i.n	a9, a8, 0
400d241a:	0020c0        	memw
400d241d:	0898      	l32i.n	a9, a8, 0
400d241f:	f720a1        	l32r	a10, 400d00a0 <_image_irom_vaddr+0x80> (dfffffff <_rtc_bss_end+0x8fffffff>)
400d2422:	1099a0        	and	a9, a9, a10
400d2425:	0020c0        	memw
400d2428:	0899      	s32i.n	a9, a8, 0
400d242a:	1272a7        	bbci	a2, 26, 400d2440 <rtc_init+0x258>
400d242d:	0020c0        	memw
400d2430:	0828      	l32i.n	a2, a8, 0
400d2432:	f76f91        	l32r	a9, 400d01f0 <_image_irom_vaddr+0x1d0> (10000000 <CONFIG_SYS_CLOCK_HW_CYCLES_PER_SEC+0x1b1e400>)
400d2435:	202290        	or	a2, a2, a9
400d2438:	0020c0        	memw
400d243b:	0829      	s32i.n	a2, a8, 0
400d243d:	000486        	j	400d2453 <rtc_init+0x26b>
400d2440:	f75e81        	l32r	a8, 400d01b8 <_image_irom_vaddr+0x198> (3ff4807c <GPIO+0x407c>)
400d2443:	0020c0        	memw
400d2446:	0828      	l32i.n	a2, a8, 0
400d2448:	f72e91        	l32r	a9, 400d0100 <_image_irom_vaddr+0xe0> (efffffff <_rtc_bss_end+0x9fffffff>)
400d244b:	102290        	and	a2, a2, a9
400d244e:	0020c0        	memw
400d2451:	0829      	s32i.n	a2, a8, 0
400d2453:	f77c21        	l32r	a2, 400d0244 <_image_irom_vaddr+0x224> (3ff48084 <GPIO+0x4084>)
400d2456:	0020c0        	memw
400d2459:	0288      	l32i.n	a8, a2, 0
400d245b:	f96c      	movi.n	a9, -17
400d245d:	108890        	and	a8, a8, a9
400d2460:	0020c0        	memw
400d2463:	0289      	s32i.n	a8, a2, 0
400d2465:	0020c0        	memw
400d2468:	0288      	l32i.n	a8, a2, 0
400d246a:	f6f191        	l32r	a9, 400d0030 <_image_irom_vaddr+0x10> (ffefffff <_rtc_bss_end+0xafefffff>)
400d246d:	108890        	and	a8, a8, a9
400d2470:	0020c0        	memw
400d2473:	0289      	s32i.n	a8, a2, 0
400d2475:	0020c0        	memw
400d2478:	0288      	l32i.n	a8, a2, 0
400d247a:	f77391        	l32r	a9, 400d0248 <_image_irom_vaddr+0x228> (fffbffff <_rtc_bss_end+0xaffbffff>)
400d247d:	108890        	and	a8, a8, a9
400d2480:	0020c0        	memw
400d2483:	0289      	s32i.n	a8, a2, 0
400d2485:	0020c0        	memw
400d2488:	0288      	l32i.n	a8, a2, 0
400d248a:	f77091        	l32r	a9, 400d024c <_image_irom_vaddr+0x22c> (fffeaabf <_rtc_bss_end+0xaffeaabf>)
400d248d:	108890        	and	a8, a8, a9
400d2490:	0020c0        	memw
400d2493:	0289      	s32i.n	a8, a2, 0
400d2495:	f76e81        	l32r	a8, 400d0250 <_image_irom_vaddr+0x230> (3ff48080 <GPIO+0x4080>)
400d2498:	0020c0        	memw
400d249b:	0828      	l32i.n	a2, a8, 0
400d249d:	f76d91        	l32r	a9, 400d0254 <_image_irom_vaddr+0x234> (fffedfff <_rtc_bss_end+0xaffedfff>)
400d24a0:	102290        	and	a2, a2, a9
400d24a3:	0020c0        	memw
400d24a6:	0829      	s32i.n	a2, a8, 0
400d24a8:	0020c0        	memw
400d24ab:	0828      	l32i.n	a2, a8, 0
400d24ad:	f73b91        	l32r	a9, 400d019c <_image_irom_vaddr+0x17c> (fff7ffff <_rtc_bss_end+0xaff7ffff>)
400d24b0:	102290        	and	a2, a2, a9
400d24b3:	0020c0        	memw
400d24b6:	0829      	s32i.n	a2, a8, 0
400d24b8:	f76821        	l32r	a2, 400d0258 <_image_irom_vaddr+0x238> (3ff48088 <GPIO+0x4088>)
400d24bb:	0020c0        	memw
400d24be:	0298      	l32i.n	a9, a2, 0
400d24c0:	f6eca1        	l32r	a10, 400d0070 <_image_irom_vaddr+0x50> (7fffffff <_rtc_bss_end+0x2fffffff>)
400d24c3:	1099a0        	and	a9, a9, a10
400d24c6:	0020c0        	memw
400d24c9:	0299      	s32i.n	a9, a2, 0
400d24cb:	0020c0        	memw
400d24ce:	0298      	l32i.n	a9, a2, 0
400d24d0:	f6f4a1        	l32r	a10, 400d00a0 <_image_irom_vaddr+0x80> (dfffffff <_rtc_bss_end+0x8fffffff>)
400d24d3:	1099a0        	and	a9, a9, a10
400d24d6:	0020c0        	memw
400d24d9:	0299      	s32i.n	a9, a2, 0
400d24db:	0020c0        	memw
400d24de:	0298      	l32i.n	a9, a2, 0
400d24e0:	f75fa1        	l32r	a10, 400d025c <_image_irom_vaddr+0x23c> (f555ffff <_rtc_bss_end+0xa555ffff>)
400d24e3:	1099a0        	and	a9, a9, a10
400d24e6:	0020c0        	memw
400d24e9:	0299      	s32i.n	a9, a2, 0
400d24eb:	0020c0        	memw
400d24ee:	0898      	l32i.n	a9, a8, 0
400d24f0:	aa7c      	movi.n	a10, -6
400d24f2:	1099a0        	and	a9, a9, a10
400d24f5:	0020c0        	memw
400d24f8:	0899      	s32i.n	a9, a8, 0
400d24fa:	0020c0        	memw
400d24fd:	0898      	l32i.n	a9, a8, 0
400d24ff:	dfafa2        	movi	a10, -33
400d2502:	1099a0        	and	a9, a9, a10
400d2505:	0020c0        	memw
400d2508:	0899      	s32i.n	a9, a8, 0
400d250a:	0020c0        	memw
400d250d:	0288      	l32i.n	a8, a2, 0
400d250f:	f75491        	l32r	a9, 400d0260 <_image_irom_vaddr+0x240> (ffffbfff <_rtc_bss_end+0xafffbfff>)
400d2512:	108890        	and	a8, a8, a9
400d2515:	0020c0        	memw
400d2518:	0289      	s32i.n	a8, a2, 0
400d251a:	0020c0        	memw
400d251d:	002282        	l32i	a8, a2, 0
400d2520:	f75191        	l32r	a9, 400d0264 <_image_irom_vaddr+0x244> (ffffefff <_rtc_bss_end+0xafffefff>)
400d2523:	108890        	and	a8, a8, a9
400d2526:	0020c0        	memw
400d2529:	006282        	s32i	a8, a2, 0
400d252c:	f74b81        	l32r	a8, 400d0258 <_image_irom_vaddr+0x238> (3ff48088 <GPIO+0x4088>)
400d252f:	0020c0        	memw
400d2532:	0828      	l32i.n	a2, a8, 0
400d2534:	f72f91        	l32r	a9, 400d01f0 <_image_irom_vaddr+0x1d0> (10000000 <CONFIG_SYS_CLOCK_HW_CYCLES_PER_SEC+0x1b1e400>)
400d2537:	202290        	or	a2, a2, a9
400d253a:	0020c0        	memw
400d253d:	0829      	s32i.n	a2, a8, 0
400d253f:	f74181        	l32r	a8, 400d0244 <_image_irom_vaddr+0x224> (3ff48084 <GPIO+0x4084>)
400d2542:	0020c0        	memw
400d2545:	0828      	l32i.n	a2, a8, 0
400d2547:	f73e91        	l32r	a9, 400d0240 <_image_irom_vaddr+0x220> (20000 <_image_irom_start+0x670c>)
400d254a:	202290        	or	a2, a2, a9
400d254d:	0020c0        	memw
400d2550:	0829      	s32i.n	a2, a8, 0
400d2552:	f74521        	l32r	a2, 400d0268 <_image_irom_vaddr+0x248> (3ff4803c <GPIO+0x403c>)
400d2555:	080c      	movi.n	a8, 0
400d2557:	0020c0        	memw
400d255a:	0289      	s32i.n	a8, a2, 0
400d255c:	f74421        	l32r	a2, 400d026c <_image_irom_vaddr+0x24c> (3ff48048 <GPIO+0x4048>)
400d255f:	f87c      	movi.n	a8, -1
400d2561:	0020c0        	memw
400d2564:	0289      	s32i.n	a8, a2, 0
400d2566:	f01d      	retw.n

400d2568 <rtc_clk_cal_internal>:
400d2568:	004136        	entry	a1, 32
400d256b:	f70e41        	l32r	a4, 400d01a4 <_image_irom_vaddr+0x184> (3ff48070 <GPIO+0x4070>)
400d256e:	0020c0        	memw
400d2571:	0448      	l32i.n	a4, a4, 0
400d2573:	044840        	extui	a4, a4, 8, 1
400d2576:	fec2a2        	addi	a10, a2, -2
400d2579:	180c      	movi.n	a8, 1
400d257b:	050c      	movi.n	a5, 0
400d257d:	059d      	mov.n	a9, a5
400d257f:	8398a0        	moveqz	a9, a8, a10
400d2582:	938540        	movnez	a8, a5, a4
400d2585:	130897        	bnone	a8, a9, 400d259c <rtc_clk_cal_internal+0x34>
400d2588:	f70781        	l32r	a8, 400d01a4 <_image_irom_vaddr+0x184> (3ff48070 <GPIO+0x4070>)
400d258b:	0020c0        	memw
400d258e:	002852        	l32i	a5, a8, 0
400d2591:	00a192        	movi	a9, 0x100
400d2594:	205590        	or	a5, a5, a9
400d2597:	0020c0        	memw
400d259a:	0859      	s32i.n	a5, a8, 0
400d259c:	141266        	bnei	a2, 1, 400d25b4 <rtc_clk_cal_internal+0x4c>
400d259f:	f70181        	l32r	a8, 400d01a4 <_image_irom_vaddr+0x184> (3ff48070 <GPIO+0x4070>)
400d25a2:	0020c0        	memw
400d25a5:	002852        	l32i	a5, a8, 0
400d25a8:	00a292        	movi	a9, 0x200
400d25ab:	205590        	or	a5, a5, a9
400d25ae:	0020c0        	memw
400d25b1:	006852        	s32i	a5, a8, 0
400d25b4:	f73181        	l32r	a8, 400d0278 <_image_irom_vaddr+0x258> (3ff5f068 <UART1+0xf068>)
400d25b7:	0020c0        	memw
400d25ba:	0898      	l32i.n	a9, a8, 0
400d25bc:	f73051        	l32r	a5, 400d027c <_image_irom_vaddr+0x25c> (ffff9fff <_rtc_bss_end+0xafff9fff>)
400d25bf:	109950        	and	a9, a9, a5
400d25c2:	11a230        	slli	a10, a2, 13
400d25c5:	f72e51        	l32r	a5, 400d0280 <_image_irom_vaddr+0x260> (6000 <_image_irom_size+0x2b8>)
400d25c8:	10aa50        	and	a10, a10, a5
400d25cb:	2099a0        	or	a9, a9, a10
400d25ce:	0020c0        	memw
400d25d1:	0899      	s32i.n	a9, a8, 0
400d25d3:	0020c0        	memw
400d25d6:	0898      	l32i.n	a9, a8, 0
400d25d8:	f72351        	l32r	a5, 400d0264 <_image_irom_vaddr+0x244> (ffffefff <_rtc_bss_end+0xafffefff>)
400d25db:	109950        	and	a9, a9, a5
400d25de:	0020c0        	memw
400d25e1:	0899      	s32i.n	a9, a8, 0
400d25e3:	0020c0        	memw
400d25e6:	0898      	l32i.n	a9, a8, 0
400d25e8:	f72751        	l32r	a5, 400d0284 <_image_irom_vaddr+0x264> (8000ffff <_rtc_bss_end+0x3000ffff>)
400d25eb:	109950        	and	a9, a9, a5
400d25ee:	11b300        	slli	a11, a3, 16
400d25f1:	f72551        	l32r	a5, 400d0288 <_image_irom_vaddr+0x268> (7fff0000 <_rtc_bss_end+0x2fff0000>)
400d25f4:	10bb50        	and	a11, a11, a5
400d25f7:	2099b0        	or	a9, a9, a11
400d25fa:	0020c0        	memw
400d25fd:	0899      	s32i.n	a9, a8, 0
400d25ff:	f6e951        	l32r	a5, 400d01a4 <_image_irom_vaddr+0x184> (3ff48070 <GPIO+0x4070>)
400d2602:	0020c0        	memw
400d2605:	0588      	l32i.n	a8, a5, 0
400d2607:	158e80        	extui	a8, a8, 30, 2
400d260a:	272226        	beqi	a2, 2, 400d2635 <rtc_clk_cal_internal+0xcd>
400d260d:	150c      	movi.n	a5, 1
400d260f:	0a0c      	movi.n	a10, 0
400d2611:	0a9d      	mov.n	a9, a10
400d2613:	839520        	moveqz	a9, a5, a2
400d2616:	74c090        	extui	a12, a9, 0, 8
400d2619:	b80b      	addi.n	a11, a8, -1
400d261b:	935ab0        	movnez	a5, a10, a11
400d261e:	1a8597        	bany	a5, a9, 400d263c <rtc_clk_cal_internal+0xd4>
400d2621:	1f1226        	beqi	a2, 1, 400d2644 <rtc_clk_cal_internal+0xdc>
400d2624:	fec882        	addi	a8, a8, -2
400d2627:	150c      	movi.n	a5, 1
400d2629:	935a80        	movnez	a5, a10, a8
400d262c:	1c05c7        	bnone	a5, a12, 400d264c <rtc_clk_cal_internal+0xe4>
400d262f:	f710c1        	l32r	a12, 400d0270 <_image_irom_vaddr+0x250> (81b3 <_image_irom_size+0x246b>)
400d2632:	000646        	j	400d264f <rtc_clk_cal_internal+0xe7>
400d2635:	f6a2c1        	l32r	a12, 400d00c0 <_image_irom_vaddr+0xa0> (8000 <_image_irom_size+0x22b8>)
400d2638:	0004c6        	j	400d264f <rtc_clk_cal_internal+0xe7>
400d263b:	00          	.byte 00
400d263c:	f6a1c1        	l32r	a12, 400d00c0 <_image_irom_vaddr+0xa0> (8000 <_image_irom_size+0x22b8>)
400d263f:	000306        	j	400d264f <rtc_clk_cal_internal+0xe7>
400d2642:	00          	.byte 00
400d2643:	00          	.byte 00
400d2644:	f70bc1        	l32r	a12, 400d0270 <_image_irom_vaddr+0x250> (81b3 <_image_irom_size+0x246b>)
400d2647:	000106        	j	400d264f <rtc_clk_cal_internal+0xe7>
400d264a:	00          	.byte 00
400d264b:	00          	.byte 00
400d264c:	f70ac1        	l32r	a12, 400d0274 <_image_irom_vaddr+0x254> (249f0 <_image_irom_start+0xb0fc>)
400d264f:	f6b1a1        	l32r	a10, 400d0114 <_image_irom_vaddr+0xf4> (f4240 <_image_irom_start+0xda94c>)
400d2652:	a2b3a0        	muluh	a11, a3, a10
400d2655:	0d0c      	movi.n	a13, 0
400d2657:	82a3a0        	mull	a10, a3, a10
400d265a:	f6c481        	l32r	a8, 400d016c <_image_irom_vaddr+0x14c> (4000cff8 <__udivdi3>)
400d265d:	0008e0        	callx8	a8
400d2660:	0a3d      	mov.n	a3, a10
400d2662:	205aa0        	or	a5, a10, a10
400d2665:	ff7c25        	call8	400d1e28 <rtc_clk_xtal_freq_get>
400d2668:	0acc      	bnez.n	a10, 400d266c <rtc_clk_cal_internal+0x104>
400d266a:	8a2c      	movi.n	a10, 40
400d266c:	f70881        	l32r	a8, 400d028c <_image_irom_vaddr+0x26c> (1ffffff <CONFIG_FLASH_SIZE+0x1bfffff>)
400d266f:	c288a0        	quou	a8, a8, a10
400d2672:	1f3587        	bltu	a5, a8, 400d2695 <rtc_clk_cal_internal+0x12d>
400d2675:	f6b721        	l32r	a2, 400d0154 <_image_irom_vaddr+0x134> (3ffbfff8 <esp_log_default_level>)
400d2678:	0228      	l32i.n	a2, a2, 0
400d267a:	010216        	beqz	a2, 400d268e <rtc_clk_cal_internal+0x126>
400d267d:	b0cb25        	call8	40083330 <esp_log_early_timestamp>
400d2680:	f704c1        	l32r	a12, 400d0290 <_image_irom_vaddr+0x270> (3f403cbc <rtc_io_num_map+0x124>)
400d2683:	0abd      	mov.n	a11, a10
400d2685:	f703a1        	l32r	a10, 400d0294 <_image_irom_vaddr+0x274> (3f403cc8 <rtc_io_num_map+0x130>)
400d2688:	f6b681        	l32r	a8, 400d0160 <_image_irom_vaddr+0x140> (40007d54 <esp_rom_printf>)
400d268b:	0008e0        	callx8	a8
400d268e:	020c      	movi.n	a2, 0
400d2690:	002286        	j	400d271e <rtc_clk_cal_internal+0x1b6>
400d2693:	00          	.byte 00
400d2694:	00          	.byte 00
400d2695:	f6f851        	l32r	a5, 400d0278 <_image_irom_vaddr+0x258> (3ff5f068 <UART1+0xf068>)
400d2698:	0020c0        	memw
400d269b:	002582        	l32i	a8, a5, 0
400d269e:	f67491        	l32r	a9, 400d0070 <_image_irom_vaddr+0x50> (7fffffff <_rtc_bss_end+0x2fffffff>)
400d26a1:	108890        	and	a8, a8, a9
400d26a4:	0020c0        	memw
400d26a7:	006582        	s32i	a8, a5, 0
400d26aa:	0020c0        	memw
400d26ad:	002582        	l32i	a8, a5, 0
400d26b0:	f66f91        	l32r	a9, 400d006c <_image_irom_vaddr+0x4c> (80000000 <_rtc_bss_end+0x30000000>)
400d26b3:	208890        	or	a8, a8, a9
400d26b6:	0020c0        	memw
400d26b9:	0589      	s32i.n	a8, a5, 0
400d26bb:	03ad      	mov.n	a10, a3
400d26bd:	b05125        	call8	40082bd0 <z_impl_k_busy_wait>
400d26c0:	000306        	j	400d26d0 <rtc_clk_cal_internal+0x168>
400d26c3:	00          	.byte 00
400d26c4:	00          	.byte 00
400d26c5:	00          	.byte 00
400d26c6:	330b      	addi.n	a3, a3, -1
400d26c8:	1a0c      	movi.n	a10, 1
400d26ca:	f6b981        	l32r	a8, 400d01b0 <_image_irom_vaddr+0x190> (40008534 <esp_rom_delay_us>)
400d26cd:	0008e0        	callx8	a8
400d26d0:	f6ea81        	l32r	a8, 400d0278 <_image_irom_vaddr+0x258> (3ff5f068 <UART1+0xf068>)
400d26d3:	0020c0        	memw
400d26d6:	0888      	l32i.n	a8, a8, 0
400d26d8:	02e8f7        	bbsi	a8, 15, 400d26de <rtc_clk_cal_internal+0x176>
400d26db:	e713e6        	bgei	a3, 1, 400d26c6 <rtc_clk_cal_internal+0x15e>
400d26de:	f6b181        	l32r	a8, 400d01a4 <_image_irom_vaddr+0x184> (3ff48070 <GPIO+0x4070>)
400d26e1:	0020c0        	memw
400d26e4:	0858      	l32i.n	a5, a8, 0
400d26e6:	ffae92        	movi	a9, 0xfffffeff
400d26e9:	105590        	and	a5, a5, a9
400d26ec:	114480        	slli	a4, a4, 8
400d26ef:	204540        	or	a4, a5, a4
400d26f2:	0020c0        	memw
400d26f5:	0849      	s32i.n	a4, a8, 0
400d26f7:	111266        	bnei	a2, 1, 400d270c <rtc_clk_cal_internal+0x1a4>
400d26fa:	084d      	mov.n	a4, a8
400d26fc:	0020c0        	memw
400d26ff:	0828      	l32i.n	a2, a8, 0
400d2701:	ffad52        	movi	a5, 0xfffffdff
400d2704:	102250        	and	a2, a2, a5
400d2707:	0020c0        	memw
400d270a:	0829      	s32i.n	a2, a8, 0
400d270c:	c38c      	beqz.n	a3, 400d271c <rtc_clk_cal_internal+0x1b4>
400d270e:	f6e221        	l32r	a2, 400d0298 <_image_irom_vaddr+0x278> (3ff5f06c <UART1+0xf06c>)
400d2711:	0020c0        	memw
400d2714:	0228      	l32i.n	a2, a2, 0
400d2716:	412720        	srli	a2, a2, 7
400d2719:	000046        	j	400d271e <rtc_clk_cal_internal+0x1b6>
400d271c:	020c      	movi.n	a2, 0
400d271e:	f01d      	retw.n

400d2720 <rtc_clk_cal_ratio>:
400d2720:	004136        	entry	a1, 32
400d2723:	03bd      	mov.n	a11, a3
400d2725:	02ad      	mov.n	a10, a2
400d2727:	ffe425        	call8	400d2568 <rtc_clk_cal_internal>
400d272a:	0abd      	mov.n	a11, a10
400d272c:	03cd      	mov.n	a12, a3
400d272e:	0d0c      	movi.n	a13, 0
400d2730:	01aad0        	slli	a10, a10, 19
400d2733:	41bdb0        	srli	a11, a11, 13
400d2736:	f68d81        	l32r	a8, 400d016c <_image_irom_vaddr+0x14c> (4000cff8 <__udivdi3>)
400d2739:	0008e0        	callx8	a8
400d273c:	0a2d      	mov.n	a2, a10
400d273e:	f01d      	retw.n

400d2740 <rtc_clk_cal>:
400d2740:	004136        	entry	a1, 32
400d2743:	ff6e65        	call8	400d1e28 <rtc_clk_xtal_freq_get>
400d2746:	204aa0        	or	a4, a10, a10
400d2749:	20b330        	or	a11, a3, a3
400d274c:	02ad      	mov.n	a10, a2
400d274e:	ffe1a5        	call8	400d2568 <rtc_clk_cal_internal>
400d2751:	82c430        	mull	a12, a4, a3
400d2754:	a2d430        	muluh	a13, a4, a3
400d2757:	419da0        	srli	a9, a10, 13
400d275a:	01aad0        	slli	a10, a10, 19
400d275d:	013d10        	slli	a3, a13, 31
400d2760:	4181c0        	srli	a8, a12, 1
400d2763:	208380        	or	a8, a3, a8
400d2766:	4131d0        	srli	a3, a13, 1
400d2769:	8a8a      	add.n	a8, a10, a8
400d276b:	1b0c      	movi.n	a11, 1
400d276d:	0138a7        	bltu	a8, a10, 400d2772 <rtc_clk_cal+0x32>
400d2770:	0b0c      	movi.n	a11, 0
400d2772:	993a      	add.n	a9, a9, a3
400d2774:	bb9a      	add.n	a11, a11, a9
400d2776:	a80b      	addi.n	a10, a8, -1
400d2778:	01a032        	movi	a3, 1
400d277b:	013a87        	bltu	a10, a8, 400d2780 <rtc_clk_cal+0x40>
400d277e:	030c      	movi.n	a3, 0
400d2780:	bb0b      	addi.n	a11, a11, -1
400d2782:	b3ba      	add.n	a11, a3, a11
400d2784:	f67a81        	l32r	a8, 400d016c <_image_irom_vaddr+0x14c> (4000cff8 <__udivdi3>)
400d2787:	0008e0        	callx8	a8
400d278a:	0a2d      	mov.n	a2, a10
400d278c:	f01d      	retw.n
	...

400d2790 <rtc_clk_wait_for_slow_cycle>:
400d2790:	004136        	entry	a1, 32
400d2793:	f6b981        	l32r	a8, 400d0278 <_image_irom_vaddr+0x258> (3ff5f068 <UART1+0xf068>)
400d2796:	0020c0        	memw
400d2799:	0898      	l32i.n	a9, a8, 0
400d279b:	f6c0a1        	l32r	a10, 400d029c <_image_irom_vaddr+0x27c> (7fffefff <_rtc_bss_end+0x2fffefff>)
400d279e:	1099a0        	and	a9, a9, a10
400d27a1:	0020c0        	memw
400d27a4:	0899      	s32i.n	a9, a8, 0
400d27a6:	0020c0        	memw
400d27a9:	0898      	l32i.n	a9, a8, 0
400d27ab:	f65ea1        	l32r	a10, 400d0124 <_image_irom_vaddr+0x104> (ffff7fff <_rtc_bss_end+0xafff7fff>)
400d27ae:	1099a0        	and	a9, a9, a10
400d27b1:	0020c0        	memw
400d27b4:	0899      	s32i.n	a9, a8, 0
400d27b6:	0020c0        	memw
400d27b9:	0898      	l32i.n	a9, a8, 0
400d27bb:	f6b0a1        	l32r	a10, 400d027c <_image_irom_vaddr+0x25c> (ffff9fff <_rtc_bss_end+0xafff9fff>)
400d27be:	1099a0        	and	a9, a9, a10
400d27c1:	0020c0        	memw
400d27c4:	0899      	s32i.n	a9, a8, 0
400d27c6:	0020c0        	memw
400d27c9:	0898      	l32i.n	a9, a8, 0
400d27cb:	f6aea1        	l32r	a10, 400d0284 <_image_irom_vaddr+0x264> (8000ffff <_rtc_bss_end+0x3000ffff>)
400d27ce:	1099a0        	and	a9, a9, a10
400d27d1:	0020c0        	memw
400d27d4:	0899      	s32i.n	a9, a8, 0
400d27d6:	0020c0        	memw
400d27d9:	0898      	l32i.n	a9, a8, 0
400d27db:	f624a1        	l32r	a10, 400d006c <_image_irom_vaddr+0x4c> (80000000 <_rtc_bss_end+0x30000000>)
400d27de:	2099a0        	or	a9, a9, a10
400d27e1:	0020c0        	memw
400d27e4:	006892        	s32i	a9, a8, 0
400d27e7:	01a0a2        	movi	a10, 1
400d27ea:	f67181        	l32r	a8, 400d01b0 <_image_irom_vaddr+0x190> (40008534 <esp_rom_delay_us>)
400d27ed:	0008e0        	callx8	a8
400d27f0:	000206        	j	400d27fc <rtc_clk_wait_for_slow_cycle+0x6c>
400d27f3:	00          	.byte 00
400d27f4:	1a0c      	movi.n	a10, 1
400d27f6:	f66e81        	l32r	a8, 400d01b0 <_image_irom_vaddr+0x190> (40008534 <esp_rom_delay_us>)
400d27f9:	0008e0        	callx8	a8
400d27fc:	f69f81        	l32r	a8, 400d0278 <_image_irom_vaddr+0x258> (3ff5f068 <UART1+0xf068>)
400d27ff:	0020c0        	memw
400d2802:	0888      	l32i.n	a8, a8, 0
400d2804:	ec68f7        	bbci	a8, 15, 400d27f4 <rtc_clk_wait_for_slow_cycle+0x64>
400d2807:	f01d      	retw.n
400d2809:	000000        	ill

400d280c <rtc_clk_xtal_freq_estimate>:
400d280c:	004136        	entry	a1, 32
400d280f:	ff3a65        	call8	400d1bb4 <rtc_clk_8m_enabled>
400d2812:	ff3be5        	call8	400d1bd0 <rtc_clk_8md256_enabled>
400d2815:	009a56        	bnez	a10, 400d2822 <rtc_clk_xtal_freq_estimate+0x16>
400d2818:	1b0c      	movi.n	a11, 1
400d281a:	0bad      	mov.n	a10, a11
400d281c:	201110        	or	a1, a1, a1
400d281f:	ff2fa5        	call8	400d1b18 <rtc_clk_8m_enable>
400d2822:	0aa0b2        	movi	a11, 10
400d2825:	01a0a2        	movi	a10, 1
400d2828:	ffef65        	call8	400d2720 <rtc_clk_cal_ratio>
400d282b:	f67221        	l32r	a2, 400d01f4 <_image_irom_vaddr+0x1d4> (81b320 <CONFIG_FLASH_SIZE+0x41b320>)
400d282e:	a2ba20        	muluh	a11, a10, a2
400d2831:	f69bc1        	l32r	a12, 400d02a0 <_image_irom_vaddr+0x280> (f424000 <CONFIG_SYS_CLOCK_HW_CYCLES_PER_SEC+0xf42400>)
400d2834:	00a0d2        	movi	a13, 0
400d2837:	82aa20        	mull	a10, a10, a2
400d283a:	f64c81        	l32r	a8, 400d016c <_image_irom_vaddr+0x14c> (4000cff8 <__udivdi3>)
400d283d:	0008e0        	callx8	a8
400d2840:	112b30        	slli	a2, a11, 13
400d2843:	c5a3a0        	extui	a10, a10, 19, 13
400d2846:	2022a0        	or	a2, a2, a10
400d2849:	382c      	movi.n	a8, 35
400d284b:	1a3827        	bltu	a8, a2, 400d2869 <rtc_clk_xtal_freq_estimate+0x5d>
400d284e:	282c      	movi.n	a8, 34
400d2850:	48b287        	bgeu	a2, a8, 400d289c <rtc_clk_xtal_freq_estimate+0x90>
400d2853:	f81c      	movi.n	a8, 31
400d2855:	073827        	bltu	a8, a2, 400d2860 <rtc_clk_xtal_freq_estimate+0x54>
400d2858:	581c      	movi.n	a8, 21
400d285a:	623287        	bltu	a2, a8, 400d28c0 <rtc_clk_xtal_freq_estimate+0xb4>
400d285d:	002086        	j	400d28e3 <rtc_clk_xtal_freq_estimate+0xd7>
400d2860:	e0c282        	addi	a8, a2, -32
400d2863:	1128b6        	bltui	a8, 2, 400d2878 <rtc_clk_xtal_freq_estimate+0x6c>
400d2866:	001586        	j	400d28c0 <rtc_clk_xtal_freq_estimate+0xb4>
400d2869:	dcc282        	addi	a8, a2, -36
400d286c:	990c      	movi.n	a9, 9
400d286e:	4e3987        	bltu	a9, a8, 400d28c0 <rtc_clk_xtal_freq_estimate+0xb4>
400d2871:	822c      	movi.n	a2, 40
400d2873:	001f46        	j	400d28f4 <rtc_clk_xtal_freq_estimate+0xe8>
400d2876:	00          	.byte 00
400d2877:	00          	.byte 00
400d2878:	f63781        	l32r	a8, 400d0154 <_image_irom_vaddr+0x134> (3ffbfff8 <esp_log_default_level>)
400d287b:	002882        	l32i	a8, a8, 0
400d287e:	6628b6        	bltui	a8, 2, 400d28e8 <rtc_clk_xtal_freq_estimate+0xdc>
400d2881:	b0aae5        	call8	40083330 <esp_log_early_timestamp>
400d2884:	20d220        	or	a13, a2, a2
400d2887:	f687c1        	l32r	a12, 400d02a4 <_image_irom_vaddr+0x284> (3f403d08 <rtc_io_num_map+0x170>)
400d288a:	20baa0        	or	a11, a10, a10
400d288d:	f686a1        	l32r	a10, 400d02a8 <_image_irom_vaddr+0x288> (3f403d18 <rtc_io_num_map+0x180>)
400d2890:	f63481        	l32r	a8, 400d0160 <_image_irom_vaddr+0x140> (40007d54 <esp_rom_printf>)
400d2893:	0008e0        	callx8	a8
400d2896:	a21c      	movi.n	a2, 26
400d2898:	001606        	j	400d28f4 <rtc_clk_xtal_freq_estimate+0xe8>
400d289b:	00          	.byte 00
400d289c:	f62e81        	l32r	a8, 400d0154 <_image_irom_vaddr+0x134> (3ffbfff8 <esp_log_default_level>)
400d289f:	002882        	l32i	a8, a8, 0
400d28a2:	4728b6        	bltui	a8, 2, 400d28ed <rtc_clk_xtal_freq_estimate+0xe1>
400d28a5:	b0a8a5        	call8	40083330 <esp_log_early_timestamp>
400d28a8:	20d220        	or	a13, a2, a2
400d28ab:	f67ec1        	l32r	a12, 400d02a4 <_image_irom_vaddr+0x284> (3f403d08 <rtc_io_num_map+0x170>)
400d28ae:	20baa0        	or	a11, a10, a10
400d28b1:	f67ea1        	l32r	a10, 400d02ac <_image_irom_vaddr+0x28c> (3f403d60 <rtc_io_num_map+0x1c8>)
400d28b4:	f62b81        	l32r	a8, 400d0160 <_image_irom_vaddr+0x140> (40007d54 <esp_rom_printf>)
400d28b7:	0008e0        	callx8	a8
400d28ba:	822c      	movi.n	a2, 40
400d28bc:	000d06        	j	400d28f4 <rtc_clk_xtal_freq_estimate+0xe8>
400d28bf:	00          	.byte 00
400d28c0:	f62581        	l32r	a8, 400d0154 <_image_irom_vaddr+0x134> (3ffbfff8 <esp_log_default_level>)
400d28c3:	002882        	l32i	a8, a8, 0
400d28c6:	2828b6        	bltui	a8, 2, 400d28f2 <rtc_clk_xtal_freq_estimate+0xe6>
400d28c9:	b0a665        	call8	40083330 <esp_log_early_timestamp>
400d28cc:	20d220        	or	a13, a2, a2
400d28cf:	f675c1        	l32r	a12, 400d02a4 <_image_irom_vaddr+0x284> (3f403d08 <rtc_io_num_map+0x170>)
400d28d2:	20baa0        	or	a11, a10, a10
400d28d5:	f676a1        	l32r	a10, 400d02b0 <_image_irom_vaddr+0x290> (3f403da8 <rtc_io_num_map+0x210>)
400d28d8:	f62281        	l32r	a8, 400d0160 <_image_irom_vaddr+0x140> (40007d54 <esp_rom_printf>)
400d28db:	0008e0        	callx8	a8
400d28de:	020c      	movi.n	a2, 0
400d28e0:	000406        	j	400d28f4 <rtc_clk_xtal_freq_estimate+0xe8>
400d28e3:	a21c      	movi.n	a2, 26
400d28e5:	0002c6        	j	400d28f4 <rtc_clk_xtal_freq_estimate+0xe8>
400d28e8:	a21c      	movi.n	a2, 26
400d28ea:	000186        	j	400d28f4 <rtc_clk_xtal_freq_estimate+0xe8>
400d28ed:	822c      	movi.n	a2, 40
400d28ef:	000046        	j	400d28f4 <rtc_clk_xtal_freq_estimate+0xe8>
400d28f2:	020c      	movi.n	a2, 0
400d28f4:	f01d      	retw.n
	...

400d28f8 <rtc_clk_init>:
400d28f8:	00a136        	entry	a1, 80
400d28fb:	8129      	s32i.n	a2, a1, 32
400d28fd:	9139      	s32i.n	a3, a1, 36
400d28ff:	f62921        	l32r	a2, 400d01a4 <_image_irom_vaddr+0x184> (3ff48070 <GPIO+0x4070>)
400d2902:	0020c0        	memw
400d2905:	0228      	l32i.n	a2, a2, 0
400d2907:	152b20        	extui	a2, a2, 27, 2
400d290a:	061266        	bnei	a2, 1, 400d2914 <rtc_clk_init+0x1c>
400d290d:	1b0c      	movi.n	a11, 1
400d290f:	8a2c      	movi.n	a10, 40
400d2911:	ff6b65        	call8	400d1fc8 <rtc_clk_cpu_freq_to_xtal>
400d2914:	f62981        	l32r	a8, 400d01b8 <_image_irom_vaddr+0x198> (3ff4807c <GPIO+0x407c>)
400d2917:	0020c0        	memw
400d291a:	002822        	l32i	a2, a8, 0
400d291d:	f66531        	l32r	a3, 400d02b4 <_image_irom_vaddr+0x294> (ffc03fff <_rtc_bss_end+0xafc03fff>)
400d2920:	102230        	and	a2, a2, a3
400d2923:	230132        	l8ui	a3, a1, 35
400d2926:	113320        	slli	a3, a3, 14
400d2929:	202230        	or	a2, a2, a3
400d292c:	0020c0        	memw
400d292f:	006822        	s32i	a2, a8, 0
400d2932:	f61c91        	l32r	a9, 400d01a4 <_image_irom_vaddr+0x184> (3ff48070 <GPIO+0x4070>)
400d2935:	0020c0        	memw
400d2938:	002922        	l32i	a2, a9, 0
400d293b:	f65f31        	l32r	a3, 400d02b8 <_image_irom_vaddr+0x298> (fe01ffff <_rtc_bss_end+0xae01ffff>)
400d293e:	102230        	and	a2, a2, a3
400d2941:	240132        	l8ui	a3, a1, 36
400d2944:	0133f0        	slli	a3, a3, 17
400d2947:	202230        	or	a2, a2, a3
400d294a:	0020c0        	memw
400d294d:	0929      	s32i.n	a2, a9, 0
400d294f:	0020c0        	memw
400d2952:	0928      	l32i.n	a2, a9, 0
400d2954:	f65a31        	l32r	a3, 400d02bc <_image_irom_vaddr+0x29c> (ffff8fff <_rtc_bss_end+0xafff8fff>)
400d2957:	102230        	and	a2, a2, a3
400d295a:	8188      	l32i.n	a8, a1, 32
400d295c:	258580        	extui	a8, a8, 21, 3
400d295f:	118840        	slli	a8, a8, 12
400d2962:	202280        	or	a2, a2, a8
400d2965:	0020c0        	memw
400d2968:	0929      	s32i.n	a2, a9, 0
400d296a:	f65521        	l32r	a2, 400d02c0 <_image_irom_vaddr+0x2a0> (6000e044 <_rtc_bss_end+0x1000e044>)
400d296d:	0020c0        	memw
400d2970:	0238      	l32i.n	a3, a2, 0
400d2972:	f65441        	l32r	a4, 400d02c4 <_image_irom_vaddr+0x2a4> (3ff00 <_image_irom_start+0x2660c>)
400d2975:	203340        	or	a3, a3, a4
400d2978:	0020c0        	memw
400d297b:	0239      	s32i.n	a3, a2, 0
400d297d:	0020c0        	memw
400d2980:	0238      	l32i.n	a3, a2, 0
400d2982:	f65141        	l32r	a4, 400d02c8 <_image_irom_vaddr+0x2a8> (fffdbfff <_rtc_bss_end+0xaffdbfff>)
400d2985:	103340        	and	a3, a3, a4
400d2988:	0020c0        	memw
400d298b:	0239      	s32i.n	a3, a2, 0
400d298d:	200122        	l8ui	a2, a1, 32
400d2990:	048256        	bnez	a2, 400d29dc <rtc_clk_init+0xe4>
400d2993:	f60c21        	l32r	a2, 400d01c4 <_image_irom_vaddr+0x1a4> (3ff480b0 <GPIO+0x40b0>)
400d2996:	0020c0        	memw
400d2999:	0228      	l32i.n	a2, a2, 0
400d299b:	f44020        	extui	a4, a2, 0, 16
400d299e:	f53020        	extui	a3, a2, 16, 16
400d29a1:	0e9437        	bne	a4, a3, 400d29b3 <rtc_clk_init+0xbb>
400d29a4:	220b      	addi.n	a2, a2, -1
400d29a6:	d37c      	movi.n	a3, -3
400d29a8:	073327        	bltu	a3, a2, 400d29b3 <rtc_clk_init+0xbb>
400d29ab:	ff47e5        	call8	400d1e28 <rtc_clk_xtal_freq_get>
400d29ae:	0a2d      	mov.n	a2, a10
400d29b0:	001e86        	j	400d2a2e <rtc_clk_init+0x136>
400d29b3:	ffe5a5        	call8	400d280c <rtc_clk_xtal_freq_estimate>
400d29b6:	202aa0        	or	a2, a10, a10
400d29b9:	071a56        	bnez	a10, 400d2a2e <rtc_clk_init+0x136>
400d29bc:	f5e621        	l32r	a2, 400d0154 <_image_irom_vaddr+0x134> (3ffbfff8 <esp_log_default_level>)
400d29bf:	002222        	l32i	a2, a2, 0
400d29c2:	6622b6        	bltui	a2, 2, 400d2a2c <rtc_clk_init+0x134>
400d29c5:	b096a5        	call8	40083330 <esp_log_early_timestamp>
400d29c8:	f637c1        	l32r	a12, 400d02a4 <_image_irom_vaddr+0x284> (3f403d08 <rtc_io_num_map+0x170>)
400d29cb:	0abd      	mov.n	a11, a10
400d29cd:	f63fa1        	l32r	a10, 400d02cc <_image_irom_vaddr+0x2ac> (3f403dd4 <rtc_io_num_map+0x23c>)
400d29d0:	f5e481        	l32r	a8, 400d0160 <_image_irom_vaddr+0x140> (40007d54 <esp_rom_printf>)
400d29d3:	0008e0        	callx8	a8
400d29d6:	a21c      	movi.n	a2, 26
400d29d8:	001486        	j	400d2a2e <rtc_clk_init+0x136>
400d29db:	00          	.byte 00
400d29dc:	f5fa31        	l32r	a3, 400d01c4 <_image_irom_vaddr+0x1a4> (3ff480b0 <GPIO+0x40b0>)
400d29df:	0020c0        	memw
400d29e2:	0338      	l32i.n	a3, a3, 0
400d29e4:	f48030        	extui	a8, a3, 0, 16
400d29e7:	f54030        	extui	a4, a3, 16, 16
400d29ea:	0b9847        	bne	a8, a4, 400d29f9 <rtc_clk_init+0x101>
400d29ed:	330b      	addi.n	a3, a3, -1
400d29ef:	d47c      	movi.n	a4, -3
400d29f1:	09b437        	bgeu	a4, a3, 400d29fe <rtc_clk_init+0x106>
400d29f4:	030c      	movi.n	a3, 0
400d29f6:	000186        	j	400d2a00 <rtc_clk_init+0x108>
400d29f9:	030c      	movi.n	a3, 0
400d29fb:	000046        	j	400d2a00 <rtc_clk_init+0x108>
400d29fe:	130c      	movi.n	a3, 1
400d2a00:	a3ec      	bnez.n	a3, 400d2a2e <rtc_clk_init+0x136>
400d2a02:	ffe0a5        	call8	400d280c <rtc_clk_xtal_freq_estimate>
400d2a05:	0a3d      	mov.n	a3, a10
400d2a07:	2312a7        	beq	a2, a10, 400d2a2e <rtc_clk_init+0x136>
400d2a0a:	f5d241        	l32r	a4, 400d0154 <_image_irom_vaddr+0x134> (3ffbfff8 <esp_log_default_level>)
400d2a0d:	0448      	l32i.n	a4, a4, 0
400d2a0f:	1b24b6        	bltui	a4, 2, 400d2a2e <rtc_clk_init+0x136>
400d2a12:	b091e5        	call8	40083330 <esp_log_early_timestamp>
400d2a15:	03ed      	mov.n	a14, a3
400d2a17:	02dd      	mov.n	a13, a2
400d2a19:	f622c1        	l32r	a12, 400d02a4 <_image_irom_vaddr+0x284> (3f403d08 <rtc_io_num_map+0x170>)
400d2a1c:	20baa0        	or	a11, a10, a10
400d2a1f:	f62ca1        	l32r	a10, 400d02d0 <_image_irom_vaddr+0x2b0> (3f403e10 <rtc_io_num_map+0x278>)
400d2a22:	f5cf81        	l32r	a8, 400d0160 <_image_irom_vaddr+0x140> (40007d54 <esp_rom_printf>)
400d2a25:	0008e0        	callx8	a8
400d2a28:	000086        	j	400d2a2e <rtc_clk_init+0x136>
400d2a2b:	00          	.byte 00
400d2a2c:	a21c      	movi.n	a2, 26
400d2a2e:	0a0c      	movi.n	a10, 0
400d2a30:	f5ce81        	l32r	a8, 400d0168 <_image_irom_vaddr+0x148> (40009278 <esp_rom_uart_tx_wait_idle>)
400d2a33:	0008e0        	callx8	a8
400d2a36:	02ad      	mov.n	a10, a2
400d2a38:	ff5465        	call8	400d1f80 <rtc_clk_xtal_freq_update>
400d2a3b:	f5b6a1        	l32r	a10, 400d0114 <_image_irom_vaddr+0xf4> (f4240 <_image_irom_start+0xda94c>)
400d2a3e:	82a2a0        	mull	a10, a2, a10
400d2a41:	ff56a5        	call8	400d1fac <rtc_clk_apb_freq_update>
400d2a44:	01ad      	mov.n	a10, a1
400d2a46:	ff47e5        	call8	400d1ec4 <rtc_clk_cpu_freq_get_config>
400d2a49:	3148      	l32i.n	a4, a1, 12
400d2a4b:	10c1b2        	addi	a11, a1, 16
400d2a4e:	81a8      	l32i.n	a10, a1, 32
400d2a50:	94a8a0        	extui	a10, a10, 8, 10
400d2a53:	ff40e5        	call8	400d1e60 <rtc_clk_cpu_freq_mhz_to_config>
400d2a56:	9adc      	bnez.n	a10, 400d2a73 <rtc_clk_init+0x17b>
400d2a58:	f5bf31        	l32r	a3, 400d0154 <_image_irom_vaddr+0x134> (3ffbfff8 <esp_log_default_level>)
400d2a5b:	0338      	l32i.n	a3, a3, 0
400d2a5d:	f38c      	beqz.n	a3, 400d2a70 <rtc_clk_init+0x178>
400d2a5f:	b08d25        	call8	40083330 <esp_log_early_timestamp>
400d2a62:	f610c1        	l32r	a12, 400d02a4 <_image_irom_vaddr+0x284> (3f403d08 <rtc_io_num_map+0x170>)
400d2a65:	0abd      	mov.n	a11, a10
400d2a67:	f61ba1        	l32r	a10, 400d02d4 <_image_irom_vaddr+0x2b4> (3f403e68 <rtc_io_num_map+0x2d0>)
400d2a6a:	f5bd81        	l32r	a8, 400d0160 <_image_irom_vaddr+0x140> (40007d54 <esp_rom_printf>)
400d2a6d:	0008e0        	callx8	a8
400d2a70:	006325        	call8	400d30a4 <abort>
400d2a73:	10c1a2        	addi	a10, a1, 16
400d2a76:	ff6ea5        	call8	400d2160 <rtc_clk_cpu_freq_set_config>
400d2a79:	220b      	addi.n	a2, a2, -1
400d2a7b:	f5da31        	l32r	a3, 400d01e4 <_image_irom_vaddr+0x1c4> (3ff66004 <SPI3+0x1004>)
400d2a7e:	0020c0        	memw
400d2a81:	0329      	s32i.n	a2, a3, 0
400d2a83:	f61521        	l32r	a2, 400d02d8 <_image_irom_vaddr+0x2b8> (3ff66008 <SPI3+0x1008>)
400d2a86:	f34c      	movi.n	a3, 79
400d2a88:	0020c0        	memw
400d2a8b:	0239      	s32i.n	a3, a2, 0
400d2a8d:	03eaa0        	rsr.ccount	a10
400d2a90:	8138      	l32i.n	a3, a1, 32
400d2a92:	942830        	extui	a2, a3, 8, 10
400d2a95:	a2ba20        	muluh	a11, a10, a2
400d2a98:	04cd      	mov.n	a12, a4
400d2a9a:	0d0c      	movi.n	a13, 0
400d2a9c:	82aa20        	mull	a10, a10, a2
400d2a9f:	f5b381        	l32r	a8, 400d016c <_image_irom_vaddr+0x14c> (4000cff8 <__udivdi3>)
400d2aa2:	0008e0        	callx8	a8
400d2aa5:	13eaa0        	wsr.ccount	a10
400d2aa8:	f60d21        	l32r	a2, 400d02dc <_image_irom_vaddr+0x2bc> (180000 <_image_irom_start+0x16670c>)
400d2aab:	102320        	and	a2, a3, a2
400d2aae:	f5b681        	l32r	a8, 400d0188 <_image_irom_vaddr+0x168> (80000 <_image_irom_start+0x6670c>)
400d2ab1:	049287        	bne	a2, a8, 400d2ab9 <rtc_clk_init+0x1c1>
400d2ab4:	1a0c      	movi.n	a10, 1
400d2ab6:	ff0125        	call8	400d1ac8 <rtc_clk_32k_enable>
400d2ab9:	0f7327        	bbci	a3, 18, 400d2acc <rtc_clk_init+0x1d4>
400d2abc:	f58e31        	l32r	a3, 400d00f4 <_image_irom_vaddr+0xd4> (fff00000 <_rtc_bss_end+0xaff00000>)
400d2abf:	802230        	add	a2, a2, a3
400d2ac2:	1a0c      	movi.n	a10, 1
400d2ac4:	0b0c      	movi.n	a11, 0
400d2ac6:	83ba20        	moveqz	a11, a10, a2
400d2ac9:	ff04e5        	call8	400d1b18 <rtc_clk_8m_enable>
400d2acc:	81a8      	l32i.n	a10, a1, 32
400d2ace:	05a2a0        	extui	a10, a10, 18, 1
400d2ad1:	ff1725        	call8	400d1c44 <rtc_clk_fast_freq_set>
400d2ad4:	81a8      	l32i.n	a10, a1, 32
400d2ad6:	15a3a0        	extui	a10, a10, 19, 2
400d2ad9:	ff1125        	call8	400d1bec <rtc_clk_slow_freq_set>
400d2adc:	f01d      	retw.n
	...

400d2ae0 <esp_timer_early_init>:
400d2ae0:	004136        	entry	a1, 32
400d2ae3:	0000a5        	call8	400d2aec <esp_timer_impl_early_init>
400d2ae6:	020c      	movi.n	a2, 0
400d2ae8:	f01d      	retw.n
	...

400d2aec <esp_timer_impl_early_init>:
400d2aec:	004136        	entry	a1, 32
400d2aef:	8a0c      	movi.n	a10, 8
400d2af1:	004265        	call8	400d2f18 <periph_module_enable>
400d2af4:	f5fb81        	l32r	a8, 400d02e0 <_image_irom_vaddr+0x2c0> (3ff5f070 <UART1+0xf070>)
400d2af7:	020c      	movi.n	a2, 0
400d2af9:	0020c0        	memw
400d2afc:	0829      	s32i.n	a2, a8, 0
400d2afe:	f5f991        	l32r	a9, 400d02e4 <_image_irom_vaddr+0x2c4> (3ff5f08c <UART1+0xf08c>)
400d2b01:	0020c0        	memw
400d2b04:	0929      	s32i.n	a2, a9, 0
400d2b06:	f5f891        	l32r	a9, 400d02e8 <_image_irom_vaddr+0x2c8> (3ff5f090 <UART1+0xf090>)
400d2b09:	0020c0        	memw
400d2b0c:	0929      	s32i.n	a2, a9, 0
400d2b0e:	f97c      	movi.n	a9, -1
400d2b10:	f5f7a1        	l32r	a10, 400d02ec <_image_irom_vaddr+0x2cc> (3ff5f084 <UART1+0xf084>)
400d2b13:	0020c0        	memw
400d2b16:	0a99      	s32i.n	a9, a10, 0
400d2b18:	f5f6a1        	l32r	a10, 400d02f0 <_image_irom_vaddr+0x2d0> (3ff5f088 <UART1+0xf088>)
400d2b1b:	0020c0        	memw
400d2b1e:	0a99      	s32i.n	a9, a10, 0
400d2b20:	f5f591        	l32r	a9, 400d02f4 <_image_irom_vaddr+0x2d4> (3ff5f094 <UART1+0xf094>)
400d2b23:	1a0c      	movi.n	a10, 1
400d2b25:	0020c0        	memw
400d2b28:	09a9      	s32i.n	a10, a9, 0
400d2b2a:	f5f3a1        	l32r	a10, 400d02f8 <_image_irom_vaddr+0x2d8> (3ff5f0a4 <UART1+0xf0a4>)
400d2b2d:	0020c0        	memw
400d2b30:	0a98      	l32i.n	a9, a10, 0
400d2b32:	8b0c      	movi.n	a11, 8
400d2b34:	2099b0        	or	a9, a9, a11
400d2b37:	0020c0        	memw
400d2b3a:	0a99      	s32i.n	a9, a10, 0
400d2b3c:	0020c0        	memw
400d2b3f:	0898      	l32i.n	a9, a8, 0
400d2b41:	f5eea1        	l32r	a10, 400d02fc <_image_irom_vaddr+0x2dc> (e0001fff <_rtc_bss_end+0x90001fff>)
400d2b44:	1099a0        	and	a9, a9, a10
400d2b47:	f5eea1        	l32r	a10, 400d0300 <_image_irom_vaddr+0x2e0> (50000 <_image_irom_start+0x3670c>)
400d2b4a:	2099a0        	or	a9, a9, a10
400d2b4d:	0020c0        	memw
400d2b50:	0899      	s32i.n	a9, a8, 0
400d2b52:	0020c0        	memw
400d2b55:	0898      	l32i.n	a9, a8, 0
400d2b57:	f5eba1        	l32r	a10, 400d0304 <_image_irom_vaddr+0x2e4> (c0000800 <_rtc_bss_end+0x70000800>)
400d2b5a:	2099a0        	or	a9, a9, a10
400d2b5d:	0020c0        	memw
400d2b60:	0899      	s32i.n	a9, a8, 0
400d2b62:	f01d      	retw.n

400d2b64 <periph_ll_get_clk_en_mask>:
400d2b64:	004136        	entry	a1, 32
400d2b67:	082c      	movi.n	a8, 32
400d2b69:	02b827        	bgeu	a8, a2, 400d2b6f <periph_ll_get_clk_en_mask+0xb>
400d2b6c:	002e06        	j	400d2c28 <periph_ll_get_clk_en_mask+0xc4>
400d2b6f:	f5eb81        	l32r	a8, 400d031c <_image_irom_vaddr+0x2fc> (3f403ebc <rtc_io_num_map+0x324>)
400d2b72:	a02280        	addx4	a2, a2, a8
400d2b75:	0228      	l32i.n	a2, a2, 0
400d2b77:	0002a0        	jx	a2
400d2b7a:	f53f21        	l32r	a2, 400d0078 <_image_irom_vaddr+0x58> (800 <CONFIG_ISR_STACK_SIZE>)
400d2b7d:	002b86        	j	400d2c2f <periph_ll_get_clk_en_mask+0xcb>
400d2b80:	022c      	movi.n	a2, 32
400d2b82:	002a46        	j	400d2c2f <periph_ll_get_clk_en_mask+0xcb>
400d2b85:	f54b21        	l32r	a2, 400d00b4 <_image_irom_vaddr+0x94> (800000 <CONFIG_FLASH_SIZE+0x400000>)
400d2b88:	0028c6        	j	400d2c2f <periph_ll_get_clk_en_mask+0xcb>
400d2b8b:	80a022        	movi	a2, 128
400d2b8e:	002746        	j	400d2c2f <periph_ll_get_clk_en_mask+0xcb>
400d2b91:	f55c21        	l32r	a2, 400d0104 <_image_irom_vaddr+0xe4> (40000 <_image_irom_start+0x2670c>)
400d2b94:	0025c6        	j	400d2c2f <periph_ll_get_clk_en_mask+0xcb>
400d2b97:	021c      	movi.n	a2, 16
400d2b99:	002486        	j	400d2c2f <periph_ll_get_clk_en_mask+0xcb>
400d2b9c:	f5db21        	l32r	a2, 400d0308 <_image_irom_vaddr+0x2e8> (200000 <_image_irom_start+0x1e670c>)
400d2b9f:	002306        	j	400d2c2f <periph_ll_get_clk_en_mask+0xcb>
400d2ba2:	f52e21        	l32r	a2, 400d005c <_image_irom_vaddr+0x3c> (2000 <CONFIG_HEAP_MEM_POOL_SIZE+0x1000>)
400d2ba5:	002186        	j	400d2c2f <periph_ll_get_clk_en_mask+0xcb>
400d2ba8:	f54621        	l32r	a2, 400d00c0 <_image_irom_vaddr+0xa0> (8000 <_image_irom_size+0x22b8>)
400d2bab:	002006        	j	400d2c2f <periph_ll_get_clk_en_mask+0xcb>
400d2bae:	f5a421        	l32r	a2, 400d0240 <_image_irom_vaddr+0x220> (20000 <_image_irom_start+0x670c>)
400d2bb1:	001e86        	j	400d2c2f <periph_ll_get_clk_en_mask+0xcb>
400d2bb4:	f54121        	l32r	a2, 400d00b8 <_image_irom_vaddr+0x98> (100000 <_image_irom_start+0xe670c>)
400d2bb7:	001d06        	j	400d2c2f <periph_ll_get_clk_en_mask+0xcb>
400d2bba:	00a122        	movi	a2, 0x100
400d2bbd:	001b86        	j	400d2c2f <periph_ll_get_clk_en_mask+0xcb>
400d2bc0:	f52d21        	l32r	a2, 400d0074 <_image_irom_vaddr+0x54> (1000 <CONFIG_HEAP_MEM_POOL_SIZE>)
400d2bc3:	001a06        	j	400d2c2f <periph_ll_get_clk_en_mask+0xcb>
400d2bc6:	00a222        	movi	a2, 0x200
400d2bc9:	001886        	j	400d2c2f <periph_ll_get_clk_en_mask+0xcb>
400d2bcc:	00a422        	movi	a2, 0x400
400d2bcf:	001706        	j	400d2c2f <periph_ll_get_clk_en_mask+0xcb>
400d2bd2:	220c      	movi.n	a2, 2
400d2bd4:	0015c6        	j	400d2c2f <periph_ll_get_clk_en_mask+0xcb>
400d2bd7:	024c      	movi.n	a2, 64
400d2bd9:	001486        	j	400d2c2f <periph_ll_get_clk_en_mask+0xcb>
400d2bdc:	f5cc21        	l32r	a2, 400d030c <_image_irom_vaddr+0x2ec> (10000 <CONFIG_ESP_HEAP_MEM_POOL_REGION_1_SIZE+0x4000>)
400d2bdf:	001306        	j	400d2c2f <periph_ll_get_clk_en_mask+0xcb>
400d2be2:	f5cb21        	l32r	a2, 400d0310 <_image_irom_vaddr+0x2f0> (400000 <CONFIG_FLASH_SIZE>)
400d2be5:	001186        	j	400d2c2f <periph_ll_get_clk_en_mask+0xcb>
400d2be8:	f51d21        	l32r	a2, 400d005c <_image_irom_vaddr+0x3c> (2000 <CONFIG_HEAP_MEM_POOL_SIZE+0x1000>)
400d2beb:	001006        	j	400d2c2f <periph_ll_get_clk_en_mask+0xcb>
400d2bee:	021c      	movi.n	a2, 16
400d2bf0:	000ec6        	j	400d2c2f <periph_ll_get_clk_en_mask+0xcb>
400d2bf3:	f56521        	l32r	a2, 400d0188 <_image_irom_vaddr+0x168> (80000 <_image_irom_start+0x6670c>)
400d2bf6:	000d46        	j	400d2c2f <periph_ll_get_clk_en_mask+0xcb>
400d2bf9:	00          	.byte 00
400d2bfa:	f52d21        	l32r	a2, 400d00b0 <_image_irom_vaddr+0x90> (4000 <CONFIG_COVERAGE_GCOV_HEAP_SIZE>)
400d2bfd:	000b86        	j	400d2c2f <periph_ll_get_clk_en_mask+0xcb>
400d2c00:	f53021        	l32r	a2, 400d00c0 <_image_irom_vaddr+0xa0> (8000 <_image_irom_size+0x22b8>)
400d2c03:	000a06        	j	400d2c2f <periph_ll_get_clk_en_mask+0xcb>
400d2c06:	06a422        	movi	a2, 0x406
400d2c09:	000886        	j	400d2c2f <periph_ll_get_clk_en_mask+0xcb>
400d2c0c:	f5c221        	l32r	a2, 400d0314 <_image_irom_vaddr+0x2f4> (30800 <_image_irom_start+0x16f0c>)
400d2c0f:	000706        	j	400d2c2f <periph_ll_get_clk_en_mask+0xcb>
400d2c12:	c9a322        	movi	a2, 0x3c9
400d2c15:	000586        	j	400d2c2f <periph_ll_get_clk_en_mask+0xcb>
400d2c18:	f5c021        	l32r	a2, 400d0318 <_image_irom_vaddr+0x2f8> (30000 <_image_irom_start+0x1670c>)
400d2c1b:	000406        	j	400d2c2f <periph_ll_get_clk_en_mask+0xcb>
400d2c1e:	120c      	movi.n	a2, 1
400d2c20:	0002c6        	j	400d2c2f <periph_ll_get_clk_en_mask+0xcb>
400d2c23:	220c      	movi.n	a2, 2
400d2c25:	000186        	j	400d2c2f <periph_ll_get_clk_en_mask+0xcb>
400d2c28:	020c      	movi.n	a2, 0
400d2c2a:	000046        	j	400d2c2f <periph_ll_get_clk_en_mask+0xcb>
400d2c2d:	420c      	movi.n	a2, 4
400d2c2f:	f01d      	retw.n
400d2c31:	000000        	ill

400d2c34 <periph_ll_get_rst_en_mask>:
400d2c34:	004136        	entry	a1, 32
400d2c37:	082c      	movi.n	a8, 32
400d2c39:	02b827        	bgeu	a8, a2, 400d2c3f <periph_ll_get_rst_en_mask+0xb>
400d2c3c:	002906        	j	400d2ce4 <periph_ll_get_rst_en_mask+0xb0>
400d2c3f:	f5b881        	l32r	a8, 400d0320 <_image_irom_vaddr+0x300> (3f403f40 <rtc_io_num_map+0x3a8>)
400d2c42:	a02280        	addx4	a2, a2, a8
400d2c45:	0228      	l32i.n	a2, a2, 0
400d2c47:	0002a0        	jx	a2
400d2c4a:	f50b21        	l32r	a2, 400d0078 <_image_irom_vaddr+0x58> (800 <CONFIG_ISR_STACK_SIZE>)
400d2c4d:	002a86        	j	400d2cfb <periph_ll_get_rst_en_mask+0xc7>
400d2c50:	022c      	movi.n	a2, 32
400d2c52:	002946        	j	400d2cfb <periph_ll_get_rst_en_mask+0xc7>
400d2c55:	f51721        	l32r	a2, 400d00b4 <_image_irom_vaddr+0x94> (800000 <CONFIG_FLASH_SIZE+0x400000>)
400d2c58:	0027c6        	j	400d2cfb <periph_ll_get_rst_en_mask+0xc7>
400d2c5b:	80a022        	movi	a2, 128
400d2c5e:	002646        	j	400d2cfb <periph_ll_get_rst_en_mask+0xc7>
400d2c61:	f52821        	l32r	a2, 400d0104 <_image_irom_vaddr+0xe4> (40000 <_image_irom_start+0x2670c>)
400d2c64:	0024c6        	j	400d2cfb <periph_ll_get_rst_en_mask+0xc7>
400d2c67:	021c      	movi.n	a2, 16
400d2c69:	002386        	j	400d2cfb <periph_ll_get_rst_en_mask+0xc7>
400d2c6c:	f5a721        	l32r	a2, 400d0308 <_image_irom_vaddr+0x2e8> (200000 <_image_irom_start+0x1e670c>)
400d2c6f:	002206        	j	400d2cfb <periph_ll_get_rst_en_mask+0xc7>
400d2c72:	f4fa21        	l32r	a2, 400d005c <_image_irom_vaddr+0x3c> (2000 <CONFIG_HEAP_MEM_POOL_SIZE+0x1000>)
400d2c75:	002086        	j	400d2cfb <periph_ll_get_rst_en_mask+0xc7>
400d2c78:	f51221        	l32r	a2, 400d00c0 <_image_irom_vaddr+0xa0> (8000 <_image_irom_size+0x22b8>)
400d2c7b:	001f06        	j	400d2cfb <periph_ll_get_rst_en_mask+0xc7>
400d2c7e:	f57021        	l32r	a2, 400d0240 <_image_irom_vaddr+0x220> (20000 <_image_irom_start+0x670c>)
400d2c81:	001d86        	j	400d2cfb <periph_ll_get_rst_en_mask+0xc7>
400d2c84:	f50d21        	l32r	a2, 400d00b8 <_image_irom_vaddr+0x98> (100000 <_image_irom_start+0xe670c>)
400d2c87:	001c06        	j	400d2cfb <periph_ll_get_rst_en_mask+0xc7>
400d2c8a:	00a122        	movi	a2, 0x100
400d2c8d:	001a86        	j	400d2cfb <periph_ll_get_rst_en_mask+0xc7>
400d2c90:	f4f921        	l32r	a2, 400d0074 <_image_irom_vaddr+0x54> (1000 <CONFIG_HEAP_MEM_POOL_SIZE>)
400d2c93:	001906        	j	400d2cfb <periph_ll_get_rst_en_mask+0xc7>
400d2c96:	00a222        	movi	a2, 0x200
400d2c99:	001786        	j	400d2cfb <periph_ll_get_rst_en_mask+0xc7>
400d2c9c:	00a422        	movi	a2, 0x400
400d2c9f:	001606        	j	400d2cfb <periph_ll_get_rst_en_mask+0xc7>
400d2ca2:	220c      	movi.n	a2, 2
400d2ca4:	0014c6        	j	400d2cfb <periph_ll_get_rst_en_mask+0xc7>
400d2ca7:	024c      	movi.n	a2, 64
400d2ca9:	001386        	j	400d2cfb <periph_ll_get_rst_en_mask+0xc7>
400d2cac:	f59821        	l32r	a2, 400d030c <_image_irom_vaddr+0x2ec> (10000 <CONFIG_ESP_HEAP_MEM_POOL_REGION_1_SIZE+0x4000>)
400d2caf:	001206        	j	400d2cfb <periph_ll_get_rst_en_mask+0xc7>
400d2cb2:	f59721        	l32r	a2, 400d0310 <_image_irom_vaddr+0x2f0> (400000 <CONFIG_FLASH_SIZE>)
400d2cb5:	001086        	j	400d2cfb <periph_ll_get_rst_en_mask+0xc7>
400d2cb8:	024c      	movi.n	a2, 64
400d2cba:	000f46        	j	400d2cfb <periph_ll_get_rst_en_mask+0xc7>
400d2cbd:	022c      	movi.n	a2, 32
400d2cbf:	000e06        	j	400d2cfb <periph_ll_get_rst_en_mask+0xc7>
400d2cc2:	f53121        	l32r	a2, 400d0188 <_image_irom_vaddr+0x168> (80000 <_image_irom_start+0x6670c>)
400d2cc5:	000c86        	j	400d2cfb <periph_ll_get_rst_en_mask+0xc7>
400d2cc8:	80a022        	movi	a2, 128
400d2ccb:	000b06        	j	400d2cfb <periph_ll_get_rst_en_mask+0xc7>
400d2cce:	c39c      	beqz.n	a3, 400d2cee <periph_ll_get_rst_en_mask+0xba>
400d2cd0:	921c      	movi.n	a2, 25
400d2cd2:	000946        	j	400d2cfb <periph_ll_get_rst_en_mask+0xc7>
400d2cd5:	b39c      	beqz.n	a3, 400d2cf4 <periph_ll_get_rst_en_mask+0xc0>
400d2cd7:	a20c      	movi.n	a2, 10
400d2cd9:	000786        	j	400d2cfb <periph_ll_get_rst_en_mask+0xc7>
400d2cdc:	00          	.byte 00
400d2cdd:	839c      	beqz.n	a3, 400d2cf9 <periph_ll_get_rst_en_mask+0xc5>
400d2cdf:	421c      	movi.n	a2, 20
400d2ce1:	000586        	j	400d2cfb <periph_ll_get_rst_en_mask+0xc7>
400d2ce4:	020c      	movi.n	a2, 0
400d2ce6:	000446        	j	400d2cfb <periph_ll_get_rst_en_mask+0xc7>
400d2ce9:	420c      	movi.n	a2, 4
400d2ceb:	000306        	j	400d2cfb <periph_ll_get_rst_en_mask+0xc7>
400d2cee:	120c      	movi.n	a2, 1
400d2cf0:	0001c6        	j	400d2cfb <periph_ll_get_rst_en_mask+0xc7>
400d2cf3:	00          	.byte 00
400d2cf4:	220c      	movi.n	a2, 2
400d2cf6:	000046        	j	400d2cfb <periph_ll_get_rst_en_mask+0xc7>
400d2cf9:	420c      	movi.n	a2, 4
400d2cfb:	f01d      	retw.n
400d2cfd:	000000        	ill

400d2d00 <periph_ll_enable_clk_clear_rst>:
400d2d00:	004136        	entry	a1, 32
400d2d03:	d31c      	movi.n	a3, 29
400d2d05:	103327        	bltu	a3, a2, 400d2d19 <periph_ll_enable_clk_clear_rst+0x19>
400d2d08:	731c      	movi.n	a3, 23
400d2d0a:	17b237        	bgeu	a2, a3, 400d2d25 <periph_ll_enable_clk_clear_rst+0x25>
400d2d0d:	ecc232        	addi	a3, a2, -20
400d2d10:	1823b6        	bltui	a3, 2, 400d2d2c <periph_ll_enable_clk_clear_rst+0x2c>
400d2d13:	f58681        	l32r	a8, 400d032c <_image_irom_vaddr+0x30c> (3ff000c0 <__font_entry_end+0xafb5c8>)
400d2d16:	000746        	j	400d2d37 <periph_ll_enable_clk_clear_rst+0x37>
400d2d19:	e2c232        	addi	a3, a2, -30
400d2d1c:	1433b6        	bltui	a3, 3, 400d2d34 <periph_ll_enable_clk_clear_rst+0x34>
400d2d1f:	f58381        	l32r	a8, 400d032c <_image_irom_vaddr+0x30c> (3ff000c0 <__font_entry_end+0xafb5c8>)
400d2d22:	000446        	j	400d2d37 <periph_ll_enable_clk_clear_rst+0x37>
400d2d25:	f58081        	l32r	a8, 400d0328 <_image_irom_vaddr+0x308> (3ff000cc <__font_entry_end+0xafb5d4>)
400d2d28:	0002c6        	j	400d2d37 <periph_ll_enable_clk_clear_rst+0x37>
400d2d2b:	00          	.byte 00
400d2d2c:	f57f81        	l32r	a8, 400d0328 <_image_irom_vaddr+0x308> (3ff000cc <__font_entry_end+0xafb5d4>)
400d2d2f:	000106        	j	400d2d37 <periph_ll_enable_clk_clear_rst+0x37>
400d2d32:	00          	.byte 00
400d2d33:	00          	.byte 00
400d2d34:	f57c81        	l32r	a8, 400d0324 <_image_irom_vaddr+0x304> (3ff0001c <__font_entry_end+0xafb524>)
400d2d37:	0020c0        	memw
400d2d3a:	002832        	l32i	a3, a8, 0
400d2d3d:	20a220        	or	a10, a2, a2
400d2d40:	ffe225        	call8	400d2b64 <periph_ll_get_clk_en_mask>
400d2d43:	1da082        	movi	a8, 29
400d2d46:	123827        	bltu	a8, a2, 400d2d5c <periph_ll_enable_clk_clear_rst+0x5c>
400d2d49:	781c      	movi.n	a8, 23
400d2d4b:	19b287        	bgeu	a2, a8, 400d2d68 <periph_ll_enable_clk_clear_rst+0x68>
400d2d4e:	ecc282        	addi	a8, a2, -20
400d2d51:	1b28b6        	bltui	a8, 2, 400d2d70 <periph_ll_enable_clk_clear_rst+0x70>
400d2d54:	f57681        	l32r	a8, 400d032c <_image_irom_vaddr+0x30c> (3ff000c0 <__font_entry_end+0xafb5c8>)
400d2d57:	000806        	j	400d2d7b <periph_ll_enable_clk_clear_rst+0x7b>
400d2d5a:	00          	.byte 00
400d2d5b:	00          	.byte 00
400d2d5c:	e2c282        	addi	a8, a2, -30
400d2d5f:	1538b6        	bltui	a8, 3, 400d2d78 <periph_ll_enable_clk_clear_rst+0x78>
400d2d62:	f57281        	l32r	a8, 400d032c <_image_irom_vaddr+0x30c> (3ff000c0 <__font_entry_end+0xafb5c8>)
400d2d65:	000486        	j	400d2d7b <periph_ll_enable_clk_clear_rst+0x7b>
400d2d68:	f57081        	l32r	a8, 400d0328 <_image_irom_vaddr+0x308> (3ff000cc <__font_entry_end+0xafb5d4>)
400d2d6b:	000306        	j	400d2d7b <periph_ll_enable_clk_clear_rst+0x7b>
400d2d6e:	00          	.byte 00
400d2d6f:	00          	.byte 00
400d2d70:	f56e81        	l32r	a8, 400d0328 <_image_irom_vaddr+0x308> (3ff000cc <__font_entry_end+0xafb5d4>)
400d2d73:	000106        	j	400d2d7b <periph_ll_enable_clk_clear_rst+0x7b>
400d2d76:	00          	.byte 00
400d2d77:	00          	.byte 00
400d2d78:	f56b81        	l32r	a8, 400d0324 <_image_irom_vaddr+0x304> (3ff0001c <__font_entry_end+0xafb524>)
400d2d7b:	20aa30        	or	a10, a10, a3
400d2d7e:	0020c0        	memw
400d2d81:	08a9      	s32i.n	a10, a8, 0
400d2d83:	d31c      	movi.n	a3, 29
400d2d85:	103327        	bltu	a3, a2, 400d2d99 <periph_ll_enable_clk_clear_rst+0x99>
400d2d88:	731c      	movi.n	a3, 23
400d2d8a:	17b237        	bgeu	a2, a3, 400d2da5 <periph_ll_enable_clk_clear_rst+0xa5>
400d2d8d:	ecc232        	addi	a3, a2, -20
400d2d90:	1823b6        	bltui	a3, 2, 400d2dac <periph_ll_enable_clk_clear_rst+0xac>
400d2d93:	f56981        	l32r	a8, 400d0338 <_image_irom_vaddr+0x318> (3ff000c4 <__font_entry_end+0xafb5cc>)
400d2d96:	0006c6        	j	400d2db5 <periph_ll_enable_clk_clear_rst+0xb5>
400d2d99:	e2c232        	addi	a3, a2, -30
400d2d9c:	1233b6        	bltui	a3, 3, 400d2db2 <periph_ll_enable_clk_clear_rst+0xb2>
400d2d9f:	f56681        	l32r	a8, 400d0338 <_image_irom_vaddr+0x318> (3ff000c4 <__font_entry_end+0xafb5cc>)
400d2da2:	0003c6        	j	400d2db5 <periph_ll_enable_clk_clear_rst+0xb5>
400d2da5:	f56381        	l32r	a8, 400d0334 <_image_irom_vaddr+0x314> (3ff000d0 <__font_entry_end+0xafb5d8>)
400d2da8:	000246        	j	400d2db5 <periph_ll_enable_clk_clear_rst+0xb5>
400d2dab:	00          	.byte 00
400d2dac:	f56281        	l32r	a8, 400d0334 <_image_irom_vaddr+0x314> (3ff000d0 <__font_entry_end+0xafb5d8>)
400d2daf:	000086        	j	400d2db5 <periph_ll_enable_clk_clear_rst+0xb5>
400d2db2:	f55f81        	l32r	a8, 400d0330 <_image_irom_vaddr+0x310> (3ff00020 <__font_entry_end+0xafb528>)
400d2db5:	0020c0        	memw
400d2db8:	002832        	l32i	a3, a8, 0
400d2dbb:	01a0b2        	movi	a11, 1
400d2dbe:	20a220        	or	a10, a2, a2
400d2dc1:	ffe725        	call8	400d2c34 <periph_ll_get_rst_en_mask>
400d2dc4:	f87c      	movi.n	a8, -1
400d2dc6:	30a8a0        	xor	a10, a8, a10
400d2dc9:	d81c      	movi.n	a8, 29
400d2dcb:	113827        	bltu	a8, a2, 400d2de0 <periph_ll_enable_clk_clear_rst+0xe0>
400d2dce:	781c      	movi.n	a8, 23
400d2dd0:	18b287        	bgeu	a2, a8, 400d2dec <periph_ll_enable_clk_clear_rst+0xec>
400d2dd3:	ecc222        	addi	a2, a2, -20
400d2dd6:	1a22b6        	bltui	a2, 2, 400d2df4 <periph_ll_enable_clk_clear_rst+0xf4>
400d2dd9:	f55721        	l32r	a2, 400d0338 <_image_irom_vaddr+0x318> (3ff000c4 <__font_entry_end+0xafb5cc>)
400d2ddc:	0007c6        	j	400d2dff <periph_ll_enable_clk_clear_rst+0xff>
400d2ddf:	00          	.byte 00
400d2de0:	e2c222        	addi	a2, a2, -30
400d2de3:	1532b6        	bltui	a2, 3, 400d2dfc <periph_ll_enable_clk_clear_rst+0xfc>
400d2de6:	f55421        	l32r	a2, 400d0338 <_image_irom_vaddr+0x318> (3ff000c4 <__font_entry_end+0xafb5cc>)
400d2de9:	000486        	j	400d2dff <periph_ll_enable_clk_clear_rst+0xff>
400d2dec:	f55221        	l32r	a2, 400d0334 <_image_irom_vaddr+0x314> (3ff000d0 <__font_entry_end+0xafb5d8>)
400d2def:	000306        	j	400d2dff <periph_ll_enable_clk_clear_rst+0xff>
400d2df2:	00          	.byte 00
400d2df3:	00          	.byte 00
400d2df4:	f55021        	l32r	a2, 400d0334 <_image_irom_vaddr+0x314> (3ff000d0 <__font_entry_end+0xafb5d8>)
400d2df7:	000106        	j	400d2dff <periph_ll_enable_clk_clear_rst+0xff>
400d2dfa:	00          	.byte 00
400d2dfb:	00          	.byte 00
400d2dfc:	f54d21        	l32r	a2, 400d0330 <_image_irom_vaddr+0x310> (3ff00020 <__font_entry_end+0xafb528>)
400d2dff:	10aa30        	and	a10, a10, a3
400d2e02:	0020c0        	memw
400d2e05:	02a9      	s32i.n	a10, a2, 0
400d2e07:	f01d      	retw.n
400d2e09:	000000        	ill

400d2e0c <periph_ll_disable_clk_set_rst>:
400d2e0c:	004136        	entry	a1, 32
400d2e0f:	d31c      	movi.n	a3, 29
400d2e11:	103327        	bltu	a3, a2, 400d2e25 <periph_ll_disable_clk_set_rst+0x19>
400d2e14:	731c      	movi.n	a3, 23
400d2e16:	17b237        	bgeu	a2, a3, 400d2e31 <periph_ll_disable_clk_set_rst+0x25>
400d2e19:	ecc232        	addi	a3, a2, -20
400d2e1c:	1823b6        	bltui	a3, 2, 400d2e38 <periph_ll_disable_clk_set_rst+0x2c>
400d2e1f:	f54381        	l32r	a8, 400d032c <_image_irom_vaddr+0x30c> (3ff000c0 <__font_entry_end+0xafb5c8>)
400d2e22:	000746        	j	400d2e43 <periph_ll_disable_clk_set_rst+0x37>
400d2e25:	e2c232        	addi	a3, a2, -30
400d2e28:	1433b6        	bltui	a3, 3, 400d2e40 <periph_ll_disable_clk_set_rst+0x34>
400d2e2b:	f54081        	l32r	a8, 400d032c <_image_irom_vaddr+0x30c> (3ff000c0 <__font_entry_end+0xafb5c8>)
400d2e2e:	000446        	j	400d2e43 <periph_ll_disable_clk_set_rst+0x37>
400d2e31:	f53d81        	l32r	a8, 400d0328 <_image_irom_vaddr+0x308> (3ff000cc <__font_entry_end+0xafb5d4>)
400d2e34:	0002c6        	j	400d2e43 <periph_ll_disable_clk_set_rst+0x37>
400d2e37:	00          	.byte 00
400d2e38:	f53c81        	l32r	a8, 400d0328 <_image_irom_vaddr+0x308> (3ff000cc <__font_entry_end+0xafb5d4>)
400d2e3b:	000106        	j	400d2e43 <periph_ll_disable_clk_set_rst+0x37>
400d2e3e:	00          	.byte 00
400d2e3f:	00          	.byte 00
400d2e40:	f53981        	l32r	a8, 400d0324 <_image_irom_vaddr+0x304> (3ff0001c <__font_entry_end+0xafb524>)
400d2e43:	0020c0        	memw
400d2e46:	002832        	l32i	a3, a8, 0
400d2e49:	20a220        	or	a10, a2, a2
400d2e4c:	ffd165        	call8	400d2b64 <periph_ll_get_clk_en_mask>
400d2e4f:	ffaf82        	movi	a8, -1
400d2e52:	30a8a0        	xor	a10, a8, a10
400d2e55:	d81c      	movi.n	a8, 29
400d2e57:	113827        	bltu	a8, a2, 400d2e6c <periph_ll_disable_clk_set_rst+0x60>
400d2e5a:	781c      	movi.n	a8, 23
400d2e5c:	18b287        	bgeu	a2, a8, 400d2e78 <periph_ll_disable_clk_set_rst+0x6c>
400d2e5f:	ecc282        	addi	a8, a2, -20
400d2e62:	1a28b6        	bltui	a8, 2, 400d2e80 <periph_ll_disable_clk_set_rst+0x74>
400d2e65:	f53181        	l32r	a8, 400d032c <_image_irom_vaddr+0x30c> (3ff000c0 <__font_entry_end+0xafb5c8>)
400d2e68:	0007c6        	j	400d2e8b <periph_ll_disable_clk_set_rst+0x7f>
400d2e6b:	00          	.byte 00
400d2e6c:	e2c282        	addi	a8, a2, -30
400d2e6f:	1538b6        	bltui	a8, 3, 400d2e88 <periph_ll_disable_clk_set_rst+0x7c>
400d2e72:	f52e81        	l32r	a8, 400d032c <_image_irom_vaddr+0x30c> (3ff000c0 <__font_entry_end+0xafb5c8>)
400d2e75:	000486        	j	400d2e8b <periph_ll_disable_clk_set_rst+0x7f>
400d2e78:	f52c81        	l32r	a8, 400d0328 <_image_irom_vaddr+0x308> (3ff000cc <__font_entry_end+0xafb5d4>)
400d2e7b:	000306        	j	400d2e8b <periph_ll_disable_clk_set_rst+0x7f>
400d2e7e:	00          	.byte 00
400d2e7f:	00          	.byte 00
400d2e80:	f52a81        	l32r	a8, 400d0328 <_image_irom_vaddr+0x308> (3ff000cc <__font_entry_end+0xafb5d4>)
400d2e83:	000106        	j	400d2e8b <periph_ll_disable_clk_set_rst+0x7f>
400d2e86:	00          	.byte 00
400d2e87:	00          	.byte 00
400d2e88:	f52781        	l32r	a8, 400d0324 <_image_irom_vaddr+0x304> (3ff0001c <__font_entry_end+0xafb524>)
400d2e8b:	10aa30        	and	a10, a10, a3
400d2e8e:	0020c0        	memw
400d2e91:	08a9      	s32i.n	a10, a8, 0
400d2e93:	d31c      	movi.n	a3, 29
400d2e95:	103327        	bltu	a3, a2, 400d2ea9 <periph_ll_disable_clk_set_rst+0x9d>
400d2e98:	731c      	movi.n	a3, 23
400d2e9a:	17b237        	bgeu	a2, a3, 400d2eb5 <periph_ll_disable_clk_set_rst+0xa9>
400d2e9d:	ecc232        	addi	a3, a2, -20
400d2ea0:	1823b6        	bltui	a3, 2, 400d2ebc <periph_ll_disable_clk_set_rst+0xb0>
400d2ea3:	f52581        	l32r	a8, 400d0338 <_image_irom_vaddr+0x318> (3ff000c4 <__font_entry_end+0xafb5cc>)
400d2ea6:	000746        	j	400d2ec7 <periph_ll_disable_clk_set_rst+0xbb>
400d2ea9:	e2c232        	addi	a3, a2, -30
400d2eac:	1433b6        	bltui	a3, 3, 400d2ec4 <periph_ll_disable_clk_set_rst+0xb8>
400d2eaf:	f52281        	l32r	a8, 400d0338 <_image_irom_vaddr+0x318> (3ff000c4 <__font_entry_end+0xafb5cc>)
400d2eb2:	000446        	j	400d2ec7 <periph_ll_disable_clk_set_rst+0xbb>
400d2eb5:	f51f81        	l32r	a8, 400d0334 <_image_irom_vaddr+0x314> (3ff000d0 <__font_entry_end+0xafb5d8>)
400d2eb8:	0002c6        	j	400d2ec7 <periph_ll_disable_clk_set_rst+0xbb>
400d2ebb:	00          	.byte 00
400d2ebc:	f51e81        	l32r	a8, 400d0334 <_image_irom_vaddr+0x314> (3ff000d0 <__font_entry_end+0xafb5d8>)
400d2ebf:	000106        	j	400d2ec7 <periph_ll_disable_clk_set_rst+0xbb>
400d2ec2:	00          	.byte 00
400d2ec3:	00          	.byte 00
400d2ec4:	f51b81        	l32r	a8, 400d0330 <_image_irom_vaddr+0x310> (3ff00020 <__font_entry_end+0xafb528>)
400d2ec7:	0020c0        	memw
400d2eca:	002832        	l32i	a3, a8, 0
400d2ecd:	00a0b2        	movi	a11, 0
400d2ed0:	20a220        	or	a10, a2, a2
400d2ed3:	ffd625        	call8	400d2c34 <periph_ll_get_rst_en_mask>
400d2ed6:	d81c      	movi.n	a8, 29
400d2ed8:	103827        	bltu	a8, a2, 400d2eec <periph_ll_disable_clk_set_rst+0xe0>
400d2edb:	781c      	movi.n	a8, 23
400d2edd:	17b287        	bgeu	a2, a8, 400d2ef8 <periph_ll_disable_clk_set_rst+0xec>
400d2ee0:	ecc222        	addi	a2, a2, -20
400d2ee3:	1922b6        	bltui	a2, 2, 400d2f00 <periph_ll_disable_clk_set_rst+0xf4>
400d2ee6:	f51421        	l32r	a2, 400d0338 <_image_irom_vaddr+0x318> (3ff000c4 <__font_entry_end+0xafb5cc>)
400d2ee9:	000786        	j	400d2f0b <periph_ll_disable_clk_set_rst+0xff>
400d2eec:	e2c222        	addi	a2, a2, -30
400d2eef:	1532b6        	bltui	a2, 3, 400d2f08 <periph_ll_disable_clk_set_rst+0xfc>
400d2ef2:	f51121        	l32r	a2, 400d0338 <_image_irom_vaddr+0x318> (3ff000c4 <__font_entry_end+0xafb5cc>)
400d2ef5:	000486        	j	400d2f0b <periph_ll_disable_clk_set_rst+0xff>
400d2ef8:	f50f21        	l32r	a2, 400d0334 <_image_irom_vaddr+0x314> (3ff000d0 <__font_entry_end+0xafb5d8>)
400d2efb:	000306        	j	400d2f0b <periph_ll_disable_clk_set_rst+0xff>
400d2efe:	00          	.byte 00
400d2eff:	00          	.byte 00
400d2f00:	f50d21        	l32r	a2, 400d0334 <_image_irom_vaddr+0x314> (3ff000d0 <__font_entry_end+0xafb5d8>)
400d2f03:	000106        	j	400d2f0b <periph_ll_disable_clk_set_rst+0xff>
400d2f06:	00          	.byte 00
400d2f07:	00          	.byte 00
400d2f08:	f50a21        	l32r	a2, 400d0330 <_image_irom_vaddr+0x310> (3ff00020 <__font_entry_end+0xafb528>)
400d2f0b:	20aa30        	or	a10, a10, a3
400d2f0e:	0020c0        	memw
400d2f11:	02a9      	s32i.n	a10, a2, 0
400d2f13:	f01d      	retw.n
400d2f15:	000000        	ill

400d2f18 <periph_module_enable>:
400d2f18:	004136        	entry	a1, 32
400d2f1b:	006390        	rsil	a9, 3
400d2f1e:	f50781        	l32r	a8, 400d033c <_image_irom_vaddr+0x31c> (3ffc1d14 <periph_spinlock>)
400d2f21:	006892        	s32i	a9, a8, 0
400d2f24:	f50781        	l32r	a8, 400d0340 <_image_irom_vaddr+0x320> (3ffc1cf0 <ref_counts>)
400d2f27:	808820        	add	a8, a8, a2
400d2f2a:	000882        	l8ui	a8, a8, 0
400d2f2d:	004856        	bnez	a8, 400d2f35 <periph_module_enable+0x1d>
400d2f30:	02ad      	mov.n	a10, a2
400d2f32:	ffdce5        	call8	400d2d00 <periph_ll_enable_clk_clear_rst>
400d2f35:	f50281        	l32r	a8, 400d0340 <_image_irom_vaddr+0x320> (3ffc1cf0 <ref_counts>)
400d2f38:	282a      	add.n	a2, a8, a2
400d2f3a:	000282        	l8ui	a8, a2, 0
400d2f3d:	881b      	addi.n	a8, a8, 1
400d2f3f:	004282        	s8i	a8, a2, 0
400d2f42:	f4fe21        	l32r	a2, 400d033c <_image_irom_vaddr+0x31c> (3ffc1d14 <periph_spinlock>)
400d2f45:	0228      	l32i.n	a2, a2, 0
400d2f47:	13e620        	wsr.ps	a2
400d2f4a:	002010        	rsync
400d2f4d:	f01d      	retw.n
	...

400d2f50 <periph_module_disable>:
400d2f50:	004136        	entry	a1, 32
400d2f53:	006390        	rsil	a9, 3
400d2f56:	f4f981        	l32r	a8, 400d033c <_image_irom_vaddr+0x31c> (3ffc1d14 <periph_spinlock>)
400d2f59:	006892        	s32i	a9, a8, 0
400d2f5c:	f4f991        	l32r	a9, 400d0340 <_image_irom_vaddr+0x320> (3ffc1cf0 <ref_counts>)
400d2f5f:	809920        	add	a9, a9, a2
400d2f62:	000982        	l8ui	a8, a9, 0
400d2f65:	ffc882        	addi	a8, a8, -1
400d2f68:	748080        	extui	a8, a8, 0, 8
400d2f6b:	004982        	s8i	a8, a9, 0
400d2f6e:	38cc      	bnez.n	a8, 400d2f75 <periph_module_disable+0x25>
400d2f70:	02ad      	mov.n	a10, a2
400d2f72:	ffe9a5        	call8	400d2e0c <periph_ll_disable_clk_set_rst>
400d2f75:	f4f121        	l32r	a2, 400d033c <_image_irom_vaddr+0x31c> (3ffc1d14 <periph_spinlock>)
400d2f78:	0228      	l32i.n	a2, a2, 0
400d2f7a:	13e620        	wsr.ps	a2
400d2f7d:	002010        	rsync
400d2f80:	f01d      	retw.n
	...

400d2f84 <interrupt_controller_hal_desc_type>:
400d2f84:	004136        	entry	a1, 32
400d2f87:	0003e5        	call8	400d2fc4 <interrupt_controller_hal_desc_table>
400d2f8a:	1122c0        	slli	a2, a2, 4
400d2f8d:	802a20        	add	a2, a10, a2
400d2f90:	012222        	l32i	a2, a2, 4
400d2f93:	000090        	retw
	...

400d2f98 <interrupt_controller_hal_desc_level>:
400d2f98:	004136        	entry	a1, 32
400d2f9b:	0002a5        	call8	400d2fc4 <interrupt_controller_hal_desc_table>
400d2f9e:	1122c0        	slli	a2, a2, 4
400d2fa1:	802a20        	add	a2, a10, a2
400d2fa4:	002222        	l32i	a2, a2, 0
400d2fa7:	000090        	retw
	...

400d2fac <interrupt_controller_hal_desc_flags>:
400d2fac:	004136        	entry	a1, 32
400d2faf:	000165        	call8	400d2fc4 <interrupt_controller_hal_desc_table>
400d2fb2:	1122c0        	slli	a2, a2, 4
400d2fb5:	802a20        	add	a2, a10, a2
400d2fb8:	a03320        	addx4	a3, a3, a2
400d2fbb:	022322        	l32i	a2, a3, 8
400d2fbe:	000090        	retw
400d2fc1:	000000        	ill

400d2fc4 <interrupt_controller_hal_desc_table>:
400d2fc4:	004136        	entry	a1, 32
400d2fc7:	f4df21        	l32r	a2, 400d0344 <_image_irom_vaddr+0x324> (3f403fc4 <interrupt_descriptor_table>)
400d2fca:	f01d      	retw.n

400d2fcc <z_esp_aligned_alloc>:
400d2fcc:	004136        	entry	a1, 32
400d2fcf:	080c      	movi.n	a8, 0
400d2fd1:	c44b      	addi.n	a12, a4, 4
400d2fd3:	01bc47        	bgeu	a12, a4, 400d2fd8 <z_esp_aligned_alloc+0xc>
400d2fd6:	180c      	movi.n	a8, 1
400d2fd8:	68dc      	bnez.n	a8, 400d2ff2 <z_esp_aligned_alloc+0x26>
400d2fda:	0f0c      	movi.n	a15, 0
400d2fdc:	0fed      	mov.n	a14, a15
400d2fde:	4b0c      	movi.n	a11, 4
400d2fe0:	20b3b0        	or	a11, a3, a11
400d2fe3:	02ad      	mov.n	a10, a2
400d2fe5:	aebe65        	call8	40081bcc <k_heap_aligned_alloc>
400d2fe8:	8a8c      	beqz.n	a10, 400d2ff4 <z_esp_aligned_alloc+0x28>
400d2fea:	0a29      	s32i.n	a2, a10, 0
400d2fec:	aa4b      	addi.n	a10, a10, 4
400d2fee:	000086        	j	400d2ff4 <z_esp_aligned_alloc+0x28>
400d2ff1:	00          	.byte 00
400d2ff2:	0a0c      	movi.n	a10, 0
400d2ff4:	0a2d      	mov.n	a2, a10
400d2ff6:	f01d      	retw.n

400d2ff8 <z_esp_alloc_internal>:
400d2ff8:	004136        	entry	a1, 32
400d2ffb:	03ad      	mov.n	a10, a3
400d2ffd:	afdce5        	call8	40082dcc <k_malloc>
400d3000:	8acc      	bnez.n	a10, 400d300c <z_esp_alloc_internal+0x14>
400d3002:	03cd      	mov.n	a12, a3
400d3004:	02bd      	mov.n	a11, a2
400d3006:	f4d0a1        	l32r	a10, 400d0348 <_image_irom_vaddr+0x328> (3ffc0a70 <_internal_heap_1>)
400d3009:	fffc25        	call8	400d2fcc <z_esp_aligned_alloc>
400d300c:	0a2d      	mov.n	a2, a10
400d300e:	f01d      	retw.n

400d3010 <z_esp_aligned_calloc>:
400d3010:	004136        	entry	a1, 32
400d3013:	00a082        	movi	a8, 0
400d3016:	825340        	mull	a5, a3, a4
400d3019:	a23340        	muluh	a3, a3, a4
400d301c:	021387        	beq	a3, a8, 400d3022 <z_esp_aligned_calloc+0x12>
400d301f:	01a082        	movi	a8, 1
400d3022:	68dc      	bnez.n	a8, 400d303c <z_esp_aligned_calloc+0x2c>
400d3024:	05cd      	mov.n	a12, a5
400d3026:	4b0c      	movi.n	a11, 4
400d3028:	02ad      	mov.n	a10, a2
400d302a:	fffa25        	call8	400d2fcc <z_esp_aligned_alloc>
400d302d:	0a2d      	mov.n	a2, a10
400d302f:	ba8c      	beqz.n	a10, 400d303e <z_esp_aligned_calloc+0x2e>
400d3031:	05cd      	mov.n	a12, a5
400d3033:	0b0c      	movi.n	a11, 0
400d3035:	b12865        	call8	400842bc <memset>
400d3038:	000086        	j	400d303e <z_esp_aligned_calloc+0x2e>
400d303b:	00          	.byte 00
400d303c:	020c      	movi.n	a2, 0
400d303e:	f01d      	retw.n

400d3040 <z_esp_calloc_internal>:
400d3040:	004136        	entry	a1, 32
400d3043:	20b330        	or	a11, a3, a3
400d3046:	20a220        	or	a10, a2, a2
400d3049:	afd965        	call8	40082de0 <k_calloc>
400d304c:	8acc      	bnez.n	a10, 400d3058 <z_esp_calloc_internal+0x18>
400d304e:	03cd      	mov.n	a12, a3
400d3050:	02bd      	mov.n	a11, a2
400d3052:	f4bda1        	l32r	a10, 400d0348 <_image_irom_vaddr+0x328> (3ffc0a70 <_internal_heap_1>)
400d3055:	fffba5        	call8	400d3010 <z_esp_aligned_calloc>
400d3058:	0a2d      	mov.n	a2, a10
400d305a:	f01d      	retw.n

400d305c <__wrap_k_malloc>:
400d305c:	004136        	entry	a1, 32
400d305f:	20b220        	or	a11, a2, a2
400d3062:	04a0a2        	movi	a10, 4
400d3065:	fff925        	call8	400d2ff8 <z_esp_alloc_internal>
400d3068:	202aa0        	or	a2, a10, a10
400d306b:	f01d      	retw.n
400d306d:	000000        	ill

400d3070 <__wrap_k_calloc>:
400d3070:	004136        	entry	a1, 32
400d3073:	20b330        	or	a11, a3, a3
400d3076:	20a220        	or	a10, a2, a2
400d3079:	fffc65        	call8	400d3040 <z_esp_calloc_internal>
400d307c:	202aa0        	or	a2, a10, a10
400d307f:	f01d      	retw.n
400d3081:	000000        	ill

400d3084 <z_isr_install>:
400d3084:	004136        	entry	a1, 32
400d3087:	f4b181        	l32r	a8, 400d034c <_image_irom_vaddr+0x32c> (3ffc0960 <_sw_isr_table>)
400d308a:	b02280        	addx8	a2, a2, a8
400d308d:	0249      	s32i.n	a4, a2, 0
400d308f:	1239      	s32i.n	a3, a2, 4
400d3091:	f01d      	retw.n
	...

400d3094 <arch_irq_connect_dynamic>:
400d3094:	004136        	entry	a1, 32
400d3097:	05cd      	mov.n	a12, a5
400d3099:	04bd      	mov.n	a11, a4
400d309b:	02ad      	mov.n	a10, a2
400d309d:	fffe65        	call8	400d3084 <z_isr_install>
400d30a0:	f01d      	retw.n
	...

400d30a4 <abort>:
400d30a4:	004136        	entry	a1, 32
400d30a7:	f4aaa1        	l32r	a10, 400d0350 <_image_irom_vaddr+0x330> (3f4041c4 <interrupt_descriptor_table+0x200>)
400d30aa:	b11165        	call8	400841c0 <printk>
400d30ad:	04a0a2        	movi	a10, 4
400d30b0:	adefe5        	call8	40080fb0 <xtensa_arch_except>
400d30b3:	000090        	retw
	...

400d30b8 <__stdout_hook_install>:
400d30b8:	004136        	entry	a1, 32
400d30bb:	f4a681        	l32r	a8, 400d0354 <_image_irom_vaddr+0x334> (3ffbfffc <_stdout_hook>)
400d30be:	0829      	s32i.n	a2, a8, 0
400d30c0:	f01d      	retw.n
	...

400d30c4 <dump_header>:
400d30c4:	006136        	entry	a1, 48
400d30c7:	080c      	movi.n	a8, 0
400d30c9:	0189      	s32i.n	a8, a1, 0
400d30cb:	1189      	s32i.n	a8, a1, 4
400d30cd:	2189      	s32i.n	a8, a1, 8
400d30cf:	f4a231        	l32r	a3, 400d0358 <_image_irom_vaddr+0x338> (455a <_image_iram_size+0x256>)
400d30d2:	005132        	s16i	a3, a1, 0
400d30d5:	180c      	movi.n	a8, 1
400d30d7:	015182        	s16i	a8, a1, 2
400d30da:	2129      	s32i.n	a2, a1, 8
400d30dc:	05a082        	movi	a8, 5
400d30df:	064182        	s8i	a8, a1, 6
400d30e2:	ae7d25        	call8	400818b4 <arch_coredump_tgt_code_get>
400d30e5:	0251a2        	s16i	a10, a1, 4
400d30e8:	f49d81        	l32r	a8, 400d035c <_image_irom_vaddr+0x33c> (3ffc0000 <coredump_backend_logging>)
400d30eb:	2888      	l32i.n	a8, a8, 8
400d30ed:	cb0c      	movi.n	a11, 12
400d30ef:	01ad      	mov.n	a10, a1
400d30f1:	0008e0        	callx8	a8
400d30f4:	f01d      	retw.n
	...

400d30f8 <z_coredump_start>:
400d30f8:	004136        	entry	a1, 32
400d30fb:	f49881        	l32r	a8, 400d035c <_image_irom_vaddr+0x33c> (3ffc0000 <coredump_backend_logging>)
400d30fe:	002882        	l32i	a8, a8, 0
400d3101:	0008e0        	callx8	a8
400d3104:	f01d      	retw.n
	...

400d3108 <z_coredump_end>:
400d3108:	004136        	entry	a1, 32
400d310b:	f49481        	l32r	a8, 400d035c <_image_irom_vaddr+0x33c> (3ffc0000 <coredump_backend_logging>)
400d310e:	012882        	l32i	a8, a8, 4
400d3111:	0008e0        	callx8	a8
400d3114:	f01d      	retw.n
	...

400d3118 <coredump_buffer_output>:
400d3118:	004136        	entry	a1, 32
400d311b:	180c      	movi.n	a8, 1
400d311d:	090c      	movi.n	a9, 0
400d311f:	09ad      	mov.n	a10, a9
400d3121:	83a820        	moveqz	a10, a8, a2
400d3124:	938930        	movnez	a8, a9, a3
400d3127:	2088a0        	or	a8, a8, a10
400d312a:	0b9897        	bne	a8, a9, 400d3139 <coredump_buffer_output+0x21>
400d312d:	f48b81        	l32r	a8, 400d035c <_image_irom_vaddr+0x33c> (3ffc0000 <coredump_backend_logging>)
400d3130:	2888      	l32i.n	a8, a8, 8
400d3132:	03bd      	mov.n	a11, a3
400d3134:	02ad      	mov.n	a10, a2
400d3136:	0008e0        	callx8	a8
400d3139:	f01d      	retw.n
	...

400d313c <coredump_memory_dump>:
400d313c:	006136        	entry	a1, 48
400d313f:	01a082        	movi	a8, 1
400d3142:	00a092        	movi	a9, 0
400d3145:	09ad      	mov.n	a10, a9
400d3147:	83a820        	moveqz	a10, a8, a2
400d314a:	938930        	movnez	a8, a9, a3
400d314d:	2088a0        	or	a8, a8, a10
400d3150:	4a9897        	bne	a8, a9, 400d319e <coredump_memory_dump+0x62>
400d3153:	47b237        	bgeu	a2, a3, 400d319e <coredump_memory_dump+0x62>
400d3156:	c04320        	sub	a4, a3, a2
400d3159:	d84c      	movi.n	a8, 77
400d315b:	004182        	s8i	a8, a1, 0
400d315e:	180c      	movi.n	a8, 1
400d3160:	014182        	s8i	a8, a1, 1
400d3163:	024192        	s8i	a9, a1, 2
400d3166:	034122        	s8i	a2, a1, 3
400d3169:	748820        	extui	a8, a2, 8, 8
400d316c:	044182        	s8i	a8, a1, 4
400d316f:	758020        	extui	a8, a2, 16, 8
400d3172:	054182        	s8i	a8, a1, 5
400d3175:	758820        	extui	a8, a2, 24, 8
400d3178:	064182        	s8i	a8, a1, 6
400d317b:	074132        	s8i	a3, a1, 7
400d317e:	748830        	extui	a8, a3, 8, 8
400d3181:	084182        	s8i	a8, a1, 8
400d3184:	758030        	extui	a8, a3, 16, 8
400d3187:	094182        	s8i	a8, a1, 9
400d318a:	753830        	extui	a3, a3, 24, 8
400d318d:	0a4132        	s8i	a3, a1, 10
400d3190:	bb0c      	movi.n	a11, 11
400d3192:	01ad      	mov.n	a10, a1
400d3194:	fff825        	call8	400d3118 <coredump_buffer_output>
400d3197:	04bd      	mov.n	a11, a4
400d3199:	02ad      	mov.n	a10, a2
400d319b:	fff7e5        	call8	400d3118 <coredump_buffer_output>
400d319e:	f01d      	retw.n

400d31a0 <dump_thread>:
400d31a0:	004136        	entry	a1, 32
400d31a3:	329c      	beqz.n	a2, 400d31ba <dump_thread+0x1a>
400d31a5:	98a0b2        	movi	a11, 152
400d31a8:	b2ba      	add.n	a11, a2, a11
400d31aa:	02ad      	mov.n	a10, a2
400d31ac:	fff8e5        	call8	400d313c <coredump_memory_dump>
400d31af:	1f22a2        	l32i	a10, a2, 124
400d31b2:	2022b2        	l32i	a11, a2, 128
400d31b5:	baba      	add.n	a11, a10, a11
400d31b7:	fff865        	call8	400d313c <coredump_memory_dump>
400d31ba:	f01d      	retw.n

400d31bc <coredump>:
400d31bc:	004136        	entry	a1, 32
400d31bf:	fff3a5        	call8	400d30f8 <z_coredump_start>
400d31c2:	02ad      	mov.n	a10, a2
400d31c4:	ffefe5        	call8	400d30c4 <dump_header>
400d31c7:	007316        	beqz	a3, 400d31d2 <coredump+0x16>
400d31ca:	03ad      	mov.n	a10, a3
400d31cc:	201110        	or	a1, a1, a1
400d31cf:	ae5ea5        	call8	400817b8 <arch_coredump_info_dump>
400d31d2:	348c      	beqz.n	a4, 400d31d9 <coredump+0x1d>
400d31d4:	04ad      	mov.n	a10, a4
400d31d6:	fffca5        	call8	400d31a0 <dump_thread>
400d31d9:	fff2e5        	call8	400d3108 <z_coredump_end>
400d31dc:	f01d      	retw.n
	...

400d31e0 <coredump_logging_backend_query>:
400d31e0:	004136        	entry	a1, 32
400d31e3:	62cc      	bnez.n	a2, 400d31ed <coredump_logging_backend_query+0xd>
400d31e5:	f45e21        	l32r	a2, 400d0360 <_image_irom_vaddr+0x340> (3ffc1d88 <error>)
400d31e8:	0228      	l32i.n	a2, a2, 0
400d31ea:	000086        	j	400d31f0 <coredump_logging_backend_query+0x10>
400d31ed:	7aaf22        	movi	a2, -134
400d31f0:	f01d      	retw.n
	...

400d31f4 <coredump_logging_backend_cmd>:
400d31f4:	004136        	entry	a1, 32
400d31f7:	62cc      	bnez.n	a2, 400d3201 <coredump_logging_backend_cmd+0xd>
400d31f9:	f45981        	l32r	a8, 400d0360 <_image_irom_vaddr+0x340> (3ffc1d88 <error>)
400d31fc:	0829      	s32i.n	a2, a8, 0
400d31fe:	000086        	j	400d3204 <coredump_logging_backend_cmd+0x10>
400d3201:	7aaf22        	movi	a2, -134
400d3204:	f01d      	retw.n
	...

400d3208 <coredump_logging_backend_buffer_output>:
400d3208:	004136        	entry	a1, 32
400d320b:	140c      	movi.n	a4, 1
400d320d:	050c      	movi.n	a5, 0
400d320f:	056d      	mov.n	a6, a5
400d3211:	836420        	moveqz	a6, a4, a2
400d3214:	934530        	movnez	a4, a5, a3
400d3217:	204460        	or	a4, a4, a6
400d321a:	029457        	bne	a4, a5, 400d3220 <coredump_logging_backend_buffer_output+0x18>
400d321d:	002306        	j	400d32ad <coredump_logging_backend_buffer_output+0xa5>
400d3220:	f45031        	l32r	a3, 400d0360 <_image_irom_vaddr+0x340> (3ffc1d88 <error>)
400d3223:	a46c      	movi.n	a4, -22
400d3225:	0349      	s32i.n	a4, a3, 0
400d3227:	053d      	mov.n	a3, a5
400d3229:	002006        	j	400d32ad <coredump_logging_backend_buffer_output+0xa5>
400d322c:	00          	.byte 00
400d322d:	806250        	add	a6, a2, a5
400d3230:	0006a2        	l8ui	a10, a6, 0
400d3233:	f44cb1        	l32r	a11, 400d0364 <_image_irom_vaddr+0x344> (3ffc1d8c <log_buf>)
400d3236:	80bb40        	add	a11, a11, a4
400d3239:	41a4a0        	srli	a10, a10, 4
400d323c:	0233e5        	call8	400d557c <hex2char>
400d323f:	00bad6        	bgez	a10, 400d324e <coredump_logging_backend_buffer_output+0x46>
400d3242:	f44721        	l32r	a2, 400d0360 <_image_irom_vaddr+0x340> (3ffc1d88 <error>)
400d3245:	eaaf32        	movi	a3, -22
400d3248:	0239      	s32i.n	a3, a2, 0
400d324a:	001986        	j	400d32b4 <coredump_logging_backend_buffer_output+0xac>
400d324d:	00          	.byte 00
400d324e:	01c482        	addi	a8, a4, 1
400d3251:	748080        	extui	a8, a8, 0, 8
400d3254:	0006a2        	l8ui	a10, a6, 0
400d3257:	f443b1        	l32r	a11, 400d0364 <_image_irom_vaddr+0x344> (3ffc1d8c <log_buf>)
400d325a:	80bb80        	add	a11, a11, a8
400d325d:	34a0a0        	extui	a10, a10, 0, 4
400d3260:	0231a5        	call8	400d557c <hex2char>
400d3263:	00bad6        	bgez	a10, 400d3272 <coredump_logging_backend_buffer_output+0x6a>
400d3266:	f43e21        	l32r	a2, 400d0360 <_image_irom_vaddr+0x340> (3ffc1d88 <error>)
400d3269:	eaaf32        	movi	a3, -22
400d326c:	0239      	s32i.n	a3, a2, 0
400d326e:	001086        	j	400d32b4 <coredump_logging_backend_buffer_output+0xac>
400d3271:	00          	.byte 00
400d3272:	442b      	addi.n	a4, a4, 2
400d3274:	744040        	extui	a4, a4, 0, 8
400d3277:	551b      	addi.n	a5, a5, 1
400d3279:	330b      	addi.n	a3, a3, -1
400d327b:	180c      	movi.n	a8, 1
400d327d:	f63c      	movi.n	a6, 63
400d327f:	023647        	bltu	a6, a4, 400d3285 <coredump_logging_backend_buffer_output+0x7d>
400d3282:	00a082        	movi	a8, 0
400d3285:	749080        	extui	a9, a8, 0, 8
400d3288:	01a082        	movi	a8, 1
400d328b:	00a062        	movi	a6, 0
400d328e:	938630        	movnez	a8, a6, a3
400d3291:	208890        	or	a8, a8, a9
400d3294:	191867        	beq	a8, a6, 400d32b1 <coredump_logging_backend_buffer_output+0xa9>
400d3297:	f433c1        	l32r	a12, 400d0364 <_image_irom_vaddr+0x344> (3ffc1d8c <log_buf>)
400d329a:	804c40        	add	a4, a12, a4
400d329d:	004462        	s8i	a6, a4, 0
400d32a0:	5b4c      	movi.n	a11, 69
400d32a2:	f431a1        	l32r	a10, 400d0368 <_image_irom_vaddr+0x348> (3f4041d0 <interrupt_descriptor_table+0x20c>)
400d32a5:	fd6625        	call8	400d0908 <z_log_minimal_printk>
400d32a8:	040c      	movi.n	a4, 0
400d32aa:	0000c6        	j	400d32b1 <coredump_logging_backend_buffer_output+0xa9>
400d32ad:	050c      	movi.n	a5, 0
400d32af:	054d      	mov.n	a4, a5
400d32b1:	f78356        	bnez	a3, 400d322d <coredump_logging_backend_buffer_output+0x25>
400d32b4:	f01d      	retw.n
	...

400d32b8 <coredump_logging_backend_end>:
400d32b8:	004136        	entry	a1, 32
400d32bb:	f42981        	l32r	a8, 400d0360 <_image_irom_vaddr+0x340> (3ffc1d88 <error>)
400d32be:	002882        	l32i	a8, a8, 0
400d32c1:	007816        	beqz	a8, 400d32cc <coredump_logging_backend_end+0x14>
400d32c4:	5b4c      	movi.n	a11, 69
400d32c6:	f429a1        	l32r	a10, 400d036c <_image_irom_vaddr+0x34c> (3f4041dc <interrupt_descriptor_table+0x218>)
400d32c9:	fd63e5        	call8	400d0908 <z_log_minimal_printk>
400d32cc:	5b4c      	movi.n	a11, 69
400d32ce:	f428a1        	l32r	a10, 400d0370 <_image_irom_vaddr+0x350> (3f4041f8 <interrupt_descriptor_table+0x234>)
400d32d1:	fd6365        	call8	400d0908 <z_log_minimal_printk>
400d32d4:	f01d      	retw.n
	...

400d32d8 <coredump_logging_backend_start>:
400d32d8:	004136        	entry	a1, 32
400d32db:	f42181        	l32r	a8, 400d0360 <_image_irom_vaddr+0x340> (3ffc1d88 <error>)
400d32de:	00a092        	movi	a9, 0
400d32e1:	006892        	s32i	a9, a8, 0
400d32e4:	45a0b2        	movi	a11, 69
400d32e7:	f423a1        	l32r	a10, 400d0374 <_image_irom_vaddr+0x354> (3f404208 <interrupt_descriptor_table+0x244>)
400d32ea:	fd61e5        	call8	400d0908 <z_log_minimal_printk>
400d32ed:	f01d      	retw.n
	...

400d32f0 <insert_vector_desc>:
400d32f0:	004136        	entry	a1, 32
400d32f3:	f42181        	l32r	a8, 400d0378 <_image_irom_vaddr+0x358> (3ffc1dd4 <vector_desc_head>)
400d32f6:	08c8      	l32i.n	a12, a8, 0
400d32f8:	0c8d      	mov.n	a8, a12
400d32fa:	0b0c      	movi.n	a11, 0
400d32fc:	000a46        	j	400d3329 <insert_vector_desc+0x39>
400d32ff:	00          	.byte 00
400d3300:	0898      	l32i.n	a9, a8, 0
400d3302:	059090        	extui	a9, a9, 16, 1
400d3305:	02a8      	l32i.n	a10, a2, 0
400d3307:	05a0a0        	extui	a10, a10, 16, 1
400d330a:	1e3a97        	bltu	a10, a9, 400d332c <insert_vector_desc+0x3c>
400d330d:	0898      	l32i.n	a9, a8, 0
400d330f:	02a8      	l32i.n	a10, a2, 0
400d3311:	3099a0        	xor	a9, a9, a10
400d3314:	0df907        	bbsi	a9, 16, 400d3325 <insert_vector_desc+0x35>
400d3317:	08a8      	l32i.n	a10, a8, 0
400d3319:	45a1a0        	extui	a10, a10, 17, 5
400d331c:	002292        	l32i	a9, a2, 0
400d331f:	459190        	extui	a9, a9, 17, 5
400d3322:	06ba97        	bgeu	a10, a9, 400d332c <insert_vector_desc+0x3c>
400d3325:	08bd      	mov.n	a11, a8
400d3327:	2888      	l32i.n	a8, a8, 8
400d3329:	fd3856        	bnez	a8, 400d3300 <insert_vector_desc+0x10>
400d332c:	0c8c      	beqz.n	a12, 400d3330 <insert_vector_desc+0x40>
400d332e:	8bcc      	bnez.n	a11, 400d333a <insert_vector_desc+0x4a>
400d3330:	2289      	s32i.n	a8, a2, 8
400d3332:	f41181        	l32r	a8, 400d0378 <_image_irom_vaddr+0x358> (3ffc1dd4 <vector_desc_head>)
400d3335:	0829      	s32i.n	a2, a8, 0
400d3337:	0000c6        	j	400d333e <insert_vector_desc+0x4e>
400d333a:	2b29      	s32i.n	a2, a11, 8
400d333c:	2289      	s32i.n	a8, a2, 8
400d333e:	f01d      	retw.n

400d3340 <find_desc_for_int>:
400d3340:	004136        	entry	a1, 32
400d3343:	f40d81        	l32r	a8, 400d0378 <_image_irom_vaddr+0x358> (3ffc1dd4 <vector_desc_head>)
400d3346:	0888      	l32i.n	a8, a8, 0
400d3348:	000486        	j	400d335e <find_desc_for_int+0x1e>
400d334b:	00          	.byte 00
400d334c:	0898      	l32i.n	a9, a8, 0
400d334e:	059090        	extui	a9, a9, 16, 1
400d3351:	079937        	bne	a9, a3, 400d335c <find_desc_for_int+0x1c>
400d3354:	0898      	l32i.n	a9, a8, 0
400d3356:	459190        	extui	a9, a9, 17, 5
400d3359:	041927        	beq	a9, a2, 400d3361 <find_desc_for_int+0x21>
400d335c:	2888      	l32i.n	a8, a8, 8
400d335e:	fea856        	bnez	a8, 400d334c <find_desc_for_int+0xc>
400d3361:	082d      	mov.n	a2, a8
400d3363:	f01d      	retw.n
400d3365:	000000        	ill

400d3368 <find_desc_for_source>:
400d3368:	004136        	entry	a1, 32
400d336b:	f40381        	l32r	a8, 400d0378 <_image_irom_vaddr+0x358> (3ffc1dd4 <vector_desc_head>)
400d336e:	0898      	l32i.n	a9, a8, 0
400d3370:	0013c6        	j	400d33c3 <find_desc_for_source+0x5b>
400d3373:	00          	.byte 00
400d3374:	009982        	l16si	a8, a9, 0
400d3377:	4a0c      	movi.n	a10, 4
400d3379:	1088a0        	and	a8, a8, a10
400d337c:	238880        	sext	a8, a8, 15
400d337f:	58dc      	bnez.n	a8, 400d3398 <find_desc_for_source+0x30>
400d3381:	0988      	l32i.n	a8, a9, 0
400d3383:	1188e0        	slli	a8, a8, 2
400d3386:	318880        	srai	a8, a8, 24
400d3389:	349827        	bne	a8, a2, 400d33c1 <find_desc_for_source+0x59>
400d338c:	0988      	l32i.n	a8, a9, 0
400d338e:	058080        	extui	a8, a8, 16, 1
400d3391:	2c9837        	bne	a8, a3, 400d33c1 <find_desc_for_source+0x59>
400d3394:	000b86        	j	400d33c6 <find_desc_for_source+0x5e>
400d3397:	00          	.byte 00
400d3398:	0988      	l32i.n	a8, a9, 0
400d339a:	058080        	extui	a8, a8, 16, 1
400d339d:	209837        	bne	a8, a3, 400d33c1 <find_desc_for_source+0x59>
400d33a0:	19a8      	l32i.n	a10, a9, 4
400d33a2:	0003c6        	j	400d33b5 <find_desc_for_source+0x4d>
400d33a5:	0a88      	l32i.n	a8, a10, 0
400d33a7:	118890        	slli	a8, a8, 7
400d33aa:	238880        	sext	a8, a8, 15
400d33ad:	218880        	srai	a8, a8, 8
400d33b0:	091827        	beq	a8, a2, 400d33bd <find_desc_for_source+0x55>
400d33b3:	5aa8      	l32i.n	a10, a10, 20
400d33b5:	feca56        	bnez	a10, 400d33a5 <find_desc_for_source+0x3d>
400d33b8:	080c      	movi.n	a8, 0
400d33ba:	000046        	j	400d33bf <find_desc_for_source+0x57>
400d33bd:	180c      	movi.n	a8, 1
400d33bf:	38cc      	bnez.n	a8, 400d33c6 <find_desc_for_source+0x5e>
400d33c1:	2998      	l32i.n	a9, a9, 8
400d33c3:	fad956        	bnez	a9, 400d3374 <find_desc_for_source+0xc>
400d33c6:	092d      	mov.n	a2, a9
400d33c8:	f01d      	retw.n
	...

400d33cc <intr_has_handler>:
400d33cc:	004136        	entry	a1, 32
400d33cf:	223a      	add.n	a2, a2, a3
400d33d1:	f3ea81        	l32r	a8, 400d037c <_image_irom_vaddr+0x35c> (3ffc1dd8 <intr_alloc_table>)
400d33d4:	b02280        	addx8	a2, a2, a8
400d33d7:	0288      	l32i.n	a8, a2, 0
400d33d9:	f3e921        	l32r	a2, 400d0380 <_image_irom_vaddr+0x360> (400d33e8 <default_intr_handler>)
400d33dc:	c08820        	sub	a8, a8, a2
400d33df:	120c      	movi.n	a2, 1
400d33e1:	090c      	movi.n	a9, 0
400d33e3:	832980        	moveqz	a2, a9, a8
400d33e6:	f01d      	retw.n

400d33e8 <default_intr_handler>:
400d33e8:	004136        	entry	a1, 32
400d33eb:	02bd      	mov.n	a11, a2
400d33ed:	03ebc0        	rsr.prid	a12
400d33f0:	04cdc0        	extui	a12, a12, 13, 1
400d33f3:	f3e4a1        	l32r	a10, 400d0384 <_image_irom_vaddr+0x364> (3f404224 <interrupt_descriptor_table+0x260>)
400d33f6:	b0dca5        	call8	400841c0 <printk>
400d33f9:	f01d      	retw.n
	...

400d33fc <get_desc_for_int>:
400d33fc:	004136        	entry	a1, 32
400d33ff:	03bd      	mov.n	a11, a3
400d3401:	02ad      	mov.n	a10, a2
400d3403:	fff3e5        	call8	400d3340 <find_desc_for_int>
400d3406:	0a4d      	mov.n	a4, a10
400d3408:	038a56        	bnez	a10, 400d3444 <get_desc_for_int+0x48>
400d340b:	ca0c      	movi.n	a10, 12
400d340d:	ffc4e5        	call8	400d305c <__wrap_k_malloc>
400d3410:	0a4d      	mov.n	a4, a10
400d3412:	eaac      	beqz.n	a10, 400d3444 <get_desc_for_int+0x48>
400d3414:	cc0c      	movi.n	a12, 12
400d3416:	0b0c      	movi.n	a11, 0
400d3418:	b0ea25        	call8	400842bc <memset>
400d341b:	442020        	extui	a2, a2, 0, 5
400d341e:	0122f0        	slli	a2, a2, 17
400d3421:	0488      	l32i.n	a8, a4, 0
400d3423:	f3d991        	l32r	a9, 400d0388 <_image_irom_vaddr+0x368> (ffc1ffff <_rtc_bss_end+0xafc1ffff>)
400d3426:	108890        	and	a8, a8, a9
400d3429:	202820        	or	a2, a8, a2
400d342c:	0429      	s32i.n	a2, a4, 0
400d342e:	043030        	extui	a3, a3, 0, 1
400d3431:	113300        	slli	a3, a3, 16
400d3434:	f32681        	l32r	a8, 400d00cc <_image_irom_vaddr+0xac> (fffeffff <_rtc_bss_end+0xaffeffff>)
400d3437:	102280        	and	a2, a2, a8
400d343a:	202230        	or	a2, a2, a3
400d343d:	0429      	s32i.n	a2, a4, 0
400d343f:	04ad      	mov.n	a10, a4
400d3441:	ffeae5        	call8	400d32f0 <insert_vector_desc>
400d3444:	042d      	mov.n	a2, a4
400d3446:	f01d      	retw.n

400d3448 <is_vect_desc_usable>:
400d3448:	004136        	entry	a1, 32
400d344b:	0268      	l32i.n	a6, a2, 0
400d344d:	456160        	extui	a6, a6, 17, 5
400d3450:	04bd      	mov.n	a11, a4
400d3452:	06ad      	mov.n	a10, a6
400d3454:	ffb565        	call8	400d2fac <interrupt_controller_hal_desc_flags>
400d3457:	021a66        	bnei	a10, 1, 400d345d <is_vect_desc_usable+0x15>
400d345a:	001ec6        	j	400d34d9 <is_vect_desc_usable+0x91>
400d345d:	052a66        	bnei	a10, 2, 400d3466 <is_vect_desc_usable+0x1e>
400d3460:	020566        	bnei	a5, -1, 400d3466 <is_vect_desc_usable+0x1e>
400d3463:	001dc6        	j	400d34de <is_vect_desc_usable+0x96>
400d3466:	06ad      	mov.n	a10, a6
400d3468:	ffb2e5        	call8	400d2f98 <interrupt_controller_hal_desc_level>
400d346b:	7553a7        	bbc	a3, a10, 400d34e4 <is_vect_desc_usable+0x9c>
400d346e:	00a252        	movi	a5, 0x200
400d3471:	105350        	and	a5, a3, a5
400d3474:	008516        	beqz	a5, 400d3480 <is_vect_desc_usable+0x38>
400d3477:	20a660        	or	a10, a6, a6
400d347a:	ffb0a5        	call8	400d2f84 <interrupt_controller_hal_desc_type>
400d347d:	068a16        	beqz	a10, 400d34e9 <is_vect_desc_usable+0xa1>
400d3480:	007556        	bnez	a5, 400d348b <is_vect_desc_usable+0x43>
400d3483:	06ad      	mov.n	a10, a6
400d3485:	ffafe5        	call8	400d2f84 <interrupt_controller_hal_desc_type>
400d3488:	621a26        	beqi	a10, 1, 400d34ee <is_vect_desc_usable+0xa6>
400d348b:	001282        	l16ui	a8, a2, 0
400d348e:	235880        	sext	a5, a8, 15
400d3491:	5ee807        	bbsi	a8, 0, 400d34f3 <is_vect_desc_usable+0xab>
400d3494:	820c      	movi.n	a2, 8
400d3496:	102520        	and	a2, a5, a2
400d3499:	232280        	sext	a2, a2, 15
400d349c:	058256        	bnez	a2, 400d34f8 <is_vect_desc_usable+0xb0>
400d349f:	420c      	movi.n	a2, 4
400d34a1:	105520        	and	a5, a5, a2
400d34a4:	235580        	sext	a5, a5, 15
400d34a7:	d59c      	beqz.n	a5, 400d34c8 <is_vect_desc_usable+0x80>
400d34a9:	506387        	bbci	a3, 8, 400d34fd <is_vect_desc_usable+0xb5>
400d34ac:	00a422        	movi	a2, 0x400
400d34af:	103320        	and	a3, a3, a2
400d34b2:	120c      	movi.n	a2, 1
400d34b4:	040c      	movi.n	a4, 0
400d34b6:	832430        	moveqz	a2, a4, a3
400d34b9:	742020        	extui	a2, a2, 0, 8
400d34bc:	048180        	extui	a8, a8, 1, 1
400d34bf:	3f9287        	bne	a2, a8, 400d3502 <is_vect_desc_usable+0xba>
400d34c2:	120c      	movi.n	a2, 1
400d34c4:	001086        	j	400d350a <is_vect_desc_usable+0xc2>
400d34c7:	00          	.byte 00
400d34c8:	20b440        	or	a11, a4, a4
400d34cb:	20a660        	or	a10, a6, a6
400d34ce:	ffefe5        	call8	400d33cc <intr_has_handler>
400d34d1:	033a56        	bnez	a10, 400d3508 <is_vect_desc_usable+0xc0>
400d34d4:	120c      	movi.n	a2, 1
400d34d6:	000c06        	j	400d350a <is_vect_desc_usable+0xc2>
400d34d9:	020c      	movi.n	a2, 0
400d34db:	000ac6        	j	400d350a <is_vect_desc_usable+0xc2>
400d34de:	020c      	movi.n	a2, 0
400d34e0:	000986        	j	400d350a <is_vect_desc_usable+0xc2>
400d34e3:	00          	.byte 00
400d34e4:	020c      	movi.n	a2, 0
400d34e6:	000806        	j	400d350a <is_vect_desc_usable+0xc2>
400d34e9:	020c      	movi.n	a2, 0
400d34eb:	0006c6        	j	400d350a <is_vect_desc_usable+0xc2>
400d34ee:	020c      	movi.n	a2, 0
400d34f0:	000586        	j	400d350a <is_vect_desc_usable+0xc2>
400d34f3:	020c      	movi.n	a2, 0
400d34f5:	000446        	j	400d350a <is_vect_desc_usable+0xc2>
400d34f8:	020c      	movi.n	a2, 0
400d34fa:	000306        	j	400d350a <is_vect_desc_usable+0xc2>
400d34fd:	020c      	movi.n	a2, 0
400d34ff:	0001c6        	j	400d350a <is_vect_desc_usable+0xc2>
400d3502:	020c      	movi.n	a2, 0
400d3504:	000086        	j	400d350a <is_vect_desc_usable+0xc2>
400d3507:	00          	.byte 00
400d3508:	020c      	movi.n	a2, 0
400d350a:	f01d      	retw.n

400d350c <get_available_int>:
400d350c:	008136        	entry	a1, 64
400d350f:	cc0c      	movi.n	a12, 12
400d3511:	0b0c      	movi.n	a11, 0
400d3513:	20a110        	or	a10, a1, a1
400d3516:	b0da65        	call8	400842bc <memset>
400d3519:	fea062        	movi	a6, 254
400d351c:	048267        	bany	a2, a6, 400d3524 <get_available_int+0x18>
400d351f:	e60c      	movi.n	a6, 14
400d3521:	202260        	or	a2, a2, a6
400d3524:	03bd      	mov.n	a11, a3
400d3526:	05ad      	mov.n	a10, a5
400d3528:	ffe3e5        	call8	400d3368 <find_desc_for_source>
400d352b:	0a5d      	mov.n	a5, a10
400d352d:	3abc      	beqz.n	a10, 400d3564 <get_available_int+0x58>
400d352f:	070426        	beqi	a4, -1, 400d353a <get_available_int+0x2e>
400d3532:	0a68      	l32i.n	a6, a10, 0
400d3534:	456160        	extui	a6, a6, 17, 5
400d3537:	199647        	bne	a6, a4, 400d3554 <get_available_int+0x48>
400d353a:	20d440        	or	a13, a4, a4
400d353d:	20c330        	or	a12, a3, a3
400d3540:	20b220        	or	a11, a2, a2
400d3543:	05ad      	mov.n	a10, a5
400d3545:	fff025        	call8	400d3448 <is_vect_desc_usable>
400d3548:	0a9c      	beqz.n	a10, 400d355c <get_available_int+0x50>
400d354a:	0528      	l32i.n	a2, a5, 0
400d354c:	452120        	extui	a2, a2, 17, 5
400d354f:	4129      	s32i.n	a2, a1, 16
400d3551:	0041c6        	j	400d365c <get_available_int+0x150>
400d3554:	f27c      	movi.n	a2, -1
400d3556:	4129      	s32i.n	a2, a1, 16
400d3558:	004006        	j	400d365c <get_available_int+0x150>
400d355b:	00          	.byte 00
400d355c:	f57c      	movi.n	a5, -1
400d355e:	4159      	s32i.n	a5, a1, 16
400d3560:	003e06        	j	400d365c <get_available_int+0x150>
400d3563:	00          	.byte 00
400d3564:	020466        	bnei	a4, -1, 400d356a <get_available_int+0x5e>
400d3567:	003786        	j	400d3649 <get_available_int+0x13d>
400d356a:	03bd      	mov.n	a11, a3
400d356c:	04ad      	mov.n	a10, a4
400d356e:	ffdd25        	call8	400d3340 <find_desc_for_int>
400d3571:	0a5d      	mov.n	a5, a10
400d3573:	3adc      	bnez.n	a10, 400d358a <get_available_int+0x7e>
400d3575:	446040        	extui	a6, a4, 0, 5
400d3578:	0166f0        	slli	a6, a6, 17
400d357b:	0158      	l32i.n	a5, a1, 0
400d357d:	f38271        	l32r	a7, 400d0388 <_image_irom_vaddr+0x368> (ffc1ffff <_rtc_bss_end+0xafc1ffff>)
400d3580:	105570        	and	a5, a5, a7
400d3583:	205560        	or	a5, a5, a6
400d3586:	0159      	s32i.n	a5, a1, 0
400d3588:	015d      	mov.n	a5, a1
400d358a:	20d440        	or	a13, a4, a4
400d358d:	20c330        	or	a12, a3, a3
400d3590:	20b220        	or	a11, a2, a2
400d3593:	05ad      	mov.n	a10, a5
400d3595:	ffeb25        	call8	400d3448 <is_vect_desc_usable>
400d3598:	8a8c      	beqz.n	a10, 400d35a4 <get_available_int+0x98>
400d359a:	0528      	l32i.n	a2, a5, 0
400d359c:	452120        	extui	a2, a2, 17, 5
400d359f:	4129      	s32i.n	a2, a1, 16
400d35a1:	002dc6        	j	400d365c <get_available_int+0x150>
400d35a4:	f67c      	movi.n	a6, -1
400d35a6:	4169      	s32i.n	a6, a1, 16
400d35a8:	002c06        	j	400d365c <get_available_int+0x150>
400d35ab:	00          	.byte 00
400d35ac:	03bd      	mov.n	a11, a3
400d35ae:	05ad      	mov.n	a10, a5
400d35b0:	ffd8e5        	call8	400d3340 <find_desc_for_int>
400d35b3:	0a6d      	mov.n	a6, a10
400d35b5:	5adc      	bnez.n	a10, 400d35ce <get_available_int+0xc2>
400d35b7:	448050        	extui	a8, a5, 0, 5
400d35ba:	0188f0        	slli	a8, a8, 17
400d35bd:	0168      	l32i.n	a6, a1, 0
400d35bf:	f37291        	l32r	a9, 400d0388 <_image_irom_vaddr+0x368> (ffc1ffff <_rtc_bss_end+0xafc1ffff>)
400d35c2:	106690        	and	a6, a6, a9
400d35c5:	206680        	or	a6, a6, a8
400d35c8:	006162        	s32i	a6, a1, 0
400d35cb:	206110        	or	a6, a1, a1
400d35ce:	20d440        	or	a13, a4, a4
400d35d1:	20c330        	or	a12, a3, a3
400d35d4:	20b220        	or	a11, a2, a2
400d35d7:	06ad      	mov.n	a10, a6
400d35d9:	ffe6e5        	call8	400d3448 <is_vect_desc_usable>
400d35dc:	064a16        	beqz	a10, 400d3644 <get_available_int+0x138>
400d35df:	476287        	bbci	a2, 8, 400d362a <get_available_int+0x11e>
400d35e2:	009682        	l16si	a8, a6, 0
400d35e5:	490c      	movi.n	a9, 4
400d35e7:	108890        	and	a8, a8, a9
400d35ea:	238880        	sext	a8, a8, 15
400d35ed:	88ac      	beqz.n	a8, 400d3619 <get_available_int+0x10d>
400d35ef:	1688      	l32i.n	a8, a6, 4
400d35f1:	060c      	movi.n	a6, 0
400d35f3:	0000c6        	j	400d35fa <get_available_int+0xee>
400d35f6:	661b      	addi.n	a6, a6, 1
400d35f8:	5888      	l32i.n	a8, a8, 20
400d35fa:	ff8856        	bnez	a8, 400d35f6 <get_available_int+0xea>
400d35fd:	5188      	l32i.n	a8, a1, 20
400d35ff:	082687        	blt	a6, a8, 400d360b <get_available_int+0xff>
400d3602:	20a550        	or	a10, a5, a5
400d3605:	ff9925        	call8	400d2f98 <interrupt_controller_hal_desc_level>
400d3608:	38aa77        	bge	a10, a7, 400d3644 <get_available_int+0x138>
400d360b:	05ad      	mov.n	a10, a5
400d360d:	ff98a5        	call8	400d2f98 <interrupt_controller_hal_desc_level>
400d3610:	0a7d      	mov.n	a7, a10
400d3612:	5169      	s32i.n	a6, a1, 20
400d3614:	4159      	s32i.n	a5, a1, 16
400d3616:	000a86        	j	400d3644 <get_available_int+0x138>
400d3619:	4168      	l32i.n	a6, a1, 16
400d361b:	250666        	bnei	a6, -1, 400d3644 <get_available_int+0x138>
400d361e:	20a550        	or	a10, a5, a5
400d3621:	ff9765        	call8	400d2f98 <interrupt_controller_hal_desc_level>
400d3624:	102a77        	blt	a10, a7, 400d3638 <get_available_int+0x12c>
400d3627:	000646        	j	400d3644 <get_available_int+0x138>
400d362a:	05ad      	mov.n	a10, a5
400d362c:	ff96a5        	call8	400d2f98 <interrupt_controller_hal_desc_level>
400d362f:	0d2a77        	blt	a10, a7, 400d3640 <get_available_int+0x134>
400d3632:	000386        	j	400d3644 <get_available_int+0x138>
400d3635:	00          	.byte 00
400d3636:	00          	.byte 00
400d3637:	00          	.byte 00
400d3638:	0a7d      	mov.n	a7, a10
400d363a:	4159      	s32i.n	a5, a1, 16
400d363c:	000106        	j	400d3644 <get_available_int+0x138>
400d363f:	00          	.byte 00
400d3640:	0a7d      	mov.n	a7, a10
400d3642:	4159      	s32i.n	a5, a1, 16
400d3644:	551b      	addi.n	a5, a5, 1
400d3646:	000286        	j	400d3654 <get_available_int+0x148>
400d3649:	4149      	s32i.n	a4, a1, 16
400d364b:	f28951        	l32r	a5, 400d0070 <_image_irom_vaddr+0x50> (7fffffff <_rtc_bss_end+0x2fffffff>)
400d364e:	5159      	s32i.n	a5, a1, 20
400d3650:	970c      	movi.n	a7, 9
400d3652:	050c      	movi.n	a5, 0
400d3654:	f61c      	movi.n	a6, 31
400d3656:	022657        	blt	a6, a5, 400d365c <get_available_int+0x150>
400d3659:	ffd3c6        	j	400d35ac <get_available_int+0xa0>
400d365c:	4128      	l32i.n	a2, a1, 16
400d365e:	f01d      	retw.n

400d3660 <set_interrupt_handler>:
400d3660:	004136        	entry	a1, 32
400d3663:	20a220        	or	a10, a2, a2
400d3666:	20c330        	or	a12, a3, a3
400d3669:	20d440        	or	a13, a4, a4
400d366c:	150c      	movi.n	a5, 1
400d366e:	401200        	ssl	a2
400d3671:	a15500        	sll	a5, a5
400d3674:	03e490        	rsr.intenable	a9
400d3677:	f87c      	movi.n	a8, -1
400d3679:	308850        	xor	a8, a8, a5
400d367c:	108890        	and	a8, a8, a9
400d367f:	13e480        	wsr.intenable	a8
400d3682:	002010        	rsync
400d3685:	f33d81        	l32r	a8, 400d037c <_image_irom_vaddr+0x35c> (3ffc1dd8 <intr_alloc_table>)
400d3688:	b08280        	addx8	a8, a2, a8
400d368b:	0839      	s32i.n	a3, a8, 0
400d368d:	0e0c      	movi.n	a14, 0
400d368f:	02bd      	mov.n	a11, a2
400d3691:	ffa025        	call8	400d3094 <arch_irq_connect_dynamic>
400d3694:	03e480        	rsr.intenable	a8
400d3697:	205580        	or	a5, a5, a8
400d369a:	13e450        	wsr.intenable	a5
400d369d:	002010        	rsync
400d36a0:	f01d      	retw.n
	...

400d36a4 <esp_intr_initialize>:
400d36a4:	004136        	entry	a1, 32
400d36a7:	080c      	movi.n	a8, 0
400d36a9:	000386        	j	400d36bb <esp_intr_initialize+0x17>
400d36ac:	f33491        	l32r	a9, 400d037c <_image_irom_vaddr+0x35c> (3ffc1dd8 <intr_alloc_table>)
400d36af:	b09890        	addx8	a9, a8, a9
400d36b2:	f333a1        	l32r	a10, 400d0380 <_image_irom_vaddr+0x360> (400d33e8 <default_intr_handler>)
400d36b5:	09a9      	s32i.n	a10, a9, 0
400d36b7:	1989      	s32i.n	a8, a9, 4
400d36b9:	881b      	addi.n	a8, a8, 1
400d36bb:	f91c      	movi.n	a9, 31
400d36bd:	ebb987        	bgeu	a9, a8, 400d36ac <esp_intr_initialize+0x8>
400d36c0:	f01d      	retw.n
	...

400d36c4 <esp_intr_alloc_intrstatus>:
400d36c4:	008136        	entry	a1, 64
400d36c7:	4179      	s32i.n	a7, a1, 16
400d36c9:	026142        	s32i	a4, a1, 8
400d36cc:	036152        	s32i	a5, a1, 12
400d36cf:	00a342        	movi	a4, 0x300
400d36d2:	105340        	and	a5, a3, a4
400d36d5:	029547        	bne	a5, a4, 400d36db <esp_intr_alloc_intrstatus+0x17>
400d36d8:	009246        	j	400d3925 <esp_intr_alloc_intrstatus+0x261>
400d36db:	f0a042        	movi	a4, 240
400d36de:	020347        	bnone	a3, a4, 400d36e4 <esp_intr_alloc_intrstatus+0x20>
400d36e1:	245656        	bnez	a6, 400d392a <esp_intr_alloc_intrstatus+0x266>
400d36e4:	00a152        	movi	a5, 0x100
400d36e7:	105350        	and	a5, a3, a5
400d36ea:	f58c      	beqz.n	a5, 400d36fd <esp_intr_alloc_intrstatus+0x39>
400d36ec:	140c      	movi.n	a4, 1
400d36ee:	00a072        	movi	a7, 0
400d36f1:	934760        	movnez	a4, a7, a6
400d36f4:	057f20        	extui	a7, a2, 31, 1
400d36f7:	204470        	or	a4, a4, a7
400d36fa:	232456        	bnez	a4, 400d3930 <esp_intr_alloc_intrstatus+0x26c>
400d36fd:	140c      	movi.n	a4, 1
400d36ff:	070c      	movi.n	a7, 0
400d3701:	078d      	mov.n	a8, a7
400d3703:	2198      	l32i.n	a9, a1, 8
400d3705:	938490        	movnez	a8, a4, a9
400d3708:	3198      	l32i.n	a9, a1, 12
400d370a:	934790        	movnez	a4, a7, a9
400d370d:	020487        	bnone	a4, a8, 400d3713 <esp_intr_alloc_intrstatus+0x4f>
400d3710:	008846        	j	400d3935 <esp_intr_alloc_intrstatus+0x271>
400d3713:	0d63a7        	bbci	a3, 10, 400d3724 <esp_intr_alloc_intrstatus+0x60>
400d3716:	f31d41        	l32r	a4, 400d038c <_image_irom_vaddr+0x36c> (bff3e000 <_rtc_bss_end+0x6ff3e000>)
400d3719:	464a      	add.n	a4, a6, a4
400d371b:	f31d71        	l32r	a7, 400d0390 <_image_irom_vaddr+0x370> (ff3dfff <CONFIG_SYS_CLOCK_HW_CYCLES_PER_SEC+0x1a5c3ff>)
400d371e:	023747        	bltu	a7, a4, 400d3724 <esp_intr_alloc_intrstatus+0x60>
400d3721:	008546        	j	400d393a <esp_intr_alloc_intrstatus+0x276>
400d3724:	fea042        	movi	a4, 254
400d3727:	0e8347        	bany	a3, a4, 400d3739 <esp_intr_alloc_intrstatus+0x75>
400d372a:	658c      	beqz.n	a5, 400d3734 <esp_intr_alloc_intrstatus+0x70>
400d372c:	240c      	movi.n	a4, 2
400d372e:	203340        	or	a3, a3, a4
400d3731:	000106        	j	400d3739 <esp_intr_alloc_intrstatus+0x75>
400d3734:	e40c      	movi.n	a4, 14
400d3736:	203340        	or	a3, a3, a4
400d3739:	426b      	addi.n	a4, a2, 6
400d373b:	0a64f6        	bgeui	a4, 6, 400d3749 <esp_intr_alloc_intrstatus+0x85>
400d373e:	f31551        	l32r	a5, 400d0394 <_image_irom_vaddr+0x374> (3f404248 <interrupt_descriptor_table+0x284>)
400d3741:	a04450        	addx4	a4, a4, a5
400d3744:	0448      	l32i.n	a4, a4, 0
400d3746:	0004a0        	jx	a4
400d3749:	f47c      	movi.n	a4, -1
400d374b:	0006c6        	j	400d376a <esp_intr_alloc_intrstatus+0xa6>
400d374e:	f40c      	movi.n	a4, 15
400d3750:	000586        	j	400d376a <esp_intr_alloc_intrstatus+0xa6>
400d3753:	041c      	movi.n	a4, 16
400d3755:	000446        	j	400d376a <esp_intr_alloc_intrstatus+0xa6>
400d3758:	740c      	movi.n	a4, 7
400d375a:	000306        	j	400d376a <esp_intr_alloc_intrstatus+0xa6>
400d375d:	d41c      	movi.n	a4, 29
400d375f:	0001c6        	j	400d376a <esp_intr_alloc_intrstatus+0xa6>
400d3762:	b40c      	movi.n	a4, 11
400d3764:	000086        	j	400d376a <esp_intr_alloc_intrstatus+0xa6>
400d3767:	06a042        	movi	a4, 6
400d376a:	8a0c      	movi.n	a10, 8
400d376c:	ff8ee5        	call8	400d305c <__wrap_k_malloc>
400d376f:	0a7d      	mov.n	a7, a10
400d3771:	1caa16        	beqz	a10, 400d393f <esp_intr_alloc_intrstatus+0x27b>
400d3774:	006380        	rsil	a8, 3
400d3777:	f30851        	l32r	a5, 400d0398 <_image_irom_vaddr+0x378> (3ffc1ed8 <esp_intc_csec>)
400d377a:	0589      	s32i.n	a8, a5, 0
400d377c:	03eb50        	rsr.prid	a5
400d377f:	045d50        	extui	a5, a5, 13, 1
400d3782:	0159      	s32i.n	a5, a1, 0
400d3784:	02dd      	mov.n	a13, a2
400d3786:	04cd      	mov.n	a12, a4
400d3788:	05bd      	mov.n	a11, a5
400d378a:	03ad      	mov.n	a10, a3
400d378c:	ffd7e5        	call8	400d350c <get_available_int>
400d378f:	0a5d      	mov.n	a5, a10
400d3791:	140a66        	bnei	a10, -1, 400d37a9 <esp_intr_alloc_intrstatus+0xe5>
400d3794:	f30121        	l32r	a2, 400d0398 <_image_irom_vaddr+0x378> (3ffc1ed8 <esp_intc_csec>)
400d3797:	0228      	l32i.n	a2, a2, 0
400d3799:	13e620        	wsr.ps	a2
400d379c:	002010        	rsync
400d379f:	07ad      	mov.n	a10, a7
400d37a1:	af6025        	call8	40082da4 <k_free>
400d37a4:	d26c      	movi.n	a2, -19
400d37a6:	0065c6        	j	400d3941 <esp_intr_alloc_intrstatus+0x27d>
400d37a9:	0021b2        	l32i	a11, a1, 0
400d37ac:	ffc4e5        	call8	400d33fc <get_desc_for_int>
400d37af:	204aa0        	or	a4, a10, a10
400d37b2:	3adc      	bnez.n	a10, 400d37c9 <esp_intr_alloc_intrstatus+0x105>
400d37b4:	f2f921        	l32r	a2, 400d0398 <_image_irom_vaddr+0x378> (3ffc1ed8 <esp_intc_csec>)
400d37b7:	0228      	l32i.n	a2, a2, 0
400d37b9:	13e620        	wsr.ps	a2
400d37bc:	002010        	rsync
400d37bf:	07ad      	mov.n	a10, a7
400d37c1:	af5e25        	call8	40082da4 <k_free>
400d37c4:	427c      	movi.n	a2, -12
400d37c6:	005dc6        	j	400d3941 <esp_intr_alloc_intrstatus+0x27d>
400d37c9:	02e387        	bbsi	a3, 8, 400d37cf <esp_intr_alloc_intrstatus+0x10b>
400d37cc:	001e46        	j	400d3849 <esp_intr_alloc_intrstatus+0x185>
400d37cf:	8a1c      	movi.n	a10, 24
400d37d1:	ff88a5        	call8	400d305c <__wrap_k_malloc>
400d37d4:	11a9      	s32i.n	a10, a1, 4
400d37d6:	3adc      	bnez.n	a10, 400d37ed <esp_intr_alloc_intrstatus+0x129>
400d37d8:	f2f021        	l32r	a2, 400d0398 <_image_irom_vaddr+0x378> (3ffc1ed8 <esp_intc_csec>)
400d37db:	0228      	l32i.n	a2, a2, 0
400d37dd:	13e620        	wsr.ps	a2
400d37e0:	002010        	rsync
400d37e3:	07ad      	mov.n	a10, a7
400d37e5:	af5be5        	call8	40082da4 <k_free>
400d37e8:	427c      	movi.n	a2, -12
400d37ea:	0054c6        	j	400d3941 <esp_intr_alloc_intrstatus+0x27d>
400d37ed:	18a0c2        	movi	a12, 24
400d37f0:	00a0b2        	movi	a11, 0
400d37f3:	11a8      	l32i.n	a10, a1, 4
400d37f5:	b0ac65        	call8	400842bc <memset>
400d37f8:	2198      	l32i.n	a9, a1, 8
400d37fa:	1188      	l32i.n	a8, a1, 4
400d37fc:	1899      	s32i.n	a9, a8, 4
400d37fe:	3198      	l32i.n	a9, a1, 12
400d3800:	2899      	s32i.n	a9, a8, 8
400d3802:	3869      	s32i.n	a6, a8, 12
400d3804:	4168      	l32i.n	a6, a1, 16
400d3806:	4869      	s32i.n	a6, a8, 16
400d3808:	1468      	l32i.n	a6, a4, 4
400d380a:	5869      	s32i.n	a6, a8, 20
400d380c:	748020        	extui	a8, a2, 0, 8
400d380f:	888a      	add.n	a8, a8, a8
400d3811:	1198      	l32i.n	a9, a1, 4
400d3813:	001962        	l16ui	a6, a9, 0
400d3816:	01ae92        	movi	a9, 0xfffffe01
400d3819:	106690        	and	a6, a6, a9
400d381c:	206680        	or	a6, a6, a8
400d381f:	1188      	l32i.n	a8, a1, 4
400d3821:	005862        	s16i	a6, a8, 0
400d3824:	e87c      	movi.n	a8, -2
400d3826:	106680        	and	a6, a6, a8
400d3829:	1198      	l32i.n	a9, a1, 4
400d382b:	005962        	s16i	a6, a9, 0
400d382e:	1499      	s32i.n	a9, a4, 4
400d3830:	009462        	l16si	a6, a4, 0
400d3833:	480c      	movi.n	a8, 4
400d3835:	206680        	or	a6, a6, a8
400d3838:	005462        	s16i	a6, a4, 0
400d383b:	04cd      	mov.n	a12, a4
400d383d:	f2d7b1        	l32r	a11, 400d039c <_image_irom_vaddr+0x37c> (4008086c <shared_intr_isr>)
400d3840:	05ad      	mov.n	a10, a5
400d3842:	ffe1e5        	call8	400d3660 <set_interrupt_handler>
400d3845:	000dc6        	j	400d3880 <esp_intr_alloc_intrstatus+0x1bc>
400d3848:	00          	.byte 00
400d3849:	08a082        	movi	a8, 8
400d384c:	005a82        	s16i	a8, a10, 0
400d384f:	009616        	beqz	a6, 400d385c <esp_intr_alloc_intrstatus+0x198>
400d3852:	0421c2        	l32i	a12, a1, 16
400d3855:	06bd      	mov.n	a11, a6
400d3857:	05ad      	mov.n	a10, a5
400d3859:	ffe065        	call8	400d3660 <set_interrupt_handler>
400d385c:	0d6397        	bbci	a3, 9, 400d386d <esp_intr_alloc_intrstatus+0x1a9>
400d385f:	1a0c      	movi.n	a10, 1
400d3861:	401500        	ssl	a5
400d3864:	a1aa00        	sll	a10, a10
400d3867:	f2d081        	l32r	a8, 400d03a8 <_image_irom_vaddr+0x388> (4000c1ec <xthal_set_intclear>)
400d386a:	0008e0        	callx8	a8
400d386d:	748020        	extui	a8, a2, 0, 8
400d3870:	0188a0        	slli	a8, a8, 22
400d3873:	0468      	l32i.n	a6, a4, 0
400d3875:	f2ca91        	l32r	a9, 400d03a0 <_image_irom_vaddr+0x380> (c03fffff <_rtc_bss_end+0x703fffff>)
400d3878:	106690        	and	a6, a6, a9
400d387b:	206680        	or	a6, a6, a8
400d387e:	0469      	s32i.n	a6, a4, 0
400d3880:	2963a7        	bbci	a3, 10, 400d38ad <esp_intr_alloc_intrstatus+0x1e9>
400d3883:	009462        	l16si	a6, a4, 0
400d3886:	280c      	movi.n	a8, 2
400d3888:	206680        	or	a6, a6, a8
400d388b:	005462        	s16i	a6, a4, 0
400d388e:	f2c561        	l32r	a6, 400d03a4 <_image_irom_vaddr+0x384> (3ffc1dd0 <non_iram_int_mask>)
400d3891:	0188      	l32i.n	a8, a1, 0
400d3893:	a06860        	addx4	a6, a8, a6
400d3896:	0688      	l32i.n	a8, a6, 0
400d3898:	1a0c      	movi.n	a10, 1
400d389a:	401500        	ssl	a5
400d389d:	a1aa00        	sll	a10, a10
400d38a0:	f97c      	movi.n	a9, -1
400d38a2:	3099a0        	xor	a9, a9, a10
400d38a5:	108890        	and	a8, a8, a9
400d38a8:	0689      	s32i.n	a8, a6, 0
400d38aa:	000846        	j	400d38cf <esp_intr_alloc_intrstatus+0x20b>
400d38ad:	009462        	l16si	a6, a4, 0
400d38b0:	d87c      	movi.n	a8, -3
400d38b2:	106680        	and	a6, a6, a8
400d38b5:	005462        	s16i	a6, a4, 0
400d38b8:	f2bb61        	l32r	a6, 400d03a4 <_image_irom_vaddr+0x384> (3ffc1dd0 <non_iram_int_mask>)
400d38bb:	0198      	l32i.n	a9, a1, 0
400d38bd:	a06960        	addx4	a6, a9, a6
400d38c0:	0688      	l32i.n	a8, a6, 0
400d38c2:	190c      	movi.n	a9, 1
400d38c4:	401500        	ssl	a5
400d38c7:	a19900        	sll	a9, a9
400d38ca:	208890        	or	a8, a8, a9
400d38cd:	0689      	s32i.n	a8, a6, 0
400d38cf:	00b296        	bltz	a2, 400d38de <esp_intr_alloc_intrstatus+0x21a>
400d38d2:	05cd      	mov.n	a12, a5
400d38d4:	02bd      	mov.n	a11, a2
400d38d6:	01a8      	l32i.n	a10, a1, 0
400d38d8:	f2b581        	l32r	a8, 400d03ac <_image_irom_vaddr+0x38c> (4000681c <intr_matrix_set>)
400d38db:	0008e0        	callx8	a8
400d38de:	0749      	s32i.n	a4, a7, 0
400d38e0:	1428      	l32i.n	a2, a4, 4
400d38e2:	1729      	s32i.n	a2, a7, 4
400d38e4:	140c      	movi.n	a4, 1
400d38e6:	401500        	ssl	a5
400d38e9:	a14400        	sll	a4, a4
400d38ec:	03e420        	rsr.intenable	a2
400d38ef:	202240        	or	a2, a2, a4
400d38f2:	13e420        	wsr.intenable	a2
400d38f5:	002010        	rsync
400d38f8:	0463b7        	bbci	a3, 11, 400d3900 <esp_intr_alloc_intrstatus+0x23c>
400d38fb:	07ad      	mov.n	a10, a7
400d38fd:	acfae5        	call8	400808ac <esp_intr_disable>
400d3900:	f2a621        	l32r	a2, 400d0398 <_image_irom_vaddr+0x378> (3ffc1ed8 <esp_intc_csec>)
400d3903:	0228      	l32i.n	a2, a2, 0
400d3905:	13e620        	wsr.ps	a2
400d3908:	002010        	rsync
400d390b:	102122        	l32i	a2, a1, 64
400d390e:	628c      	beqz.n	a2, 400d3918 <esp_intr_alloc_intrstatus+0x254>
400d3910:	0279      	s32i.n	a7, a2, 0
400d3912:	020c      	movi.n	a2, 0
400d3914:	000a46        	j	400d3941 <esp_intr_alloc_intrstatus+0x27d>
400d3917:	00          	.byte 00
400d3918:	07ad      	mov.n	a10, a7
400d391a:	af48a5        	call8	40082da4 <k_free>
400d391d:	020c      	movi.n	a2, 0
400d391f:	000786        	j	400d3941 <esp_intr_alloc_intrstatus+0x27d>
400d3922:	00          	.byte 00
400d3923:	00          	.byte 00
400d3924:	00          	.byte 00
400d3925:	a26c      	movi.n	a2, -22
400d3927:	000586        	j	400d3941 <esp_intr_alloc_intrstatus+0x27d>
400d392a:	a26c      	movi.n	a2, -22
400d392c:	000446        	j	400d3941 <esp_intr_alloc_intrstatus+0x27d>
400d392f:	00          	.byte 00
400d3930:	a26c      	movi.n	a2, -22
400d3932:	0002c6        	j	400d3941 <esp_intr_alloc_intrstatus+0x27d>
400d3935:	a26c      	movi.n	a2, -22
400d3937:	000186        	j	400d3941 <esp_intr_alloc_intrstatus+0x27d>
400d393a:	a26c      	movi.n	a2, -22
400d393c:	000046        	j	400d3941 <esp_intr_alloc_intrstatus+0x27d>
400d393f:	427c      	movi.n	a2, -12
400d3941:	f01d      	retw.n
	...

400d3944 <esp_intr_alloc>:
400d3944:	006136        	entry	a1, 48
400d3947:	0169      	s32i.n	a6, a1, 0
400d3949:	05fd      	mov.n	a15, a5
400d394b:	04ed      	mov.n	a14, a4
400d394d:	0d0c      	movi.n	a13, 0
400d394f:	0dcd      	mov.n	a12, a13
400d3951:	03bd      	mov.n	a11, a3
400d3953:	02ad      	mov.n	a10, a2
400d3955:	ffd6e5        	call8	400d36c4 <esp_intr_alloc_intrstatus>
400d3958:	0a2d      	mov.n	a2, a10
400d395a:	f01d      	retw.n

400d395c <periph_ll_get_clk_en_mask>:
400d395c:	004136        	entry	a1, 32
400d395f:	082c      	movi.n	a8, 32
400d3961:	02b827        	bgeu	a8, a2, 400d3967 <periph_ll_get_clk_en_mask+0xb>
400d3964:	002e06        	j	400d3a20 <periph_ll_get_clk_en_mask+0xc4>
400d3967:	f29281        	l32r	a8, 400d03b0 <_image_irom_vaddr+0x390> (3f40426c <interrupt_descriptor_table+0x2a8>)
400d396a:	a02280        	addx4	a2, a2, a8
400d396d:	0228      	l32i.n	a2, a2, 0
400d396f:	0002a0        	jx	a2
400d3972:	f1c121        	l32r	a2, 400d0078 <_image_irom_vaddr+0x58> (800 <CONFIG_ISR_STACK_SIZE>)
400d3975:	002b86        	j	400d3a27 <periph_ll_get_clk_en_mask+0xcb>
400d3978:	022c      	movi.n	a2, 32
400d397a:	002a46        	j	400d3a27 <periph_ll_get_clk_en_mask+0xcb>
400d397d:	f1cd21        	l32r	a2, 400d00b4 <_image_irom_vaddr+0x94> (800000 <CONFIG_FLASH_SIZE+0x400000>)
400d3980:	0028c6        	j	400d3a27 <periph_ll_get_clk_en_mask+0xcb>
400d3983:	80a022        	movi	a2, 128
400d3986:	002746        	j	400d3a27 <periph_ll_get_clk_en_mask+0xcb>
400d3989:	f1de21        	l32r	a2, 400d0104 <_image_irom_vaddr+0xe4> (40000 <_image_irom_start+0x2670c>)
400d398c:	0025c6        	j	400d3a27 <periph_ll_get_clk_en_mask+0xcb>
400d398f:	021c      	movi.n	a2, 16
400d3991:	002486        	j	400d3a27 <periph_ll_get_clk_en_mask+0xcb>
400d3994:	f25d21        	l32r	a2, 400d0308 <_image_irom_vaddr+0x2e8> (200000 <_image_irom_start+0x1e670c>)
400d3997:	002306        	j	400d3a27 <periph_ll_get_clk_en_mask+0xcb>
400d399a:	f1b021        	l32r	a2, 400d005c <_image_irom_vaddr+0x3c> (2000 <CONFIG_HEAP_MEM_POOL_SIZE+0x1000>)
400d399d:	002186        	j	400d3a27 <periph_ll_get_clk_en_mask+0xcb>
400d39a0:	f1c821        	l32r	a2, 400d00c0 <_image_irom_vaddr+0xa0> (8000 <_image_irom_size+0x22b8>)
400d39a3:	002006        	j	400d3a27 <periph_ll_get_clk_en_mask+0xcb>
400d39a6:	f22621        	l32r	a2, 400d0240 <_image_irom_vaddr+0x220> (20000 <_image_irom_start+0x670c>)
400d39a9:	001e86        	j	400d3a27 <periph_ll_get_clk_en_mask+0xcb>
400d39ac:	f1c321        	l32r	a2, 400d00b8 <_image_irom_vaddr+0x98> (100000 <_image_irom_start+0xe670c>)
400d39af:	001d06        	j	400d3a27 <periph_ll_get_clk_en_mask+0xcb>
400d39b2:	00a122        	movi	a2, 0x100
400d39b5:	001b86        	j	400d3a27 <periph_ll_get_clk_en_mask+0xcb>
400d39b8:	f1af21        	l32r	a2, 400d0074 <_image_irom_vaddr+0x54> (1000 <CONFIG_HEAP_MEM_POOL_SIZE>)
400d39bb:	001a06        	j	400d3a27 <periph_ll_get_clk_en_mask+0xcb>
400d39be:	00a222        	movi	a2, 0x200
400d39c1:	001886        	j	400d3a27 <periph_ll_get_clk_en_mask+0xcb>
400d39c4:	00a422        	movi	a2, 0x400
400d39c7:	001706        	j	400d3a27 <periph_ll_get_clk_en_mask+0xcb>
400d39ca:	220c      	movi.n	a2, 2
400d39cc:	0015c6        	j	400d3a27 <periph_ll_get_clk_en_mask+0xcb>
400d39cf:	024c      	movi.n	a2, 64
400d39d1:	001486        	j	400d3a27 <periph_ll_get_clk_en_mask+0xcb>
400d39d4:	f24e21        	l32r	a2, 400d030c <_image_irom_vaddr+0x2ec> (10000 <CONFIG_ESP_HEAP_MEM_POOL_REGION_1_SIZE+0x4000>)
400d39d7:	001306        	j	400d3a27 <periph_ll_get_clk_en_mask+0xcb>
400d39da:	f24d21        	l32r	a2, 400d0310 <_image_irom_vaddr+0x2f0> (400000 <CONFIG_FLASH_SIZE>)
400d39dd:	001186        	j	400d3a27 <periph_ll_get_clk_en_mask+0xcb>
400d39e0:	f19f21        	l32r	a2, 400d005c <_image_irom_vaddr+0x3c> (2000 <CONFIG_HEAP_MEM_POOL_SIZE+0x1000>)
400d39e3:	001006        	j	400d3a27 <periph_ll_get_clk_en_mask+0xcb>
400d39e6:	021c      	movi.n	a2, 16
400d39e8:	000ec6        	j	400d3a27 <periph_ll_get_clk_en_mask+0xcb>
400d39eb:	f1e721        	l32r	a2, 400d0188 <_image_irom_vaddr+0x168> (80000 <_image_irom_start+0x6670c>)
400d39ee:	000d46        	j	400d3a27 <periph_ll_get_clk_en_mask+0xcb>
400d39f1:	00          	.byte 00
400d39f2:	f1af21        	l32r	a2, 400d00b0 <_image_irom_vaddr+0x90> (4000 <CONFIG_COVERAGE_GCOV_HEAP_SIZE>)
400d39f5:	000b86        	j	400d3a27 <periph_ll_get_clk_en_mask+0xcb>
400d39f8:	f1b221        	l32r	a2, 400d00c0 <_image_irom_vaddr+0xa0> (8000 <_image_irom_size+0x22b8>)
400d39fb:	000a06        	j	400d3a27 <periph_ll_get_clk_en_mask+0xcb>
400d39fe:	06a422        	movi	a2, 0x406
400d3a01:	000886        	j	400d3a27 <periph_ll_get_clk_en_mask+0xcb>
400d3a04:	f24421        	l32r	a2, 400d0314 <_image_irom_vaddr+0x2f4> (30800 <_image_irom_start+0x16f0c>)
400d3a07:	000706        	j	400d3a27 <periph_ll_get_clk_en_mask+0xcb>
400d3a0a:	c9a322        	movi	a2, 0x3c9
400d3a0d:	000586        	j	400d3a27 <periph_ll_get_clk_en_mask+0xcb>
400d3a10:	f24221        	l32r	a2, 400d0318 <_image_irom_vaddr+0x2f8> (30000 <_image_irom_start+0x1670c>)
400d3a13:	000406        	j	400d3a27 <periph_ll_get_clk_en_mask+0xcb>
400d3a16:	120c      	movi.n	a2, 1
400d3a18:	0002c6        	j	400d3a27 <periph_ll_get_clk_en_mask+0xcb>
400d3a1b:	220c      	movi.n	a2, 2
400d3a1d:	000186        	j	400d3a27 <periph_ll_get_clk_en_mask+0xcb>
400d3a20:	020c      	movi.n	a2, 0
400d3a22:	000046        	j	400d3a27 <periph_ll_get_clk_en_mask+0xcb>
400d3a25:	420c      	movi.n	a2, 4
400d3a27:	f01d      	retw.n
400d3a29:	000000        	ill

400d3a2c <clock_control_esp32_get_status>:
400d3a2c:	004136        	entry	a1, 32
400d3a2f:	03ad      	mov.n	a10, a3
400d3a31:	d21c      	movi.n	a2, 29
400d3a33:	113237        	bltu	a2, a3, 400d3a48 <clock_control_esp32_get_status+0x1c>
400d3a36:	721c      	movi.n	a2, 23
400d3a38:	18b327        	bgeu	a3, a2, 400d3a54 <clock_control_esp32_get_status+0x28>
400d3a3b:	ecc322        	addi	a2, a3, -20
400d3a3e:	1a22b6        	bltui	a2, 2, 400d3a5c <clock_control_esp32_get_status+0x30>
400d3a41:	f23a21        	l32r	a2, 400d032c <_image_irom_vaddr+0x30c> (3ff000c0 <__font_entry_end+0xafb5c8>)
400d3a44:	0007c6        	j	400d3a67 <clock_control_esp32_get_status+0x3b>
400d3a47:	00          	.byte 00
400d3a48:	e2c322        	addi	a2, a3, -30
400d3a4b:	1532b6        	bltui	a2, 3, 400d3a64 <clock_control_esp32_get_status+0x38>
400d3a4e:	f23721        	l32r	a2, 400d032c <_image_irom_vaddr+0x30c> (3ff000c0 <__font_entry_end+0xafb5c8>)
400d3a51:	000486        	j	400d3a67 <clock_control_esp32_get_status+0x3b>
400d3a54:	f23521        	l32r	a2, 400d0328 <_image_irom_vaddr+0x308> (3ff000cc <__font_entry_end+0xafb5d4>)
400d3a57:	000306        	j	400d3a67 <clock_control_esp32_get_status+0x3b>
400d3a5a:	00          	.byte 00
400d3a5b:	00          	.byte 00
400d3a5c:	f23321        	l32r	a2, 400d0328 <_image_irom_vaddr+0x308> (3ff000cc <__font_entry_end+0xafb5d4>)
400d3a5f:	000106        	j	400d3a67 <clock_control_esp32_get_status+0x3b>
400d3a62:	00          	.byte 00
400d3a63:	00          	.byte 00
400d3a64:	f23021        	l32r	a2, 400d0324 <_image_irom_vaddr+0x304> (3ff0001c <__font_entry_end+0xafb524>)
400d3a67:	ffef65        	call8	400d395c <periph_ll_get_clk_en_mask>
400d3a6a:	0020c0        	memw
400d3a6d:	0228      	l32i.n	a2, a2, 0
400d3a6f:	0782a7        	bany	a2, a10, 400d3a7a <clock_control_esp32_get_status+0x4e>
400d3a72:	120c      	movi.n	a2, 1
400d3a74:	000106        	j	400d3a7c <clock_control_esp32_get_status+0x50>
400d3a77:	00          	.byte 00
400d3a78:	00          	.byte 00
400d3a79:	00          	.byte 00
400d3a7a:	220c      	movi.n	a2, 2
400d3a7c:	f01d      	retw.n
	...

400d3a80 <clock_control_esp32_get_rate>:
400d3a80:	006136        	entry	a1, 48
400d3a83:	01ad      	mov.n	a10, a1
400d3a85:	fe43e5        	call8	400d1ec4 <rtc_clk_cpu_freq_get_config>
400d3a88:	3188      	l32i.n	a8, a1, 12
400d3a8a:	0489      	s32i.n	a8, a4, 0
400d3a8c:	020c      	movi.n	a2, 0
400d3a8e:	f01d      	retw.n

400d3a90 <clock_control_esp32_off>:
400d3a90:	004136        	entry	a1, 32
400d3a93:	03ad      	mov.n	a10, a3
400d3a95:	ff4ba5        	call8	400d2f50 <periph_module_disable>
400d3a98:	020c      	movi.n	a2, 0
400d3a9a:	f01d      	retw.n

400d3a9c <clock_control_esp32_on>:
400d3a9c:	004136        	entry	a1, 32
400d3a9f:	03ad      	mov.n	a10, a3
400d3aa1:	ff4765        	call8	400d2f18 <periph_module_enable>
400d3aa4:	020c      	movi.n	a2, 0
400d3aa6:	f01d      	retw.n

400d3aa8 <esp32_clock_perip_init>:
400d3aa8:	004136        	entry	a1, 32
400d3aab:	00a0a2        	movi	a10, 0
400d3aae:	f24781        	l32r	a8, 400d03cc <_image_irom_vaddr+0x3ac> (400081d4 <esp_rom_get_reset_reason>)
400d3ab1:	0008e0        	callx8	a8
400d3ab4:	f5caa2        	addi	a10, a10, -11
400d3ab7:	253af6        	bgeui	a10, 3, 400d3ae0 <esp32_clock_perip_init+0x38>
400d3aba:	f21c81        	l32r	a8, 400d032c <_image_irom_vaddr+0x30c> (3ff000c0 <__font_entry_end+0xafb5c8>)
400d3abd:	0020c0        	memw
400d3ac0:	0888      	l32i.n	a8, a8, 0
400d3ac2:	fc7c      	movi.n	a12, -1
400d3ac4:	308c80        	xor	a8, a12, a8
400d3ac7:	f21791        	l32r	a9, 400d0324 <_image_irom_vaddr+0x304> (3ff0001c <__font_entry_end+0xafb524>)
400d3aca:	0020c0        	memw
400d3acd:	0998      	l32i.n	a9, a9, 0
400d3acf:	309c90        	xor	a9, a12, a9
400d3ad2:	f215a1        	l32r	a10, 400d0328 <_image_irom_vaddr+0x308> (3ff000cc <__font_entry_end+0xafb5d4>)
400d3ad5:	0020c0        	memw
400d3ad8:	0aa8      	l32i.n	a10, a10, 0
400d3ada:	30cca0        	xor	a12, a12, a10
400d3add:	000206        	j	400d3ae9 <esp32_clock_perip_init+0x41>
400d3ae0:	f235c1        	l32r	a12, 400d03b4 <_image_irom_vaddr+0x394> (37c36 <_image_irom_start+0x1e342>)
400d3ae3:	0fa092        	movi	a9, 15
400d3ae6:	f23481        	l32r	a8, 400d03b8 <_image_irom_vaddr+0x398> (61a8c08 <CONFIG_FLASH_SIZE+0x5da8c08>)
400d3ae9:	f234a1        	l32r	a10, 400d03bc <_image_irom_vaddr+0x39c> (fffeffbd <_rtc_bss_end+0xaffeffbd>)
400d3aec:	1088a0        	and	a8, a8, a10
400d3aef:	f234a1        	l32r	a10, 400d03c0 <_image_irom_vaddr+0x3a0> (641394 <CONFIG_FLASH_SIZE+0x241394>)
400d3af2:	2088a0        	or	a8, a8, a10
400d3af5:	f233b1        	l32r	a11, 400d03c4 <_image_irom_vaddr+0x3a4> (3ff4f0ac <GPIO+0xb0ac>)
400d3af8:	0020c0        	memw
400d3afb:	002ba2        	l32i	a10, a11, 0
400d3afe:	f202d1        	l32r	a13, 400d0308 <_image_irom_vaddr+0x2e8> (200000 <_image_irom_start+0x1e670c>)
400d3b01:	20aad0        	or	a10, a10, a13
400d3b04:	0020c0        	memw
400d3b07:	006ba2        	s32i	a10, a11, 0
400d3b0a:	f22fb1        	l32r	a11, 400d03c8 <_image_irom_vaddr+0x3a8> (3ff6d0ac <SPI3+0x80ac>)
400d3b0d:	0020c0        	memw
400d3b10:	0ba8      	l32i.n	a10, a11, 0
400d3b12:	20aad0        	or	a10, a10, a13
400d3b15:	0020c0        	memw
400d3b18:	0ba9      	s32i.n	a10, a11, 0
400d3b1a:	f204d1        	l32r	a13, 400d032c <_image_irom_vaddr+0x30c> (3ff000c0 <__font_entry_end+0xafb5c8>)
400d3b1d:	0020c0        	memw
400d3b20:	0de8      	l32i.n	a14, a13, 0
400d3b22:	fb7c      	movi.n	a11, -1
400d3b24:	30ab80        	xor	a10, a11, a8
400d3b27:	10aae0        	and	a10, a10, a14
400d3b2a:	0020c0        	memw
400d3b2d:	0da9      	s32i.n	a10, a13, 0
400d3b2f:	f202d1        	l32r	a13, 400d0338 <_image_irom_vaddr+0x318> (3ff000c4 <__font_entry_end+0xafb5cc>)
400d3b32:	0020c0        	memw
400d3b35:	0da8      	l32i.n	a10, a13, 0
400d3b37:	20a8a0        	or	a10, a8, a10
400d3b3a:	0020c0        	memw
400d3b3d:	0da9      	s32i.n	a10, a13, 0
400d3b3f:	f1f9a1        	l32r	a10, 400d0324 <_image_irom_vaddr+0x304> (3ff0001c <__font_entry_end+0xafb524>)
400d3b42:	0020c0        	memw
400d3b45:	0ad8      	l32i.n	a13, a10, 0
400d3b47:	308b90        	xor	a8, a11, a9
400d3b4a:	1088d0        	and	a8, a8, a13
400d3b4d:	0020c0        	memw
400d3b50:	0a89      	s32i.n	a8, a10, 0
400d3b52:	f1f781        	l32r	a8, 400d0330 <_image_irom_vaddr+0x310> (3ff00020 <__font_entry_end+0xafb528>)
400d3b55:	0020c0        	memw
400d3b58:	08a8      	l32i.n	a10, a8, 0
400d3b5a:	2099a0        	or	a9, a9, a10
400d3b5d:	0020c0        	memw
400d3b60:	0899      	s32i.n	a9, a8, 0
400d3b62:	f1f191        	l32r	a9, 400d0328 <_image_irom_vaddr+0x308> (3ff000cc <__font_entry_end+0xafb5d4>)
400d3b65:	0020c0        	memw
400d3b68:	09a8      	l32i.n	a10, a9, 0
400d3b6a:	308bc0        	xor	a8, a11, a12
400d3b6d:	1088a0        	and	a8, a8, a10
400d3b70:	0020c0        	memw
400d3b73:	0989      	s32i.n	a8, a9, 0
400d3b75:	8a1c      	movi.n	a10, 24
400d3b77:	ff3a25        	call8	400d2f18 <periph_module_enable>
400d3b7a:	f01d      	retw.n

400d3b7c <clock_control_esp32_init>:
400d3b7c:	00a136        	entry	a1, 80
400d3b7f:	1228      	l32i.n	a2, a2, 4
400d3b81:	fe63a5        	call8	400d21bc <rtc_clk_apb_freq_get>
400d3b84:	f21331        	l32r	a3, 400d03d0 <_image_irom_vaddr+0x3b0> (4c4b3ff <CONFIG_FLASH_SIZE+0x484b3ff>)
400d3b87:	0ab3a7        	bgeu	a3, a10, 400d3b95 <clock_control_esp32_init+0x19>
400d3b8a:	0a0c      	movi.n	a10, 0
400d3b8c:	f21681        	l32r	a8, 400d03e4 <_image_irom_vaddr+0x3c4> (400081d4 <esp_rom_get_reset_reason>)
400d3b8f:	0008e0        	callx8	a8
400d3b92:	5daa26        	beqi	a10, 12, 400d3bf3 <clock_control_esp32_init+0x77>
400d3b95:	f20f31        	l32r	a3, 400d03d4 <_image_irom_vaddr+0x3b4> (3f400044 <__rodata_region_start+0x4>)
400d3b98:	0348      	l32i.n	a4, a3, 0
400d3b9a:	1338      	l32i.n	a3, a3, 4
400d3b9c:	8149      	s32i.n	a4, a1, 32
400d3b9e:	9139      	s32i.n	a3, a1, 36
400d3ba0:	2248      	l32i.n	a4, a2, 8
400d3ba2:	f20d31        	l32r	a3, 400d03d8 <_image_irom_vaddr+0x3b8> (3f40432c <xtal_freq>)
400d3ba5:	334a      	add.n	a3, a3, a4
400d3ba7:	000332        	l8ui	a3, a3, 0
400d3baa:	204132        	s8i	a3, a1, 32
400d3bad:	1298      	l32i.n	a9, a2, 4
400d3baf:	949090        	extui	a9, a9, 0, 10
400d3bb2:	119980        	slli	a9, a9, 8
400d3bb5:	8188      	l32i.n	a8, a1, 32
400d3bb7:	f20931        	l32r	a3, 400d03dc <_image_irom_vaddr+0x3bc> (fffc00ff <_rtc_bss_end+0xaffc00ff>)
400d3bba:	108830        	and	a8, a8, a3
400d3bbd:	208890        	or	a8, a8, a9
400d3bc0:	8189      	s32i.n	a8, a1, 32
400d3bc2:	fe0725        	call8	400d1c34 <rtc_clk_slow_freq_get>
400d3bc5:	14a0a0        	extui	a10, a10, 0, 2
400d3bc8:	01aad0        	slli	a10, a10, 19
400d3bcb:	8188      	l32i.n	a8, a1, 32
400d3bcd:	f20431        	l32r	a3, 400d03e0 <_image_irom_vaddr+0x3c0> (ffe7ffff <_rtc_bss_end+0xafe7ffff>)
400d3bd0:	108830        	and	a8, a8, a3
400d3bd3:	2088a0        	or	a8, a8, a10
400d3bd6:	8189      	s32i.n	a8, a1, 32
400d3bd8:	fe0965        	call8	400d1c70 <rtc_clk_fast_freq_get>
400d3bdb:	04a0a0        	extui	a10, a10, 0, 1
400d3bde:	013ae0        	slli	a3, a10, 18
400d3be1:	81a8      	l32i.n	a10, a1, 32
400d3be3:	f19941        	l32r	a4, 400d0248 <_image_irom_vaddr+0x228> (fffbffff <_rtc_bss_end+0xaffbffff>)
400d3be6:	10aa40        	and	a10, a10, a4
400d3be9:	20aa30        	or	a10, a10, a3
400d3bec:	81a9      	s32i.n	a10, a1, 32
400d3bee:	91b8      	l32i.n	a11, a1, 36
400d3bf0:	fed065        	call8	400d28f8 <rtc_clk_init>
400d3bf3:	1a0c      	movi.n	a10, 1
400d3bf5:	fe04e5        	call8	400d1c44 <rtc_clk_fast_freq_set>
400d3bf8:	01ad      	mov.n	a10, a1
400d3bfa:	fe2ca5        	call8	400d1ec4 <rtc_clk_cpu_freq_get_config>
400d3bfd:	3148      	l32i.n	a4, a1, 12
400d3bff:	1238      	l32i.n	a3, a2, 4
400d3c01:	10c1b2        	addi	a11, a1, 16
400d3c04:	03ad      	mov.n	a10, a3
400d3c06:	fe25a5        	call8	400d1e60 <rtc_clk_cpu_freq_mhz_to_config>
400d3c09:	03ba16        	beqz	a10, 400d3c48 <clock_control_esp32_init+0xcc>
400d3c0c:	00a0a2        	movi	a10, 0
400d3c0f:	f15681        	l32r	a8, 400d0168 <_image_irom_vaddr+0x148> (40009278 <esp_rom_uart_tx_wait_idle>)
400d3c12:	0008e0        	callx8	a8
400d3c15:	3288      	l32i.n	a8, a2, 12
400d3c17:	002896        	bltz	a8, 400d3c1d <clock_control_esp32_init+0xa1>
400d3c1a:	066182        	s32i	a8, a1, 24
400d3c1d:	0228      	l32i.n	a2, a2, 0
400d3c1f:	001296        	bltz	a2, 400d3c24 <clock_control_esp32_init+0xa8>
400d3c22:	4129      	s32i.n	a2, a1, 16
400d3c24:	10c1a2        	addi	a10, a1, 16
400d3c27:	fe53a5        	call8	400d2160 <rtc_clk_cpu_freq_set_config>
400d3c2a:	03eaa0        	rsr.ccount	a10
400d3c2d:	020c      	movi.n	a2, 0
400d3c2f:	a2b3a0        	muluh	a11, a3, a10
400d3c32:	04cd      	mov.n	a12, a4
400d3c34:	02dd      	mov.n	a13, a2
400d3c36:	82a3a0        	mull	a10, a3, a10
400d3c39:	f14c81        	l32r	a8, 400d016c <_image_irom_vaddr+0x14c> (4000cff8 <__udivdi3>)
400d3c3c:	0008e0        	callx8	a8
400d3c3f:	13eaa0        	wsr.ccount	a10
400d3c42:	ffe665        	call8	400d3aa8 <esp32_clock_perip_init>
400d3c45:	000086        	j	400d3c4b <clock_control_esp32_init+0xcf>
400d3c48:	7aaf22        	movi	a2, -134
400d3c4b:	f01d      	retw.n
400d3c4d:	000000        	ill

400d3c50 <uart_console_hook_install>:
400d3c50:	004136        	entry	a1, 32
400d3c53:	f1e5a1        	l32r	a10, 400d03e8 <_image_irom_vaddr+0x3c8> (400841e4 <console_out>)
400d3c56:	ff4625        	call8	400d30b8 <__stdout_hook_install>
400d3c59:	f1e3a1        	l32r	a10, 400d03e8 <_image_irom_vaddr+0x3c8> (400841e4 <console_out>)
400d3c5c:	fc9525        	call8	400d05b0 <__printk_hook_install>
400d3c5f:	f01d      	retw.n
400d3c61:	000000        	ill

400d3c64 <uart_console_init>:
400d3c64:	004136        	entry	a1, 32
400d3c67:	f1e1a1        	l32r	a10, 400d03ec <_image_irom_vaddr+0x3cc> (3f4049f0 <__device_dts_ord_61>)
400d3c6a:	af4765        	call8	400830e0 <z_device_is_ready>
400d3c6d:	008a16        	beqz	a10, 400d3c79 <uart_console_init+0x15>
400d3c70:	fffde5        	call8	400d3c50 <uart_console_hook_install>
400d3c73:	00a022        	movi	a2, 0
400d3c76:	000046        	j	400d3c7b <uart_console_init+0x17>
400d3c79:	d26c      	movi.n	a2, -19
400d3c7b:	f01d      	retw.n
400d3c7d:	000000        	ill

400d3c80 <z_impl_gpio_pin_configure>:
400d3c80:	004136        	entry	a1, 32
400d3c83:	02ad      	mov.n	a10, a2
400d3c85:	03bd      	mov.n	a11, a3
400d3c87:	022292        	l32i	a9, a2, 8
400d3c8a:	042282        	l32i	a8, a2, 16
400d3c8d:	0b7447        	bbci	a4, 20, 400d3c9c <z_impl_gpio_pin_configure+0x1c>
400d3c90:	f0e7c1        	l32r	a12, 400d002c <_image_irom_vaddr+0xc> (c0000 <_image_irom_start+0xa670c>)
400d3c93:	0504c7        	bnone	a4, a12, 400d3c9c <z_impl_gpio_pin_configure+0x1c>
400d3c96:	026407        	bbci	a4, 0, 400d3c9c <z_impl_gpio_pin_configure+0x1c>
400d3c99:	3044c0        	xor	a4, a4, a12
400d3c9c:	f0e5c1        	l32r	a12, 400d0030 <_image_irom_vaddr+0x10> (ffefffff <_rtc_bss_end+0xafefffff>)
400d3c9f:	10c4c0        	and	a12, a4, a12
400d3ca2:	126407        	bbci	a4, 0, 400d3cb8 <z_impl_gpio_pin_configure+0x38>
400d3ca5:	0848      	l32i.n	a4, a8, 0
400d3ca7:	1d0c      	movi.n	a13, 1
400d3ca9:	401b00        	ssl	a11
400d3cac:	a1dd00        	sll	a13, a13
400d3caf:	2044d0        	or	a4, a4, a13
400d3cb2:	0849      	s32i.n	a4, a8, 0
400d3cb4:	000506        	j	400d3ccc <z_impl_gpio_pin_configure+0x4c>
400d3cb7:	00          	.byte 00
400d3cb8:	0848      	l32i.n	a4, a8, 0
400d3cba:	1e0c      	movi.n	a14, 1
400d3cbc:	401b00        	ssl	a11
400d3cbf:	a1ee00        	sll	a14, a14
400d3cc2:	fd7c      	movi.n	a13, -1
400d3cc4:	30dde0        	xor	a13, a13, a14
400d3cc7:	1044d0        	and	a4, a4, a13
400d3cca:	0849      	s32i.n	a4, a8, 0
400d3ccc:	0948      	l32i.n	a4, a9, 0
400d3cce:	0004e0        	callx8	a4
400d3cd1:	0a2d      	mov.n	a2, a10
400d3cd3:	f01d      	retw.n
400d3cd5:	000000        	ill

400d3cd8 <gpio_pin_configure_dt>:
400d3cd8:	004136        	entry	a1, 32
400d3cdb:	0022a2        	l32i	a10, a2, 0
400d3cde:	0402b2        	l8ui	a11, a2, 4
400d3ce1:	0312c2        	l16ui	a12, a2, 6
400d3ce4:	20cc30        	or	a12, a12, a3
400d3ce7:	fff9a5        	call8	400d3c80 <z_impl_gpio_pin_configure>
400d3cea:	202aa0        	or	a2, a10, a10
400d3ced:	000090        	retw

400d3cf0 <gpio_pin_set>:
400d3cf0:	004136        	entry	a1, 32
400d3cf3:	02ad      	mov.n	a10, a2
400d3cf5:	04cd      	mov.n	a12, a4
400d3cf7:	03bd      	mov.n	a11, a3
400d3cf9:	4288      	l32i.n	a8, a2, 16
400d3cfb:	0888      	l32i.n	a8, a8, 0
400d3cfd:	0b5837        	bbc	a8, a3, 400d3d0c <gpio_pin_set+0x1c>
400d3d00:	01a082        	movi	a8, 1
400d3d03:	00a092        	movi	a9, 0
400d3d06:	938940        	movnez	a8, a9, a4
400d3d09:	74c080        	extui	a12, a8, 0, 8
400d3d0c:	01cda5        	call8	400d59e8 <gpio_pin_set_raw>
400d3d0f:	0a2d      	mov.n	a2, a10
400d3d11:	f01d      	retw.n
	...

400d3d14 <st7789v_transmit>:
400d3d14:	00a136        	entry	a1, 80
400d3d17:	204132        	s8i	a3, a1, 32
400d3d1a:	012232        	l32i	a3, a2, 4
400d3d1d:	200122        	l8ui	a2, a1, 32
400d3d20:	005122        	s16i	a2, a1, 0
400d3d23:	20c182        	addi	a8, a1, 32
400d3d26:	016182        	s32i	a8, a1, 4
400d3d29:	180c      	movi.n	a8, 1
400d3d2b:	2189      	s32i.n	a8, a1, 8
400d3d2d:	914b      	addi.n	a9, a1, 4
400d3d2f:	3199      	s32i.n	a9, a1, 12
400d3d31:	4189      	s32i.n	a8, a1, 16
400d3d33:	43a8      	l32i.n	a10, a3, 16
400d3d35:	faac      	beqz.n	a10, 400d3d68 <st7789v_transmit+0x54>
400d3d37:	ffa082        	movi	a8, 255
400d3d3a:	0e1287        	beq	a2, a8, 400d3d4c <st7789v_transmit+0x38>
400d3d3d:	1c0c      	movi.n	a12, 1
400d3d3f:	1403b2        	l8ui	a11, a3, 20
400d3d42:	fffae5        	call8	400d3cf0 <gpio_pin_set>
400d3d45:	b1cb      	addi.n	a11, a1, 12
400d3d47:	03ad      	mov.n	a10, a3
400d3d49:	01cce5        	call8	400d5a18 <spi_write_dt>
400d3d4c:	056416        	beqz	a4, 400d3da6 <st7789v_transmit+0x92>
400d3d4f:	1149      	s32i.n	a4, a1, 4
400d3d51:	2159      	s32i.n	a5, a1, 8
400d3d53:	0c0c      	movi.n	a12, 0
400d3d55:	1403b2        	l8ui	a11, a3, 20
400d3d58:	43a8      	l32i.n	a10, a3, 16
400d3d5a:	fff965        	call8	400d3cf0 <gpio_pin_set>
400d3d5d:	b1cb      	addi.n	a11, a1, 12
400d3d5f:	03ad      	mov.n	a10, a3
400d3d61:	01cb65        	call8	400d5a18 <spi_write_dt>
400d3d64:	000f86        	j	400d3da6 <st7789v_transmit+0x92>
400d3d67:	00          	.byte 00
400d3d68:	016112        	s32i	a1, a1, 4
400d3d6b:	02a082        	movi	a8, 2
400d3d6e:	026182        	s32i	a8, a1, 8
400d3d71:	ffa082        	movi	a8, 255
400d3d74:	061287        	beq	a2, a8, 400d3d7e <st7789v_transmit+0x6a>
400d3d77:	b1cb      	addi.n	a11, a1, 12
400d3d79:	03ad      	mov.n	a10, a3
400d3d7b:	01c9e5        	call8	400d5a18 <spi_write_dt>
400d3d7e:	f4dc      	bnez.n	a4, 400d3da1 <st7789v_transmit+0x8d>
400d3d80:	000886        	j	400d3da6 <st7789v_transmit+0x92>
400d3d83:	00          	.byte 00
400d3d84:	808420        	add	a8, a4, a2
400d3d87:	000882        	l8ui	a8, a8, 0
400d3d8a:	00a192        	movi	a9, 0x100
400d3d8d:	208890        	or	a8, a8, a9
400d3d90:	005182        	s16i	a8, a1, 0
400d3d93:	0cc1b2        	addi	a11, a1, 12
400d3d96:	20a330        	or	a10, a3, a3
400d3d99:	01c7e5        	call8	400d5a18 <spi_write_dt>
400d3d9c:	221b      	addi.n	a2, a2, 1
400d3d9e:	000046        	j	400d3da3 <st7789v_transmit+0x8f>
400d3da1:	020c      	movi.n	a2, 0
400d3da3:	dd3257        	bltu	a2, a5, 400d3d84 <st7789v_transmit+0x70>
400d3da6:	f01d      	retw.n

400d3da8 <st7789v_blanking_on>:
400d3da8:	004136        	entry	a1, 32
400d3dab:	00a0d2        	movi	a13, 0
400d3dae:	20cdd0        	or	a12, a13, a13
400d3db1:	28a0b2        	movi	a11, 40
400d3db4:	02ad      	mov.n	a10, a2
400d3db6:	fff5e5        	call8	400d3d14 <st7789v_transmit>
400d3db9:	020c      	movi.n	a2, 0
400d3dbb:	f01d      	retw.n
400d3dbd:	000000        	ill

400d3dc0 <st7789v_blanking_off>:
400d3dc0:	004136        	entry	a1, 32
400d3dc3:	00a0d2        	movi	a13, 0
400d3dc6:	20cdd0        	or	a12, a13, a13
400d3dc9:	29a0b2        	movi	a11, 41
400d3dcc:	02ad      	mov.n	a10, a2
400d3dce:	fff465        	call8	400d3d14 <st7789v_transmit>
400d3dd1:	020c      	movi.n	a2, 0
400d3dd3:	f01d      	retw.n
400d3dd5:	000000        	ill

400d3dd8 <st7789v_set_mem_area>:
400d3dd8:	006136        	entry	a1, 48
400d3ddb:	042292        	l32i	a9, a2, 16
400d3dde:	001982        	l16ui	a8, a9, 0
400d3de1:	803830        	add	a3, a8, a3
400d3de4:	f48030        	extui	a8, a3, 0, 16
400d3de7:	011992        	l16ui	a9, a9, 2
400d3dea:	494a      	add.n	a4, a9, a4
400d3dec:	f44040        	extui	a4, a4, 0, 16
400d3def:	743830        	extui	a3, a3, 8, 8
400d3df2:	119880        	slli	a9, a8, 8
400d3df5:	203390        	or	a3, a3, a9
400d3df8:	005132        	s16i	a3, a1, 0
400d3dfb:	558a      	add.n	a5, a5, a8
400d3dfd:	550b      	addi.n	a5, a5, -1
400d3dff:	743850        	extui	a3, a5, 8, 8
400d3e02:	115580        	slli	a5, a5, 8
400d3e05:	203350        	or	a3, a3, a5
400d3e08:	015132        	s16i	a3, a1, 2
400d3e0b:	4d0c      	movi.n	a13, 4
400d3e0d:	01cd      	mov.n	a12, a1
400d3e0f:	2aa0b2        	movi	a11, 42
400d3e12:	02ad      	mov.n	a10, a2
400d3e14:	ffefe5        	call8	400d3d14 <st7789v_transmit>
400d3e17:	413840        	srli	a3, a4, 8
400d3e1a:	115480        	slli	a5, a4, 8
400d3e1d:	203350        	or	a3, a3, a5
400d3e20:	005132        	s16i	a3, a1, 0
400d3e23:	664a      	add.n	a6, a6, a4
400d3e25:	660b      	addi.n	a6, a6, -1
400d3e27:	743860        	extui	a3, a6, 8, 8
400d3e2a:	116680        	slli	a6, a6, 8
400d3e2d:	203360        	or	a3, a3, a6
400d3e30:	015132        	s16i	a3, a1, 2
400d3e33:	4d0c      	movi.n	a13, 4
400d3e35:	01cd      	mov.n	a12, a1
400d3e37:	bb2c      	movi.n	a11, 43
400d3e39:	02ad      	mov.n	a10, a2
400d3e3b:	ffeda5        	call8	400d3d14 <st7789v_transmit>
400d3e3e:	f01d      	retw.n

400d3e40 <st7789v_write>:
400d3e40:	004136        	entry	a1, 32
400d3e43:	0315e2        	l16ui	a14, a5, 6
400d3e46:	0215d2        	l16ui	a13, a5, 4
400d3e49:	f4c040        	extui	a12, a4, 0, 16
400d3e4c:	f4b030        	extui	a11, a3, 0, 16
400d3e4f:	02ad      	mov.n	a10, a2
400d3e51:	fff865        	call8	400d3dd8 <st7789v_set_mem_area>
400d3e54:	041532        	l16ui	a3, a5, 8
400d3e57:	021542        	l16ui	a4, a5, 4
400d3e5a:	07b437        	bgeu	a4, a3, 400d3e65 <st7789v_write+0x25>
400d3e5d:	031542        	l16ui	a4, a5, 6
400d3e60:	170c      	movi.n	a7, 1
400d3e62:	000106        	j	400d3e6a <st7789v_write+0x2a>
400d3e65:	031572        	l16ui	a7, a5, 6
400d3e68:	140c      	movi.n	a4, 1
400d3e6a:	030c      	movi.n	a3, 0
400d3e6c:	000a06        	j	400d3e98 <st7789v_write+0x58>
400d3e6f:	00          	.byte 00
400d3e70:	43cc      	bnez.n	a3, 400d3e78 <st7789v_write+0x38>
400d3e72:	cb2c      	movi.n	a11, 44
400d3e74:	0000c6        	j	400d3e7b <st7789v_write+0x3b>
400d3e77:	00          	.byte 00
400d3e78:	ffa0b2        	movi	a11, 255
400d3e7b:	0215d2        	l16ui	a13, a5, 4
400d3e7e:	82d7d0        	mull	a13, a7, a13
400d3e81:	80ddd0        	add	a13, a13, a13
400d3e84:	20c660        	or	a12, a6, a6
400d3e87:	20a220        	or	a10, a2, a2
400d3e8a:	ffe8a5        	call8	400d3d14 <st7789v_transmit>
400d3e8d:	041582        	l16ui	a8, a5, 8
400d3e90:	906860        	addx2	a6, a8, a6
400d3e93:	331b      	addi.n	a3, a3, 1
400d3e95:	f43030        	extui	a3, a3, 0, 16
400d3e98:	d43347        	bltu	a3, a4, 400d3e70 <st7789v_write+0x30>
400d3e9b:	020c      	movi.n	a2, 0
400d3e9d:	f01d      	retw.n
	...

400d3ea0 <st7789v_lcd_init>:
400d3ea0:	006136        	entry	a1, 48
400d3ea3:	4288      	l32i.n	a8, a2, 16
400d3ea5:	1238      	l32i.n	a3, a2, 4
400d3ea7:	0118c2        	l16ui	a12, a8, 2
400d3eaa:	0018b2        	l16ui	a11, a8, 0
400d3ead:	02ad      	mov.n	a10, a2
400d3eaf:	01b825        	call8	400d5a30 <st7789v_set_lcd_margins>
400d3eb2:	4d0c      	movi.n	a13, 4
400d3eb4:	2ec3c2        	addi	a12, a3, 46
400d3eb7:	dfa0b2        	movi	a11, 223
400d3eba:	02ad      	mov.n	a10, a2
400d3ebc:	ffe565        	call8	400d3d14 <st7789v_transmit>
400d3ebf:	5d0c      	movi.n	a13, 5
400d3ec1:	29c3c2        	addi	a12, a3, 41
400d3ec4:	b2a0b2        	movi	a11, 178
400d3ec7:	02ad      	mov.n	a10, a2
400d3ec9:	ffe4a5        	call8	400d3d14 <st7789v_transmit>
400d3ecc:	080c      	movi.n	a8, 0
400d3ece:	004182        	s8i	a8, a1, 0
400d3ed1:	1d0c      	movi.n	a13, 1
400d3ed3:	01cd      	mov.n	a12, a1
400d3ed5:	baa0b2        	movi	a11, 186
400d3ed8:	02ad      	mov.n	a10, a2
400d3eda:	ffe3a5        	call8	400d3d14 <st7789v_transmit>
400d3edd:	f80c      	movi.n	a8, 15
400d3edf:	004182        	s8i	a8, a1, 0
400d3ee2:	1d0c      	movi.n	a13, 1
400d3ee4:	01cd      	mov.n	a12, a1
400d3ee6:	c6a0b2        	movi	a11, 198
400d3ee9:	02ad      	mov.n	a10, a2
400d3eeb:	ffe2a5        	call8	400d3d14 <st7789v_transmit>
400d3eee:	210382        	l8ui	a8, a3, 33
400d3ef1:	004182        	s8i	a8, a1, 0
400d3ef4:	1d0c      	movi.n	a13, 1
400d3ef6:	01cd      	mov.n	a12, a1
400d3ef8:	b7a0b2        	movi	a11, 183
400d3efb:	02ad      	mov.n	a10, a2
400d3efd:	ffe165        	call8	400d3d14 <st7789v_transmit>
400d3f00:	200382        	l8ui	a8, a3, 32
400d3f03:	004182        	s8i	a8, a1, 0
400d3f06:	1d0c      	movi.n	a13, 1
400d3f08:	01cd      	mov.n	a12, a1
400d3f0a:	bba0b2        	movi	a11, 187
400d3f0d:	02ad      	mov.n	a10, a2
400d3f0f:	ffe065        	call8	400d3d14 <st7789v_transmit>
400d3f12:	220382        	l8ui	a8, a3, 34
400d3f15:	58bc      	beqz.n	a8, 400d3f4e <st7789v_lcd_init+0xae>
400d3f17:	180c      	movi.n	a8, 1
400d3f19:	004182        	s8i	a8, a1, 0
400d3f1c:	01a0d2        	movi	a13, 1
400d3f1f:	20c110        	or	a12, a1, a1
400d3f22:	c2a0b2        	movi	a11, 194
400d3f25:	02ad      	mov.n	a10, a2
400d3f27:	ffdee5        	call8	400d3d14 <st7789v_transmit>
400d3f2a:	230382        	l8ui	a8, a3, 35
400d3f2d:	004182        	s8i	a8, a1, 0
400d3f30:	1d0c      	movi.n	a13, 1
400d3f32:	01cd      	mov.n	a12, a1
400d3f34:	c3a0b2        	movi	a11, 195
400d3f37:	02ad      	mov.n	a10, a2
400d3f39:	ffdda5        	call8	400d3d14 <st7789v_transmit>
400d3f3c:	240382        	l8ui	a8, a3, 36
400d3f3f:	004182        	s8i	a8, a1, 0
400d3f42:	1d0c      	movi.n	a13, 1
400d3f44:	01cd      	mov.n	a12, a1
400d3f46:	c4a0b2        	movi	a11, 196
400d3f49:	02ad      	mov.n	a10, a2
400d3f4b:	ffdca5        	call8	400d3d14 <st7789v_transmit>
400d3f4e:	2d0c      	movi.n	a13, 2
400d3f50:	32c3c2        	addi	a12, a3, 50
400d3f53:	d0a0b2        	movi	a11, 208
400d3f56:	02ad      	mov.n	a10, a2
400d3f58:	ffdba5        	call8	400d3d14 <st7789v_transmit>
400d3f5b:	250382        	l8ui	a8, a3, 37
400d3f5e:	004182        	s8i	a8, a1, 0
400d3f61:	1d0c      	movi.n	a13, 1
400d3f63:	01cd      	mov.n	a12, a1
400d3f65:	6b3c      	movi.n	a11, 54
400d3f67:	02ad      	mov.n	a10, a2
400d3f69:	ffdaa5        	call8	400d3d14 <st7789v_transmit>
400d3f6c:	270382        	l8ui	a8, a3, 39
400d3f6f:	004182        	s8i	a8, a1, 0
400d3f72:	1d0c      	movi.n	a13, 1
400d3f74:	01cd      	mov.n	a12, a1
400d3f76:	ab3c      	movi.n	a11, 58
400d3f78:	02ad      	mov.n	a10, a2
400d3f7a:	ffd9a5        	call8	400d3d14 <st7789v_transmit>
400d3f7d:	280382        	l8ui	a8, a3, 40
400d3f80:	004182        	s8i	a8, a1, 0
400d3f83:	1d0c      	movi.n	a13, 1
400d3f85:	01cd      	mov.n	a12, a1
400d3f87:	c0a0b2        	movi	a11, 192
400d3f8a:	02ad      	mov.n	a10, a2
400d3f8c:	ffd865        	call8	400d3d14 <st7789v_transmit>
400d3f8f:	260382        	l8ui	a8, a3, 38
400d3f92:	004182        	s8i	a8, a1, 0
400d3f95:	1d0c      	movi.n	a13, 1
400d3f97:	01cd      	mov.n	a12, a1
400d3f99:	6b2c      	movi.n	a11, 38
400d3f9b:	20a220        	or	a10, a2, a2
400d3f9e:	ffd765        	call8	400d3d14 <st7789v_transmit>
400d3fa1:	0d0c      	movi.n	a13, 0
400d3fa3:	0dcd      	mov.n	a12, a13
400d3fa5:	1b2c      	movi.n	a11, 33
400d3fa7:	02ad      	mov.n	a10, a2
400d3fa9:	ffd6a5        	call8	400d3d14 <st7789v_transmit>
400d3fac:	ed0c      	movi.n	a13, 14
400d3fae:	34c3c2        	addi	a12, a3, 52
400d3fb1:	e0a0b2        	movi	a11, 224
400d3fb4:	02ad      	mov.n	a10, a2
400d3fb6:	ffd5e5        	call8	400d3d14 <st7789v_transmit>
400d3fb9:	ed0c      	movi.n	a13, 14
400d3fbb:	42c3c2        	addi	a12, a3, 66
400d3fbe:	e1a0b2        	movi	a11, 225
400d3fc1:	02ad      	mov.n	a10, a2
400d3fc3:	ffd525        	call8	400d3d14 <st7789v_transmit>
400d3fc6:	2d0c      	movi.n	a13, 2
400d3fc8:	50c3c2        	addi	a12, a3, 80
400d3fcb:	b0a0b2        	movi	a11, 176
400d3fce:	02ad      	mov.n	a10, a2
400d3fd0:	ffd425        	call8	400d3d14 <st7789v_transmit>
400d3fd3:	3d0c      	movi.n	a13, 3
400d3fd5:	52c3c2        	addi	a12, a3, 82
400d3fd8:	b1a0b2        	movi	a11, 177
400d3fdb:	02ad      	mov.n	a10, a2
400d3fdd:	ffd365        	call8	400d3d14 <st7789v_transmit>
400d3fe0:	f01d      	retw.n
	...

400d3fe4 <st7789v_set_orientation>:
400d3fe4:	004136        	entry	a1, 32
400d3fe7:	f38c      	beqz.n	a3, 400d3ffa <st7789v_set_orientation+0x16>
400d3fe9:	5b4c      	movi.n	a11, 69
400d3feb:	f101a1        	l32r	a10, 400d03f0 <_image_irom_vaddr+0x3d0> (3f404330 <xtal_freq+0x4>)
400d3fee:	fc91a5        	call8	400d0908 <z_log_minimal_printk>
400d3ff1:	7aaf22        	movi	a2, -134
400d3ff4:	000106        	j	400d3ffc <st7789v_set_orientation+0x18>
400d3ff7:	00          	.byte 00
400d3ff8:	00          	.byte 00
400d3ff9:	00          	.byte 00
400d3ffa:	020c      	movi.n	a2, 0
400d3ffc:	f01d      	retw.n
	...

400d4000 <st7789v_set_pixel_format>:
400d4000:	004136        	entry	a1, 32
400d4003:	0db326        	beqi	a3, 16, 400d4014 <st7789v_set_pixel_format+0x14>
400d4006:	5b4c      	movi.n	a11, 69
400d4008:	f0fba1        	l32r	a10, 400d03f4 <_image_irom_vaddr+0x3d4> (3f404364 <xtal_freq+0x38>)
400d400b:	fc8fe5        	call8	400d0908 <z_log_minimal_printk>
400d400e:	7aaf22        	movi	a2, -134
400d4011:	000046        	j	400d4016 <st7789v_set_pixel_format+0x16>
400d4014:	020c      	movi.n	a2, 0
400d4016:	f01d      	retw.n

400d4018 <st7789v_get_capabilities>:
400d4018:	004136        	entry	a1, 32
400d401b:	012222        	l32i	a2, a2, 4
400d401e:	14a0c2        	movi	a12, 20
400d4021:	00a0b2        	movi	a11, 0
400d4024:	03ad      	mov.n	a10, a3
400d4026:	b02965        	call8	400842bc <memset>
400d4029:	2c1282        	l16ui	a8, a2, 88
400d402c:	005382        	s16i	a8, a3, 0
400d402f:	2b1222        	l16ui	a2, a2, 86
400d4032:	015322        	s16i	a2, a3, 2
400d4035:	081c      	movi.n	a8, 16
400d4037:	1389      	s32i.n	a8, a3, 4
400d4039:	3389      	s32i.n	a8, a3, 12
400d403b:	020c      	movi.n	a2, 0
400d403d:	4329      	s32i.n	a2, a3, 16
400d403f:	f01d      	retw.n
400d4041:	000000        	ill

400d4044 <spi_is_ready_dt>:
400d4044:	004136        	entry	a1, 32
400d4047:	0022a2        	l32i	a10, a2, 0
400d404a:	af0965        	call8	400830e0 <z_device_is_ready>
400d404d:	009a16        	beqz	a10, 400d405a <spi_is_ready_dt+0x16>
400d4050:	032222        	l32i	a2, a2, 12
400d4053:	328c      	beqz.n	a2, 400d405a <spi_is_ready_dt+0x16>
400d4055:	02a8      	l32i.n	a10, a2, 0
400d4057:	af08a5        	call8	400830e0 <z_device_is_ready>
400d405a:	0a2d      	mov.n	a2, a10
400d405c:	f01d      	retw.n
	...

400d4060 <st7789v_reset_display>:
400d4060:	004136        	entry	a1, 32
400d4063:	012232        	l32i	a3, a2, 4
400d4066:	062382        	l32i	a8, a3, 24
400d4069:	02f816        	beqz	a8, 400d409c <st7789v_reset_display+0x3c>
400d406c:	020c      	movi.n	a2, 0
400d406e:	aa0c      	movi.n	a10, 10
400d4070:	02bd      	mov.n	a11, a2
400d4072:	ae67e5        	call8	400826f0 <z_impl_k_sleep>
400d4075:	1c0c      	movi.n	a12, 1
400d4077:	1c03b2        	l8ui	a11, a3, 28
400d407a:	63a8      	l32i.n	a10, a3, 24
400d407c:	ffc725        	call8	400d3cf0 <gpio_pin_set>
400d407f:	ca3c      	movi.n	a10, 60
400d4081:	02bd      	mov.n	a11, a2
400d4083:	ae66e5        	call8	400826f0 <z_impl_k_sleep>
400d4086:	02cd      	mov.n	a12, a2
400d4088:	1c03b2        	l8ui	a11, a3, 28
400d408b:	63a8      	l32i.n	a10, a3, 24
400d408d:	ffc625        	call8	400d3cf0 <gpio_pin_set>
400d4090:	c8a0a2        	movi	a10, 200
400d4093:	02bd      	mov.n	a11, a2
400d4095:	ae65a5        	call8	400826f0 <z_impl_k_sleep>
400d4098:	000506        	j	400d40b0 <st7789v_reset_display+0x50>
400d409b:	00          	.byte 00
400d409c:	00a0d2        	movi	a13, 0
400d409f:	20cdd0        	or	a12, a13, a13
400d40a2:	1b0c      	movi.n	a11, 1
400d40a4:	02ad      	mov.n	a10, a2
400d40a6:	ffc6e5        	call8	400d3d14 <st7789v_transmit>
400d40a9:	2a3c      	movi.n	a10, 50
400d40ab:	0b0c      	movi.n	a11, 0
400d40ad:	ae6425        	call8	400826f0 <z_impl_k_sleep>
400d40b0:	f01d      	retw.n
	...

400d40b4 <st7789v_exit_sleep>:
400d40b4:	004136        	entry	a1, 32
400d40b7:	00a0d2        	movi	a13, 0
400d40ba:	20cdd0        	or	a12, a13, a13
400d40bd:	1b1c      	movi.n	a11, 17
400d40bf:	02ad      	mov.n	a10, a2
400d40c1:	ffc525        	call8	400d3d14 <st7789v_transmit>
400d40c4:	b0a4a2        	movi	a10, 0x4b0
400d40c7:	0b0c      	movi.n	a11, 0
400d40c9:	ae6265        	call8	400826f0 <z_impl_k_sleep>
400d40cc:	f01d      	retw.n
	...

400d40d0 <st7789v_init>:
400d40d0:	004136        	entry	a1, 32
400d40d3:	012232        	l32i	a3, a2, 4
400d40d6:	20a330        	or	a10, a3, a3
400d40d9:	fff6a5        	call8	400d4044 <spi_is_ready_dt>
400d40dc:	cacc      	bnez.n	a10, 400d40ec <st7789v_init+0x1c>
400d40de:	5b4c      	movi.n	a11, 69
400d40e0:	f0c6a1        	l32r	a10, 400d03f8 <_image_irom_vaddr+0x3d8> (3f404390 <xtal_freq+0x64>)
400d40e3:	fc8265        	call8	400d0908 <z_log_minimal_printk>
400d40e6:	d26c      	movi.n	a2, -19
400d40e8:	001f86        	j	400d416a <st7789v_init+0x9a>
400d40eb:	00          	.byte 00
400d40ec:	0623a2        	l32i	a10, a3, 24
400d40ef:	02da16        	beqz	a10, 400d4120 <st7789v_init+0x50>
400d40f2:	aefee5        	call8	400830e0 <z_device_is_ready>
400d40f5:	cacc      	bnez.n	a10, 400d4105 <st7789v_init+0x35>
400d40f7:	45a0b2        	movi	a11, 69
400d40fa:	f0c0a1        	l32r	a10, 400d03fc <_image_irom_vaddr+0x3dc> (3f4043ac <xtal_freq+0x80>)
400d40fd:	fc80a5        	call8	400d0908 <z_log_minimal_printk>
400d4100:	d26c      	movi.n	a2, -19
400d4102:	001906        	j	400d416a <st7789v_init+0x9a>
400d4105:	efcfb1        	l32r	a11, 400d0044 <_image_irom_vaddr+0x24> (160000 <_image_irom_start+0x14670c>)
400d4108:	18c3a2        	addi	a10, a3, 24
400d410b:	ffbce5        	call8	400d3cd8 <gpio_pin_configure_dt>
400d410e:	00ea16        	beqz	a10, 400d4120 <st7789v_init+0x50>
400d4111:	45a0b2        	movi	a11, 69
400d4114:	f0bba1        	l32r	a10, 400d0400 <_image_irom_vaddr+0x3e0> (3f4043d0 <xtal_freq+0xa4>)
400d4117:	fc7f25        	call8	400d0908 <z_log_minimal_printk>
400d411a:	b27c      	movi.n	a2, -5
400d411c:	001286        	j	400d416a <st7789v_init+0x9a>
400d411f:	00          	.byte 00
400d4120:	0423a2        	l32i	a10, a3, 16
400d4123:	02da16        	beqz	a10, 400d4154 <st7789v_init+0x84>
400d4126:	aefba5        	call8	400830e0 <z_device_is_ready>
400d4129:	cacc      	bnez.n	a10, 400d4139 <st7789v_init+0x69>
400d412b:	45a0b2        	movi	a11, 69
400d412e:	f0b5a1        	l32r	a10, 400d0404 <_image_irom_vaddr+0x3e4> (3f4043f4 <xtal_freq+0xc8>)
400d4131:	fc7d65        	call8	400d0908 <z_log_minimal_printk>
400d4134:	d26c      	movi.n	a2, -19
400d4136:	000c06        	j	400d416a <st7789v_init+0x9a>
400d4139:	f041b1        	l32r	a11, 400d0240 <_image_irom_vaddr+0x220> (20000 <_image_irom_start+0x670c>)
400d413c:	10c3a2        	addi	a10, a3, 16
400d413f:	ffb9a5        	call8	400d3cd8 <gpio_pin_configure_dt>
400d4142:	00ea16        	beqz	a10, 400d4154 <st7789v_init+0x84>
400d4145:	45a0b2        	movi	a11, 69
400d4148:	f0b0a1        	l32r	a10, 400d0408 <_image_irom_vaddr+0x3e8> (3f404418 <xtal_freq+0xec>)
400d414b:	fc7be5        	call8	400d0908 <z_log_minimal_printk>
400d414e:	b27c      	movi.n	a2, -5
400d4150:	000586        	j	400d416a <st7789v_init+0x9a>
400d4153:	00          	.byte 00
400d4154:	02ad      	mov.n	a10, a2
400d4156:	fff0a5        	call8	400d4060 <st7789v_reset_display>
400d4159:	02ad      	mov.n	a10, a2
400d415b:	ffc4e5        	call8	400d3da8 <st7789v_blanking_on>
400d415e:	02ad      	mov.n	a10, a2
400d4160:	ffd3e5        	call8	400d3ea0 <st7789v_lcd_init>
400d4163:	02ad      	mov.n	a10, a2
400d4165:	fff4e5        	call8	400d40b4 <st7789v_exit_sleep>
400d4168:	020c      	movi.n	a2, 0
400d416a:	f01d      	retw.n

400d416c <entropy_esp32_get_u32>:
400d416c:	004136        	entry	a1, 32
400d416f:	ac63a5        	call8	400807a8 <esp_clk_cpu_freq>
400d4172:	0a2d      	mov.n	a2, a10
400d4174:	201110        	or	a1, a1, a1
400d4177:	ac6425        	call8	400807b8 <esp_clk_apb_freq>
400d417a:	d2a2a0        	quos	a10, a2, a10
400d417d:	03ea90        	rsr.ccount	a9
400d4180:	f0a381        	l32r	a8, 400d040c <_image_irom_vaddr+0x3ec> (3ffc1edc <last_ccount$0>)
400d4183:	0888      	l32i.n	a8, a8, 0
400d4185:	c08980        	sub	a8, a9, a8
400d4188:	11bac0        	slli	a11, a10, 4
400d418b:	ee38b7        	bltu	a8, a11, 400d417d <entropy_esp32_get_u32+0x11>
400d418e:	f09f21        	l32r	a2, 400d040c <_image_irom_vaddr+0x3ec> (3ffc1edc <last_ccount$0>)
400d4191:	0299      	s32i.n	a9, a2, 0
400d4193:	f09f21        	l32r	a2, 400d0410 <_image_irom_vaddr+0x3f0> (60035144 <_rtc_bss_end+0x10035144>)
400d4196:	0020c0        	memw
400d4199:	0228      	l32i.n	a2, a2, 0
400d419b:	f01d      	retw.n
400d419d:	000000        	ill

400d41a0 <entropy_esp32_get_entropy>:
400d41a0:	006136        	entry	a1, 48
400d41a3:	f44040        	extui	a4, a4, 0, 16
400d41a6:	000706        	j	400d41c6 <entropy_esp32_get_entropy+0x26>
400d41a9:	fffc25        	call8	400d416c <entropy_esp32_get_u32>
400d41ac:	0061a2        	s32i	a10, a1, 0
400d41af:	04a022        	movi	a2, 4
400d41b2:	632420        	minu	a2, a4, a2
400d41b5:	02cd      	mov.n	a12, a2
400d41b7:	01bd      	mov.n	a11, a1
400d41b9:	03ad      	mov.n	a10, a3
400d41bb:	b00b25        	call8	4008426c <memcpy>
400d41be:	332a      	add.n	a3, a3, a2
400d41c0:	c04420        	sub	a4, a4, a2
400d41c3:	f44040        	extui	a4, a4, 0, 16
400d41c6:	fdf456        	bnez	a4, 400d41a9 <entropy_esp32_get_entropy+0x9>
400d41c9:	020c      	movi.n	a2, 0
400d41cb:	f01d      	retw.n
400d41cd:	000000        	ill

400d41d0 <gpio_ll_output_disable>:
400d41d0:	006136        	entry	a1, 48
400d41d3:	f81c      	movi.n	a8, 31
400d41d5:	0f2837        	blt	a8, a3, 400d41e8 <gpio_ll_output_disable+0x18>
400d41d8:	180c      	movi.n	a8, 1
400d41da:	401300        	ssl	a3
400d41dd:	a18800        	sll	a8, a8
400d41e0:	0020c0        	memw
400d41e3:	a289      	s32i.n	a8, a2, 40
400d41e5:	000906        	j	400d420d <gpio_ll_output_disable+0x3d>
400d41e8:	0020c0        	memw
400d41eb:	d288      	l32i.n	a8, a2, 52
400d41ed:	0020c0        	memw
400d41f0:	0189      	s32i.n	a8, a1, 0
400d41f2:	180c      	movi.n	a8, 1
400d41f4:	401300        	ssl	a3
400d41f7:	a18800        	sll	a8, a8
400d41fa:	748080        	extui	a8, a8, 0, 8
400d41fd:	0020c0        	memw
400d4200:	004182        	s8i	a8, a1, 0
400d4203:	0020c0        	memw
400d4206:	0188      	l32i.n	a8, a1, 0
400d4208:	0020c0        	memw
400d420b:	d289      	s32i.n	a8, a2, 52
400d420d:	f08121        	l32r	a2, 400d0414 <_image_irom_vaddr+0x3f4> (ffd114c <CONFIG_SYS_CLOCK_HW_CYCLES_PER_SEC+0x1aef54c>)
400d4210:	332a      	add.n	a3, a3, a2
400d4212:	1133e0        	slli	a3, a3, 2
400d4215:	00a122        	movi	a2, 0x100
400d4218:	0020c0        	memw
400d421b:	0329      	s32i.n	a2, a3, 0
400d421d:	f01d      	retw.n
	...

400d4220 <rtcio_ll_set_drive_capability>:
400d4220:	004136        	entry	a1, 32
400d4223:	f08220        	subx8	a8, a2, a2
400d4226:	f07c91        	l32r	a9, 400d0418 <_image_irom_vaddr+0x3f8> (3f4037a8 <rtc_io_desc>)
400d4229:	b08890        	addx8	a8, a8, a9
400d422c:	b888      	l32i.n	a8, a8, 44
400d422e:	48bc      	beqz.n	a8, 400d4266 <rtcio_ll_set_drive_capability+0x46>
400d4230:	09bd      	mov.n	a11, a9
400d4232:	f09220        	subx8	a9, a2, a2
400d4235:	b099b0        	addx8	a9, a9, a11
400d4238:	09a8      	l32i.n	a10, a9, 0
400d423a:	0020c0        	memw
400d423d:	0a98      	l32i.n	a9, a10, 0
400d423f:	f02220        	subx8	a2, a2, a2
400d4242:	b022b0        	addx8	a2, a2, a11
400d4245:	c2b8      	l32i.n	a11, a2, 48
400d4247:	401b00        	ssl	a11
400d424a:	a1c800        	sll	a12, a8
400d424d:	f27c      	movi.n	a2, -1
400d424f:	3022c0        	xor	a2, a2, a12
400d4252:	109920        	and	a9, a9, a2
400d4255:	108830        	and	a8, a8, a3
400d4258:	401b00        	ssl	a11
400d425b:	a18800        	sll	a8, a8
400d425e:	209980        	or	a9, a9, a8
400d4261:	0020c0        	memw
400d4264:	0a99      	s32i.n	a9, a10, 0
400d4266:	f01d      	retw.n

400d4268 <rtcio_ll_pullup_enable>:
400d4268:	004136        	entry	a1, 32
400d426b:	f08220        	subx8	a8, a2, a2
400d426e:	f06a91        	l32r	a9, 400d0418 <_image_irom_vaddr+0x3f8> (3f4037a8 <rtc_io_desc>)
400d4271:	b08890        	addx8	a8, a8, a9
400d4274:	4888      	l32i.n	a8, a8, 16
400d4276:	389c      	beqz.n	a8, 400d428d <rtcio_ll_pullup_enable+0x25>
400d4278:	f02220        	subx8	a2, a2, a2
400d427b:	b02290        	addx8	a2, a2, a9
400d427e:	0228      	l32i.n	a2, a2, 0
400d4280:	0020c0        	memw
400d4283:	0298      	l32i.n	a9, a2, 0
400d4285:	208890        	or	a8, a8, a9
400d4288:	0020c0        	memw
400d428b:	0289      	s32i.n	a8, a2, 0
400d428d:	f01d      	retw.n
	...

400d4290 <rtcio_ll_pullup_disable>:
400d4290:	004136        	entry	a1, 32
400d4293:	f08220        	subx8	a8, a2, a2
400d4296:	f06091        	l32r	a9, 400d0418 <_image_irom_vaddr+0x3f8> (3f4037a8 <rtc_io_desc>)
400d4299:	b08890        	addx8	a8, a8, a9
400d429c:	4888      	l32i.n	a8, a8, 16
400d429e:	889c      	beqz.n	a8, 400d42ba <rtcio_ll_pullup_disable+0x2a>
400d42a0:	f02220        	subx8	a2, a2, a2
400d42a3:	b02290        	addx8	a2, a2, a9
400d42a6:	02a8      	l32i.n	a10, a2, 0
400d42a8:	0020c0        	memw
400d42ab:	0a28      	l32i.n	a2, a10, 0
400d42ad:	f97c      	movi.n	a9, -1
400d42af:	308980        	xor	a8, a9, a8
400d42b2:	102280        	and	a2, a2, a8
400d42b5:	0020c0        	memw
400d42b8:	0a29      	s32i.n	a2, a10, 0
400d42ba:	f01d      	retw.n

400d42bc <rtcio_ll_pulldown_enable>:
400d42bc:	004136        	entry	a1, 32
400d42bf:	f08220        	subx8	a8, a2, a2
400d42c2:	f05591        	l32r	a9, 400d0418 <_image_irom_vaddr+0x3f8> (3f4037a8 <rtc_io_desc>)
400d42c5:	b08890        	addx8	a8, a8, a9
400d42c8:	5888      	l32i.n	a8, a8, 20
400d42ca:	389c      	beqz.n	a8, 400d42e1 <rtcio_ll_pulldown_enable+0x25>
400d42cc:	f02220        	subx8	a2, a2, a2
400d42cf:	b02290        	addx8	a2, a2, a9
400d42d2:	0228      	l32i.n	a2, a2, 0
400d42d4:	0020c0        	memw
400d42d7:	0298      	l32i.n	a9, a2, 0
400d42d9:	208890        	or	a8, a8, a9
400d42dc:	0020c0        	memw
400d42df:	0289      	s32i.n	a8, a2, 0
400d42e1:	f01d      	retw.n
	...

400d42e4 <rtcio_ll_pulldown_disable>:
400d42e4:	004136        	entry	a1, 32
400d42e7:	f08220        	subx8	a8, a2, a2
400d42ea:	f04b91        	l32r	a9, 400d0418 <_image_irom_vaddr+0x3f8> (3f4037a8 <rtc_io_desc>)
400d42ed:	b08890        	addx8	a8, a8, a9
400d42f0:	5888      	l32i.n	a8, a8, 20
400d42f2:	889c      	beqz.n	a8, 400d430e <rtcio_ll_pulldown_disable+0x2a>
400d42f4:	f02220        	subx8	a2, a2, a2
400d42f7:	b02290        	addx8	a2, a2, a9
400d42fa:	02a8      	l32i.n	a10, a2, 0
400d42fc:	0020c0        	memw
400d42ff:	0a28      	l32i.n	a2, a10, 0
400d4301:	f97c      	movi.n	a9, -1
400d4303:	308980        	xor	a8, a9, a8
400d4306:	102280        	and	a2, a2, a8
400d4309:	0020c0        	memw
400d430c:	0a29      	s32i.n	a2, a10, 0
400d430e:	f01d      	retw.n

400d4310 <sys_slist_find_and_remove>:
400d4310:	004136        	entry	a1, 32
400d4313:	0288      	l32i.n	a8, a2, 0
400d4315:	0b0c      	movi.n	a11, 0
400d4317:	0005c6        	j	400d4332 <sys_slist_find_and_remove+0x22>
400d431a:	00          	.byte 00
400d431b:	00          	.byte 00
400d431c:	0e9837        	bne	a8, a3, 400d432e <sys_slist_find_and_remove+0x1e>
400d431f:	20c330        	or	a12, a3, a3
400d4322:	20a220        	or	a10, a2, a2
400d4325:	017825        	call8	400d5aa8 <sys_slist_remove>
400d4328:	01a022        	movi	a2, 1
400d432b:	000206        	j	400d4337 <sys_slist_find_and_remove+0x27>
400d432e:	08bd      	mov.n	a11, a8
400d4330:	0888      	l32i.n	a8, a8, 0
400d4332:	fe6856        	bnez	a8, 400d431c <sys_slist_find_and_remove+0xc>
400d4335:	020c      	movi.n	a2, 0
400d4337:	f01d      	retw.n
400d4339:	000000        	ill

400d433c <gpio_manage_callback>:
400d433c:	004136        	entry	a1, 32
400d433f:	002282        	l32i	a8, a2, 0
400d4342:	010816        	beqz	a8, 400d4356 <gpio_manage_callback+0x1a>
400d4345:	20b330        	or	a11, a3, a3
400d4348:	02ad      	mov.n	a10, a2
400d434a:	fffc65        	call8	400d4310 <sys_slist_find_and_remove>
400d434d:	dacc      	bnez.n	a10, 400d435e <gpio_manage_callback+0x22>
400d434f:	d4cc      	bnez.n	a4, 400d4360 <gpio_manage_callback+0x24>
400d4351:	a26c      	movi.n	a2, -22
400d4353:	000846        	j	400d4378 <gpio_manage_callback+0x3c>
400d4356:	64cc      	bnez.n	a4, 400d4360 <gpio_manage_callback+0x24>
400d4358:	a26c      	movi.n	a2, -22
400d435a:	000686        	j	400d4378 <gpio_manage_callback+0x3c>
400d435d:	00          	.byte 00
400d435e:	f48c      	beqz.n	a4, 400d4371 <gpio_manage_callback+0x35>
400d4360:	0248      	l32i.n	a4, a2, 0
400d4362:	0349      	s32i.n	a4, a3, 0
400d4364:	0239      	s32i.n	a3, a2, 0
400d4366:	1248      	l32i.n	a4, a2, 4
400d4368:	a4cc      	bnez.n	a4, 400d4376 <gpio_manage_callback+0x3a>
400d436a:	1239      	s32i.n	a3, a2, 4
400d436c:	020c      	movi.n	a2, 0
400d436e:	000186        	j	400d4378 <gpio_manage_callback+0x3c>
400d4371:	020c      	movi.n	a2, 0
400d4373:	000046        	j	400d4378 <gpio_manage_callback+0x3c>
400d4376:	020c      	movi.n	a2, 0
400d4378:	f01d      	retw.n
	...

400d437c <convert_int_type>:
400d437c:	004136        	entry	a1, 32
400d437f:	efe281        	l32r	a8, 400d0308 <_image_irom_vaddr+0x2e8> (200000 <_image_irom_start+0x1e670c>)
400d4382:	2e1287        	beq	a2, a8, 400d43b4 <convert_int_type+0x38>
400d4385:	efe281        	l32r	a8, 400d0310 <_image_irom_vaddr+0x2f0> (400000 <CONFIG_FLASH_SIZE>)
400d4388:	109287        	bne	a2, a8, 400d439c <convert_int_type+0x20>
400d438b:	f02421        	l32r	a2, 400d041c <_image_irom_vaddr+0x3fc> (2000000 <CONFIG_FLASH_SIZE+0x1c00000>)
400d438e:	271327        	beq	a3, a2, 400d43b9 <convert_int_type+0x3d>
400d4391:	f02321        	l32r	a2, 400d0420 <_image_irom_vaddr+0x400> (4000000 <CONFIG_FLASH_SIZE+0x3c00000>)
400d4394:	269327        	bne	a3, a2, 400d43be <convert_int_type+0x42>
400d4397:	520c      	movi.n	a2, 5
400d4399:	000cc6        	j	400d43d0 <convert_int_type+0x54>
400d439c:	f02121        	l32r	a2, 400d0420 <_image_irom_vaddr+0x400> (4000000 <CONFIG_FLASH_SIZE+0x3c00000>)
400d439f:	211327        	beq	a3, a2, 400d43c4 <convert_int_type+0x48>
400d43a2:	f02021        	l32r	a2, 400d0424 <_image_irom_vaddr+0x404> (6000000 <CONFIG_FLASH_SIZE+0x5c00000>)
400d43a5:	201327        	beq	a3, a2, 400d43c9 <convert_int_type+0x4d>
400d43a8:	f01d21        	l32r	a2, 400d041c <_image_irom_vaddr+0x3fc> (2000000 <CONFIG_FLASH_SIZE+0x1c00000>)
400d43ab:	1f9327        	bne	a3, a2, 400d43ce <convert_int_type+0x52>
400d43ae:	220c      	movi.n	a2, 2
400d43b0:	000706        	j	400d43d0 <convert_int_type+0x54>
400d43b3:	00          	.byte 00
400d43b4:	020c      	movi.n	a2, 0
400d43b6:	000586        	j	400d43d0 <convert_int_type+0x54>
400d43b9:	420c      	movi.n	a2, 4
400d43bb:	000446        	j	400d43d0 <convert_int_type+0x54>
400d43be:	a26c      	movi.n	a2, -22
400d43c0:	000306        	j	400d43d0 <convert_int_type+0x54>
400d43c3:	00          	.byte 00
400d43c4:	120c      	movi.n	a2, 1
400d43c6:	000186        	j	400d43d0 <convert_int_type+0x54>
400d43c9:	320c      	movi.n	a2, 3
400d43cb:	000046        	j	400d43d0 <convert_int_type+0x54>
400d43ce:	a26c      	movi.n	a2, -22
400d43d0:	f01d      	retw.n
	...

400d43d4 <gpio_esp32_pin_interrupt_configure>:
400d43d4:	006136        	entry	a1, 48
400d43d7:	04ad      	mov.n	a10, a4
400d43d9:	05bd      	mov.n	a11, a5
400d43db:	743030        	extui	a3, a3, 0, 8
400d43de:	1228      	l32i.n	a2, a2, 4
400d43e0:	3268      	l32i.n	a6, a2, 12
400d43e2:	0a1666        	bnei	a6, 1, 400d43f0 <gpio_esp32_pin_interrupt_configure+0x1c>
400d43e5:	f61c      	movi.n	a6, 31
400d43e7:	0bb637        	bgeu	a6, a3, 400d43f6 <gpio_esp32_pin_interrupt_configure+0x22>
400d43ea:	060c      	movi.n	a6, 0
400d43ec:	000246        	j	400d43f9 <gpio_esp32_pin_interrupt_configure+0x25>
400d43ef:	00          	.byte 00
400d43f0:	060c      	movi.n	a6, 0
400d43f2:	0000c6        	j	400d43f9 <gpio_esp32_pin_interrupt_configure+0x25>
400d43f5:	00          	.byte 00
400d43f6:	20a062        	movi	a6, 32
400d43f9:	806360        	add	a6, a3, a6
400d43fc:	fff7e5        	call8	400d437c <convert_int_type>
400d43ff:	0b1a96        	bltz	a10, 400d44b4 <gpio_esp32_pin_interrupt_configure+0xe0>
400d4402:	0063b0        	rsil	a11, 3
400d4405:	032282        	l32i	a8, a2, 12
400d4408:	18dc      	bnez.n	a8, 400d441d <gpio_esp32_pin_interrupt_configure+0x49>
400d440a:	1298      	l32i.n	a9, a2, 4
400d440c:	180c      	movi.n	a8, 1
400d440e:	401300        	ssl	a3
400d4411:	a18800        	sll	a8, a8
400d4414:	0020c0        	memw
400d4417:	136982        	s32i	a8, a9, 76
400d441a:	000a06        	j	400d4446 <gpio_esp32_pin_interrupt_configure+0x72>
400d441d:	1298      	l32i.n	a9, a2, 4
400d441f:	180c      	movi.n	a8, 1
400d4421:	401300        	ssl	a3
400d4424:	a18800        	sll	a8, a8
400d4427:	0020c0        	memw
400d442a:	162932        	l32i	a3, a9, 88
400d442d:	0020c0        	memw
400d4430:	0139      	s32i.n	a3, a1, 0
400d4432:	748080        	extui	a8, a8, 0, 8
400d4435:	0020c0        	memw
400d4438:	004182        	s8i	a8, a1, 0
400d443b:	0020c0        	memw
400d443e:	0138      	l32i.n	a3, a1, 0
400d4440:	0020c0        	memw
400d4443:	166932        	s32i	a3, a9, 88
400d4446:	1238      	l32i.n	a3, a2, 4
400d4448:	20c692        	addi	a9, a6, 32
400d444b:	a09930        	addx4	a9, a9, a3
400d444e:	24a0a0        	extui	a10, a10, 0, 3
400d4451:	11aa90        	slli	a10, a10, 7
400d4454:	0020c0        	memw
400d4457:	2988      	l32i.n	a8, a9, 8
400d4459:	7fac32        	movi	a3, 0xfffffc7f
400d445c:	108830        	and	a8, a8, a3
400d445f:	2088a0        	or	a8, a8, a10
400d4462:	0020c0        	memw
400d4465:	2989      	s32i.n	a8, a9, 8
400d4467:	1228      	l32i.n	a2, a2, 4
400d4469:	03f530        	rsr.misc1	a3
400d446c:	140332        	l8ui	a3, a3, 20
400d446f:	d3dc      	bnez.n	a3, 400d4490 <gpio_esp32_pin_interrupt_configure+0xbc>
400d4471:	20c662        	addi	a6, a6, 32
400d4474:	a06620        	addx4	a6, a6, a2
400d4477:	0020c0        	memw
400d447a:	2628      	l32i.n	a2, a6, 8
400d447c:	efeb31        	l32r	a3, 400d0428 <_image_irom_vaddr+0x408> (fffc1fff <_rtc_bss_end+0xaffc1fff>)
400d447f:	102230        	and	a2, a2, a3
400d4482:	ef0f31        	l32r	a3, 400d00c0 <_image_irom_vaddr+0xa0> (8000 <_image_irom_size+0x22b8>)
400d4485:	202230        	or	a2, a2, a3
400d4488:	0020c0        	memw
400d448b:	2629      	s32i.n	a2, a6, 8
400d448d:	0006c6        	j	400d44ac <gpio_esp32_pin_interrupt_configure+0xd8>
400d4490:	20c662        	addi	a6, a6, 32
400d4493:	a06620        	addx4	a6, a6, a2
400d4496:	0020c0        	memw
400d4499:	2628      	l32i.n	a2, a6, 8
400d449b:	efe331        	l32r	a3, 400d0428 <_image_irom_vaddr+0x408> (fffc1fff <_rtc_bss_end+0xaffc1fff>)
400d449e:	102230        	and	a2, a2, a3
400d44a1:	eeee31        	l32r	a3, 400d005c <_image_irom_vaddr+0x3c> (2000 <CONFIG_HEAP_MEM_POOL_SIZE+0x1000>)
400d44a4:	202230        	or	a2, a2, a3
400d44a7:	0020c0        	memw
400d44aa:	2629      	s32i.n	a2, a6, 8
400d44ac:	13e6b0        	wsr.ps	a11
400d44af:	002010        	rsync
400d44b2:	0a0c      	movi.n	a10, 0
400d44b4:	0a2d      	mov.n	a2, a10
400d44b6:	f01d      	retw.n

400d44b8 <gpio_esp32_manage_callback>:
400d44b8:	004136        	entry	a1, 32
400d44bb:	0422a2        	l32i	a10, a2, 16
400d44be:	74c040        	extui	a12, a4, 0, 8
400d44c1:	20b330        	or	a11, a3, a3
400d44c4:	04caa2        	addi	a10, a10, 4
400d44c7:	ffe765        	call8	400d433c <gpio_manage_callback>
400d44ca:	0a2d      	mov.n	a2, a10
400d44cc:	f01d      	retw.n
	...

400d44d0 <gpio_esp32_config>:
400d44d0:	006136        	entry	a1, 48
400d44d3:	743030        	extui	a3, a3, 0, 8
400d44d6:	1268      	l32i.n	a6, a2, 4
400d44d8:	3628      	l32i.n	a2, a6, 12
400d44da:	0a1266        	bnei	a2, 1, 400d44e8 <gpio_esp32_config+0x18>
400d44dd:	f21c      	movi.n	a2, 31
400d44df:	0ab237        	bgeu	a2, a3, 400d44ed <gpio_esp32_config+0x1d>
400d44e2:	020c      	movi.n	a2, 0
400d44e4:	000206        	j	400d44f0 <gpio_esp32_config+0x20>
400d44e7:	00          	.byte 00
400d44e8:	020c      	movi.n	a2, 0
400d44ea:	000086        	j	400d44f0 <gpio_esp32_config+0x20>
400d44ed:	20a022        	movi	a2, 32
400d44f0:	802320        	add	a2, a3, a2
400d44f3:	01a052        	movi	a5, 1
400d44f6:	401300        	ssl	a3
400d44f9:	a15500        	sll	a5, a5
400d44fc:	efcc81        	l32r	a8, 400d042c <_image_irom_vaddr+0x40c> (effffff <CONFIG_SYS_CLOCK_HW_CYCLES_PER_SEC+0xb1e3ff>)
400d44ff:	0d8587        	bany	a5, a8, 400d4510 <gpio_esp32_config+0x40>
400d4502:	5b4c      	movi.n	a11, 69
400d4504:	efcba1        	l32r	a10, 400d0430 <_image_irom_vaddr+0x410> (3f4044f8 <entropy_esp32_api_funcs+0x8>)
400d4507:	fc4025        	call8	400d0908 <z_log_minimal_printk>
400d450a:	a26c      	movi.n	a2, -22
400d450c:	00e546        	j	400d48a5 <gpio_esp32_config+0x3d5>
400d450f:	00          	.byte 00
400d4510:	006350        	rsil	a5, 3
400d4513:	27a082        	movi	a8, 39
400d4516:	313827        	bltu	a8, a2, 400d454b <gpio_esp32_config+0x7b>
400d4519:	efc681        	l32r	a8, 400d0434 <_image_irom_vaddr+0x414> (3f403b98 <rtc_io_num_map>)
400d451c:	a08280        	addx4	a8, a2, a8
400d451f:	002882        	l32i	a8, a8, 0
400d4522:	025896        	bltz	a8, 400d454b <gpio_esp32_config+0x7b>
400d4525:	efbcb1        	l32r	a11, 400d0418 <_image_irom_vaddr+0x3f8> (3f4037a8 <rtc_io_desc>)
400d4528:	f09880        	subx8	a9, a8, a8
400d452b:	b099b0        	addx8	a9, a9, a11
400d452e:	0029a2        	l32i	a10, a9, 0
400d4531:	0020c0        	memw
400d4534:	0a98      	l32i.n	a9, a10, 0
400d4536:	f08880        	subx8	a8, a8, a8
400d4539:	b088b0        	addx8	a8, a8, a11
400d453c:	18b8      	l32i.n	a11, a8, 4
400d453e:	f87c      	movi.n	a8, -1
400d4540:	3088b0        	xor	a8, a8, a11
400d4543:	108980        	and	a8, a9, a8
400d4546:	0020c0        	memw
400d4549:	0a89      	s32i.n	a8, a10, 0
400d454b:	782c      	movi.n	a8, 39
400d454d:	0cb827        	bgeu	a8, a2, 400d455d <gpio_esp32_config+0x8d>
400d4550:	5b4c      	movi.n	a11, 69
400d4552:	efb9a1        	l32r	a10, 400d0438 <_image_irom_vaddr+0x418> (3f40451c <entropy_esp32_api_funcs+0x2c>)
400d4555:	fc3b25        	call8	400d0908 <z_log_minimal_printk>
400d4558:	a26c      	movi.n	a2, -22
400d455a:	00d046        	j	400d489f <gpio_esp32_config+0x3cf>
400d455d:	efb781        	l32r	a8, 400d043c <_image_irom_vaddr+0x41c> (3f403708 <GPIO_PIN_MUX_REG>)
400d4560:	a08280        	addx4	a8, a2, a8
400d4563:	0898      	l32i.n	a9, a8, 0
400d4565:	0020c0        	memw
400d4568:	0988      	l32i.n	a8, a9, 0
400d456a:	ef54a1        	l32r	a10, 400d02bc <_image_irom_vaddr+0x29c> (ffff8fff <_rtc_bss_end+0xafff8fff>)
400d456d:	1088a0        	and	a8, a8, a10
400d4570:	eebba1        	l32r	a10, 400d005c <_image_irom_vaddr+0x3c> (2000 <CONFIG_HEAP_MEM_POOL_SIZE+0x1000>)
400d4573:	2088a0        	or	a8, a8, a10
400d4576:	0020c0        	memw
400d4579:	0989      	s32i.n	a8, a9, 0
400d457b:	4d6447        	bbci	a4, 4, 400d45cc <gpio_esp32_config+0xfc>
400d457e:	efad81        	l32r	a8, 400d0434 <_image_irom_vaddr+0x414> (3f403b98 <rtc_io_num_map>)
400d4581:	a08280        	addx4	a8, a2, a8
400d4584:	0888      	l32i.n	a8, a8, 0
400d4586:	004896        	bltz	a8, 400d458e <gpio_esp32_config+0xbe>
400d4589:	180c      	movi.n	a8, 1
400d458b:	000046        	j	400d4590 <gpio_esp32_config+0xc0>
400d458e:	080c      	movi.n	a8, 0
400d4590:	98dc      	bnez.n	a8, 400d45ad <gpio_esp32_config+0xdd>
400d4592:	efaa81        	l32r	a8, 400d043c <_image_irom_vaddr+0x41c> (3f403708 <GPIO_PIN_MUX_REG>)
400d4595:	a08280        	addx4	a8, a2, a8
400d4598:	0898      	l32i.n	a9, a8, 0
400d459a:	0020c0        	memw
400d459d:	0988      	l32i.n	a8, a9, 0
400d459f:	00a1a2        	movi	a10, 0x100
400d45a2:	2088a0        	or	a8, a8, a10
400d45a5:	0020c0        	memw
400d45a8:	0989      	s32i.n	a8, a9, 0
400d45aa:	001a86        	j	400d4618 <gpio_esp32_config+0x148>
400d45ad:	efa181        	l32r	a8, 400d0434 <_image_irom_vaddr+0x414> (3f403b98 <rtc_io_num_map>)
400d45b0:	a08280        	addx4	a8, a2, a8
400d45b3:	08a8      	l32i.n	a10, a8, 0
400d45b5:	f08aa0        	subx8	a8, a10, a10
400d45b8:	ef9891        	l32r	a9, 400d0418 <_image_irom_vaddr+0x3f8> (3f4037a8 <rtc_io_desc>)
400d45bb:	b08890        	addx8	a8, a8, a9
400d45be:	4888      	l32i.n	a8, a8, 16
400d45c0:	2d1816        	beqz	a8, 400d4895 <gpio_esp32_config+0x3c5>
400d45c3:	ffca65        	call8	400d4268 <rtcio_ll_pullup_enable>
400d45c6:	001386        	j	400d4618 <gpio_esp32_config+0x148>
400d45c9:	00          	.byte 00
400d45ca:	00          	.byte 00
400d45cb:	00          	.byte 00
400d45cc:	ef9a81        	l32r	a8, 400d0434 <_image_irom_vaddr+0x414> (3f403b98 <rtc_io_num_map>)
400d45cf:	a08280        	addx4	a8, a2, a8
400d45d2:	0888      	l32i.n	a8, a8, 0
400d45d4:	004896        	bltz	a8, 400d45dc <gpio_esp32_config+0x10c>
400d45d7:	180c      	movi.n	a8, 1
400d45d9:	000046        	j	400d45de <gpio_esp32_config+0x10e>
400d45dc:	080c      	movi.n	a8, 0
400d45de:	b8dc      	bnez.n	a8, 400d45fd <gpio_esp32_config+0x12d>
400d45e0:	ef9781        	l32r	a8, 400d043c <_image_irom_vaddr+0x41c> (3f403708 <GPIO_PIN_MUX_REG>)
400d45e3:	a08280        	addx4	a8, a2, a8
400d45e6:	0898      	l32i.n	a9, a8, 0
400d45e8:	0020c0        	memw
400d45eb:	0988      	l32i.n	a8, a9, 0
400d45ed:	ffaea2        	movi	a10, 0xfffffeff
400d45f0:	1088a0        	and	a8, a8, a10
400d45f3:	0020c0        	memw
400d45f6:	0989      	s32i.n	a8, a9, 0
400d45f8:	000706        	j	400d4618 <gpio_esp32_config+0x148>
400d45fb:	00          	.byte 00
400d45fc:	00          	.byte 00
400d45fd:	ef8d81        	l32r	a8, 400d0434 <_image_irom_vaddr+0x414> (3f403b98 <rtc_io_num_map>)
400d4600:	a08280        	addx4	a8, a2, a8
400d4603:	0028a2        	l32i	a10, a8, 0
400d4606:	f08aa0        	subx8	a8, a10, a10
400d4609:	ef8391        	l32r	a9, 400d0418 <_image_irom_vaddr+0x3f8> (3f4037a8 <rtc_io_desc>)
400d460c:	b08890        	addx8	a8, a8, a9
400d460f:	042882        	l32i	a8, a8, 16
400d4612:	002816        	beqz	a8, 400d4618 <gpio_esp32_config+0x148>
400d4615:	ffc7a5        	call8	400d4290 <rtcio_ll_pullup_disable>
400d4618:	2a6417        	bbci	a4, 1, 400d4646 <gpio_esp32_config+0x176>
400d461b:	196427        	bbci	a4, 2, 400d4638 <gpio_esp32_config+0x168>
400d461e:	1698      	l32i.n	a9, a6, 4
400d4620:	20c282        	addi	a8, a2, 32
400d4623:	a08890        	addx4	a8, a8, a9
400d4626:	0020c0        	memw
400d4629:	2898      	l32i.n	a9, a8, 8
400d462b:	4a0c      	movi.n	a10, 4
400d462d:	2099a0        	or	a9, a9, a10
400d4630:	0020c0        	memw
400d4633:	2899      	s32i.n	a9, a8, 8
400d4635:	000906        	j	400d465d <gpio_esp32_config+0x18d>
400d4638:	5b4c      	movi.n	a11, 69
400d463a:	ef81a1        	l32r	a10, 400d0440 <_image_irom_vaddr+0x420> (3f404530 <entropy_esp32_api_funcs+0x40>)
400d463d:	fc2ca5        	call8	400d0908 <z_log_minimal_printk>
400d4640:	7aaf22        	movi	a2, -134
400d4643:	009606        	j	400d489f <gpio_esp32_config+0x3cf>
400d4646:	1698      	l32i.n	a9, a6, 4
400d4648:	20c282        	addi	a8, a2, 32
400d464b:	a08890        	addx4	a8, a8, a9
400d464e:	0020c0        	memw
400d4651:	2898      	l32i.n	a9, a8, 8
400d4653:	ba7c      	movi.n	a10, -5
400d4655:	1099a0        	and	a9, a9, a10
400d4658:	0020c0        	memw
400d465b:	2899      	s32i.n	a9, a8, 8
400d465d:	4b6457        	bbci	a4, 5, 400d46ac <gpio_esp32_config+0x1dc>
400d4660:	ef7581        	l32r	a8, 400d0434 <_image_irom_vaddr+0x414> (3f403b98 <rtc_io_num_map>)
400d4663:	a08280        	addx4	a8, a2, a8
400d4666:	0888      	l32i.n	a8, a8, 0
400d4668:	004896        	bltz	a8, 400d4670 <gpio_esp32_config+0x1a0>
400d466b:	180c      	movi.n	a8, 1
400d466d:	000046        	j	400d4672 <gpio_esp32_config+0x1a2>
400d4670:	080c      	movi.n	a8, 0
400d4672:	a8dc      	bnez.n	a8, 400d4690 <gpio_esp32_config+0x1c0>
400d4674:	ef7281        	l32r	a8, 400d043c <_image_irom_vaddr+0x41c> (3f403708 <GPIO_PIN_MUX_REG>)
400d4677:	a08280        	addx4	a8, a2, a8
400d467a:	0898      	l32i.n	a9, a8, 0
400d467c:	0020c0        	memw
400d467f:	0988      	l32i.n	a8, a9, 0
400d4681:	80a0a2        	movi	a10, 128
400d4684:	2088a0        	or	a8, a8, a10
400d4687:	0020c0        	memw
400d468a:	0989      	s32i.n	a8, a9, 0
400d468c:	001a06        	j	400d46f8 <gpio_esp32_config+0x228>
400d468f:	00          	.byte 00
400d4690:	ef6981        	l32r	a8, 400d0434 <_image_irom_vaddr+0x414> (3f403b98 <rtc_io_num_map>)
400d4693:	a08280        	addx4	a8, a2, a8
400d4696:	08a8      	l32i.n	a10, a8, 0
400d4698:	f08aa0        	subx8	a8, a10, a10
400d469b:	ef5f91        	l32r	a9, 400d0418 <_image_irom_vaddr+0x3f8> (3f4037a8 <rtc_io_desc>)
400d469e:	b08890        	addx8	a8, a8, a9
400d46a1:	5888      	l32i.n	a8, a8, 20
400d46a3:	1f5816        	beqz	a8, 400d489c <gpio_esp32_config+0x3cc>
400d46a6:	ffc165        	call8	400d42bc <rtcio_ll_pulldown_enable>
400d46a9:	0012c6        	j	400d46f8 <gpio_esp32_config+0x228>
400d46ac:	ef6281        	l32r	a8, 400d0434 <_image_irom_vaddr+0x414> (3f403b98 <rtc_io_num_map>)
400d46af:	a08280        	addx4	a8, a2, a8
400d46b2:	0888      	l32i.n	a8, a8, 0
400d46b4:	004896        	bltz	a8, 400d46bc <gpio_esp32_config+0x1ec>
400d46b7:	180c      	movi.n	a8, 1
400d46b9:	000046        	j	400d46be <gpio_esp32_config+0x1ee>
400d46bc:	080c      	movi.n	a8, 0
400d46be:	b8dc      	bnez.n	a8, 400d46dd <gpio_esp32_config+0x20d>
400d46c0:	ef5f81        	l32r	a8, 400d043c <_image_irom_vaddr+0x41c> (3f403708 <GPIO_PIN_MUX_REG>)
400d46c3:	a08280        	addx4	a8, a2, a8
400d46c6:	0898      	l32i.n	a9, a8, 0
400d46c8:	0020c0        	memw
400d46cb:	0988      	l32i.n	a8, a9, 0
400d46cd:	7fafa2        	movi	a10, -129
400d46d0:	1088a0        	and	a8, a8, a10
400d46d3:	0020c0        	memw
400d46d6:	0989      	s32i.n	a8, a9, 0
400d46d8:	000706        	j	400d46f8 <gpio_esp32_config+0x228>
400d46db:	00          	.byte 00
400d46dc:	00          	.byte 00
400d46dd:	ef5581        	l32r	a8, 400d0434 <_image_irom_vaddr+0x414> (3f403b98 <rtc_io_num_map>)
400d46e0:	a08280        	addx4	a8, a2, a8
400d46e3:	0028a2        	l32i	a10, a8, 0
400d46e6:	f08aa0        	subx8	a8, a10, a10
400d46e9:	ef4b91        	l32r	a9, 400d0418 <_image_irom_vaddr+0x3f8> (3f4037a8 <rtc_io_desc>)
400d46ec:	b08890        	addx8	a8, a8, a9
400d46ef:	052882        	l32i	a8, a8, 20
400d46f2:	002816        	beqz	a8, 400d46f8 <gpio_esp32_config+0x228>
400d46f5:	ffbee5        	call8	400d42e4 <rtcio_ll_pulldown_disable>
400d46f8:	02f417        	bbsi	a4, 17, 400d46fe <gpio_esp32_config+0x22e>
400d46fb:	005386        	j	400d484d <gpio_esp32_config+0x37d>
400d46fe:	ef4b81        	l32r	a8, 400d042c <_image_irom_vaddr+0x40c> (effffff <CONFIG_SYS_CLOCK_HW_CYCLES_PER_SEC+0xb1e3ff>)
400d4701:	0cd837        	bbs	a8, a3, 400d4711 <gpio_esp32_config+0x241>
400d4704:	5b4c      	movi.n	a11, 69
400d4706:	ef4fa1        	l32r	a10, 400d0444 <_image_irom_vaddr+0x424> (3f404558 <entropy_esp32_api_funcs+0x68>)
400d4709:	fc1fe5        	call8	400d0908 <z_log_minimal_printk>
400d470c:	a26c      	movi.n	a2, -22
400d470e:	006346        	j	400d489f <gpio_esp32_config+0x3cf>
400d4711:	00a632        	movi	a3, 0x600
400d4714:	103430        	and	a3, a4, a3
400d4717:	938c      	beqz.n	a3, 400d4724 <gpio_esp32_config+0x254>
400d4719:	00a682        	movi	a8, 0x600
400d471c:	4c1387        	beq	a3, a8, 400d476c <gpio_esp32_config+0x29c>
400d471f:	a26c      	movi.n	a2, -22
400d4721:	005e86        	j	400d489f <gpio_esp32_config+0x3cf>
400d4724:	ef4431        	l32r	a3, 400d0434 <_image_irom_vaddr+0x414> (3f403b98 <rtc_io_num_map>)
400d4727:	a03230        	addx4	a3, a2, a3
400d472a:	0338      	l32i.n	a3, a3, 0
400d472c:	004396        	bltz	a3, 400d4734 <gpio_esp32_config+0x264>
400d472f:	130c      	movi.n	a3, 1
400d4731:	000046        	j	400d4736 <gpio_esp32_config+0x266>
400d4734:	030c      	movi.n	a3, 0
400d4736:	f3dc      	bnez.n	a3, 400d4759 <gpio_esp32_config+0x289>
400d4738:	ef4131        	l32r	a3, 400d043c <_image_irom_vaddr+0x41c> (3f403708 <GPIO_PIN_MUX_REG>)
400d473b:	a03230        	addx4	a3, a2, a3
400d473e:	0388      	l32i.n	a8, a3, 0
400d4740:	0020c0        	memw
400d4743:	0838      	l32i.n	a3, a8, 0
400d4745:	ef4091        	l32r	a9, 400d0448 <_image_irom_vaddr+0x428> (fffff3ff <_rtc_bss_end+0xaffff3ff>)
400d4748:	103390        	and	a3, a3, a9
400d474b:	ef4091        	l32r	a9, 400d044c <_image_irom_vaddr+0x42c> (c00 <CONFIG_ISR_STACK_SIZE+0x400>)
400d474e:	203390        	or	a3, a3, a9
400d4751:	0020c0        	memw
400d4754:	0839      	s32i.n	a3, a8, 0
400d4756:	001486        	j	400d47ac <gpio_esp32_config+0x2dc>
400d4759:	ef3631        	l32r	a3, 400d0434 <_image_irom_vaddr+0x414> (3f403b98 <rtc_io_num_map>)
400d475c:	a03230        	addx4	a3, a2, a3
400d475f:	3b0c      	movi.n	a11, 3
400d4761:	03a8      	l32i.n	a10, a3, 0
400d4763:	ffabe5        	call8	400d4220 <rtcio_ll_set_drive_capability>
400d4766:	001086        	j	400d47ac <gpio_esp32_config+0x2dc>
400d4769:	00          	.byte 00
400d476a:	00          	.byte 00
400d476b:	00          	.byte 00
400d476c:	ef3231        	l32r	a3, 400d0434 <_image_irom_vaddr+0x414> (3f403b98 <rtc_io_num_map>)
400d476f:	a03230        	addx4	a3, a2, a3
400d4772:	0338      	l32i.n	a3, a3, 0
400d4774:	004396        	bltz	a3, 400d477c <gpio_esp32_config+0x2ac>
400d4777:	130c      	movi.n	a3, 1
400d4779:	000046        	j	400d477e <gpio_esp32_config+0x2ae>
400d477c:	030c      	movi.n	a3, 0
400d477e:	b3dc      	bnez.n	a3, 400d479d <gpio_esp32_config+0x2cd>
400d4780:	ef2f31        	l32r	a3, 400d043c <_image_irom_vaddr+0x41c> (3f403708 <GPIO_PIN_MUX_REG>)
400d4783:	a03230        	addx4	a3, a2, a3
400d4786:	0388      	l32i.n	a8, a3, 0
400d4788:	0020c0        	memw
400d478b:	0838      	l32i.n	a3, a8, 0
400d478d:	ef2e91        	l32r	a9, 400d0448 <_image_irom_vaddr+0x428> (fffff3ff <_rtc_bss_end+0xaffff3ff>)
400d4790:	103390        	and	a3, a3, a9
400d4793:	0020c0        	memw
400d4796:	0839      	s32i.n	a3, a8, 0
400d4798:	000406        	j	400d47ac <gpio_esp32_config+0x2dc>
400d479b:	00          	.byte 00
400d479c:	00          	.byte 00
400d479d:	ef2531        	l32r	a3, 400d0434 <_image_irom_vaddr+0x414> (3f403b98 <rtc_io_num_map>)
400d47a0:	a03230        	addx4	a3, a2, a3
400d47a3:	00a0b2        	movi	a11, 0
400d47a6:	0023a2        	l32i	a10, a3, 0
400d47a9:	ffa765        	call8	400d4220 <rtcio_ll_set_drive_capability>
400d47ac:	20b220        	or	a11, a2, a2
400d47af:	ef28a1        	l32r	a10, 400d0450 <_image_irom_vaddr+0x430> (3ff44000 <GPIO>)
400d47b2:	012b65        	call8	400d5a68 <gpio_ll_output_enable>
400d47b5:	0d0c      	movi.n	a13, 0
400d47b7:	0dcd      	mov.n	a12, a13
400d47b9:	00a1b2        	movi	a11, 0x100
400d47bc:	02ad      	mov.n	a10, a2
400d47be:	ef2581        	l32r	a8, 400d0454 <_image_irom_vaddr+0x434> (40009f0c <esp_rom_gpio_connect_out_signal>)
400d47c1:	0008e0        	callx8	a8
400d47c4:	407437        	bbci	a4, 19, 400d4808 <gpio_esp32_config+0x338>
400d47c7:	1668      	l32i.n	a6, a6, 4
400d47c9:	f81c      	movi.n	a8, 31
400d47cb:	112827        	blt	a8, a2, 400d47e0 <gpio_esp32_config+0x310>
400d47ce:	130c      	movi.n	a3, 1
400d47d0:	401200        	ssl	a2
400d47d3:	a13300        	sll	a3, a3
400d47d6:	0020c0        	memw
400d47d9:	2639      	s32i.n	a3, a6, 8
400d47db:	001d86        	j	400d4855 <gpio_esp32_config+0x385>
400d47de:	00          	.byte 00
400d47df:	00          	.byte 00
400d47e0:	0020c0        	memw
400d47e3:	5638      	l32i.n	a3, a6, 20
400d47e5:	0020c0        	memw
400d47e8:	1139      	s32i.n	a3, a1, 4
400d47ea:	130c      	movi.n	a3, 1
400d47ec:	401200        	ssl	a2
400d47ef:	a13300        	sll	a3, a3
400d47f2:	743030        	extui	a3, a3, 0, 8
400d47f5:	0020c0        	memw
400d47f8:	044132        	s8i	a3, a1, 4
400d47fb:	0020c0        	memw
400d47fe:	1138      	l32i.n	a3, a1, 4
400d4800:	0020c0        	memw
400d4803:	5639      	s32i.n	a3, a6, 20
400d4805:	001306        	j	400d4855 <gpio_esp32_config+0x385>
400d4808:	497427        	bbci	a4, 18, 400d4855 <gpio_esp32_config+0x385>
400d480b:	1668      	l32i.n	a6, a6, 4
400d480d:	f81c      	movi.n	a8, 31
400d480f:	112827        	blt	a8, a2, 400d4824 <gpio_esp32_config+0x354>
400d4812:	130c      	movi.n	a3, 1
400d4814:	401200        	ssl	a2
400d4817:	a13300        	sll	a3, a3
400d481a:	0020c0        	memw
400d481d:	3639      	s32i.n	a3, a6, 12
400d481f:	000c86        	j	400d4855 <gpio_esp32_config+0x385>
400d4822:	00          	.byte 00
400d4823:	00          	.byte 00
400d4824:	0020c0        	memw
400d4827:	6638      	l32i.n	a3, a6, 24
400d4829:	0020c0        	memw
400d482c:	0139      	s32i.n	a3, a1, 0
400d482e:	130c      	movi.n	a3, 1
400d4830:	401200        	ssl	a2
400d4833:	a13300        	sll	a3, a3
400d4836:	743030        	extui	a3, a3, 0, 8
400d4839:	0020c0        	memw
400d483c:	004132        	s8i	a3, a1, 0
400d483f:	0020c0        	memw
400d4842:	0138      	l32i.n	a3, a1, 0
400d4844:	0020c0        	memw
400d4847:	6639      	s32i.n	a3, a6, 24
400d4849:	000206        	j	400d4855 <gpio_esp32_config+0x385>
400d484c:	00          	.byte 00
400d484d:	02bd      	mov.n	a11, a2
400d484f:	ef00a1        	l32r	a10, 400d0450 <_image_irom_vaddr+0x430> (3ff44000 <GPIO>)
400d4852:	ff97e5        	call8	400d41d0 <gpio_ll_output_disable>
400d4855:	1f7407        	bbci	a4, 16, 400d4878 <gpio_esp32_config+0x3a8>
400d4858:	eef931        	l32r	a3, 400d043c <_image_irom_vaddr+0x41c> (3f403708 <GPIO_PIN_MUX_REG>)
400d485b:	a02230        	addx4	a2, a2, a3
400d485e:	0238      	l32i.n	a3, a2, 0
400d4860:	0020c0        	memw
400d4863:	0328      	l32i.n	a2, a3, 0
400d4865:	00a242        	movi	a4, 0x200
400d4868:	202240        	or	a2, a2, a4
400d486b:	0020c0        	memw
400d486e:	0329      	s32i.n	a2, a3, 0
400d4870:	020c      	movi.n	a2, 0
400d4872:	000a46        	j	400d489f <gpio_esp32_config+0x3cf>
400d4875:	00          	.byte 00
400d4876:	00          	.byte 00
400d4877:	00          	.byte 00
400d4878:	eef131        	l32r	a3, 400d043c <_image_irom_vaddr+0x41c> (3f403708 <GPIO_PIN_MUX_REG>)
400d487b:	a02230        	addx4	a2, a2, a3
400d487e:	0238      	l32i.n	a3, a2, 0
400d4880:	0020c0        	memw
400d4883:	0328      	l32i.n	a2, a3, 0
400d4885:	ffad42        	movi	a4, 0xfffffdff
400d4888:	102240        	and	a2, a2, a4
400d488b:	0020c0        	memw
400d488e:	0329      	s32i.n	a2, a3, 0
400d4890:	020c      	movi.n	a2, 0
400d4892:	000246        	j	400d489f <gpio_esp32_config+0x3cf>
400d4895:	7aaf22        	movi	a2, -134
400d4898:	0000c6        	j	400d489f <gpio_esp32_config+0x3cf>
400d489b:	00          	.byte 00
400d489c:	7aaf22        	movi	a2, -134
400d489f:	13e650        	wsr.ps	a5
400d48a2:	002010        	rsync
400d48a5:	f01d      	retw.n
	...

400d48a8 <gpio_esp32_init>:
400d48a8:	004136        	entry	a1, 32
400d48ab:	eeeb81        	l32r	a8, 400d0458 <_image_irom_vaddr+0x438> (3ffc1f38 <isr_connected$0>)
400d48ae:	000882        	l8ui	a8, a8, 0
400d48b1:	017856        	bnez	a8, 400d48cc <gpio_esp32_init+0x24>
400d48b4:	00a0e2        	movi	a14, 0
400d48b7:	20d220        	or	a13, a2, a2
400d48ba:	eee8c1        	l32r	a12, 400d045c <_image_irom_vaddr+0x43c> (40080a04 <gpio_esp32_isr>)
400d48bd:	0ebd      	mov.n	a11, a14
400d48bf:	6a1c      	movi.n	a10, 22
400d48c1:	ff0825        	call8	400d3944 <esp_intr_alloc>
400d48c4:	eee521        	l32r	a2, 400d0458 <_image_irom_vaddr+0x438> (3ffc1f38 <isr_connected$0>)
400d48c7:	180c      	movi.n	a8, 1
400d48c9:	004282        	s8i	a8, a2, 0
400d48cc:	020c      	movi.n	a2, 0
400d48ce:	f01d      	retw.n

400d48d0 <gpio_ll_output_disable>:
400d48d0:	006136        	entry	a1, 48
400d48d3:	f81c      	movi.n	a8, 31
400d48d5:	0f2837        	blt	a8, a3, 400d48e8 <gpio_ll_output_disable+0x18>
400d48d8:	180c      	movi.n	a8, 1
400d48da:	401300        	ssl	a3
400d48dd:	a18800        	sll	a8, a8
400d48e0:	0020c0        	memw
400d48e3:	a289      	s32i.n	a8, a2, 40
400d48e5:	000906        	j	400d490d <gpio_ll_output_disable+0x3d>
400d48e8:	0020c0        	memw
400d48eb:	d288      	l32i.n	a8, a2, 52
400d48ed:	0020c0        	memw
400d48f0:	0189      	s32i.n	a8, a1, 0
400d48f2:	180c      	movi.n	a8, 1
400d48f4:	401300        	ssl	a3
400d48f7:	a18800        	sll	a8, a8
400d48fa:	748080        	extui	a8, a8, 0, 8
400d48fd:	0020c0        	memw
400d4900:	004182        	s8i	a8, a1, 0
400d4903:	0020c0        	memw
400d4906:	0188      	l32i.n	a8, a1, 0
400d4908:	0020c0        	memw
400d490b:	d289      	s32i.n	a8, a2, 52
400d490d:	eec121        	l32r	a2, 400d0414 <_image_irom_vaddr+0x3f4> (ffd114c <CONFIG_SYS_CLOCK_HW_CYCLES_PER_SEC+0x1aef54c>)
400d4910:	332a      	add.n	a3, a3, a2
400d4912:	1133e0        	slli	a3, a3, 2
400d4915:	00a122        	movi	a2, 0x100
400d4918:	0020c0        	memw
400d491b:	0329      	s32i.n	a2, a3, 0
400d491d:	f01d      	retw.n
	...

400d4920 <rtcio_ll_pullup_enable>:
400d4920:	004136        	entry	a1, 32
400d4923:	f08220        	subx8	a8, a2, a2
400d4926:	eebc91        	l32r	a9, 400d0418 <_image_irom_vaddr+0x3f8> (3f4037a8 <rtc_io_desc>)
400d4929:	b08890        	addx8	a8, a8, a9
400d492c:	4888      	l32i.n	a8, a8, 16
400d492e:	389c      	beqz.n	a8, 400d4945 <rtcio_ll_pullup_enable+0x25>
400d4930:	f02220        	subx8	a2, a2, a2
400d4933:	b02290        	addx8	a2, a2, a9
400d4936:	0228      	l32i.n	a2, a2, 0
400d4938:	0020c0        	memw
400d493b:	0298      	l32i.n	a9, a2, 0
400d493d:	208890        	or	a8, a8, a9
400d4940:	0020c0        	memw
400d4943:	0289      	s32i.n	a8, a2, 0
400d4945:	f01d      	retw.n
	...

400d4948 <rtcio_ll_pullup_disable>:
400d4948:	004136        	entry	a1, 32
400d494b:	f08220        	subx8	a8, a2, a2
400d494e:	eeb291        	l32r	a9, 400d0418 <_image_irom_vaddr+0x3f8> (3f4037a8 <rtc_io_desc>)
400d4951:	b08890        	addx8	a8, a8, a9
400d4954:	4888      	l32i.n	a8, a8, 16
400d4956:	889c      	beqz.n	a8, 400d4972 <rtcio_ll_pullup_disable+0x2a>
400d4958:	f02220        	subx8	a2, a2, a2
400d495b:	b02290        	addx8	a2, a2, a9
400d495e:	02a8      	l32i.n	a10, a2, 0
400d4960:	0020c0        	memw
400d4963:	0a28      	l32i.n	a2, a10, 0
400d4965:	f97c      	movi.n	a9, -1
400d4967:	308980        	xor	a8, a9, a8
400d496a:	102280        	and	a2, a2, a8
400d496d:	0020c0        	memw
400d4970:	0a29      	s32i.n	a2, a10, 0
400d4972:	f01d      	retw.n

400d4974 <rtcio_ll_pulldown_enable>:
400d4974:	004136        	entry	a1, 32
400d4977:	f08220        	subx8	a8, a2, a2
400d497a:	eea791        	l32r	a9, 400d0418 <_image_irom_vaddr+0x3f8> (3f4037a8 <rtc_io_desc>)
400d497d:	b08890        	addx8	a8, a8, a9
400d4980:	5888      	l32i.n	a8, a8, 20
400d4982:	389c      	beqz.n	a8, 400d4999 <rtcio_ll_pulldown_enable+0x25>
400d4984:	f02220        	subx8	a2, a2, a2
400d4987:	b02290        	addx8	a2, a2, a9
400d498a:	0228      	l32i.n	a2, a2, 0
400d498c:	0020c0        	memw
400d498f:	0298      	l32i.n	a9, a2, 0
400d4991:	208890        	or	a8, a8, a9
400d4994:	0020c0        	memw
400d4997:	0289      	s32i.n	a8, a2, 0
400d4999:	f01d      	retw.n
	...

400d499c <rtcio_ll_pulldown_disable>:
400d499c:	004136        	entry	a1, 32
400d499f:	f08220        	subx8	a8, a2, a2
400d49a2:	ee9d91        	l32r	a9, 400d0418 <_image_irom_vaddr+0x3f8> (3f4037a8 <rtc_io_desc>)
400d49a5:	b08890        	addx8	a8, a8, a9
400d49a8:	5888      	l32i.n	a8, a8, 20
400d49aa:	889c      	beqz.n	a8, 400d49c6 <rtcio_ll_pulldown_disable+0x2a>
400d49ac:	f02220        	subx8	a2, a2, a2
400d49af:	b02290        	addx8	a2, a2, a9
400d49b2:	02a8      	l32i.n	a10, a2, 0
400d49b4:	0020c0        	memw
400d49b7:	0a28      	l32i.n	a2, a10, 0
400d49b9:	f97c      	movi.n	a9, -1
400d49bb:	308980        	xor	a8, a9, a8
400d49be:	102280        	and	a2, a2, a8
400d49c1:	0020c0        	memw
400d49c4:	0a29      	s32i.n	a2, a10, 0
400d49c6:	f01d      	retw.n

400d49c8 <esp32_pin_apply_config>:
400d49c8:	006136        	entry	a1, 48
400d49cb:	140c      	movi.n	a4, 1
400d49cd:	401200        	ssl	a2
400d49d0:	a14400        	sll	a4, a4
400d49d3:	ee9681        	l32r	a8, 400d042c <_image_irom_vaddr+0x40c> (effffff <CONFIG_SYS_CLOCK_HW_CYCLES_PER_SEC+0xb1e3ff>)
400d49d6:	028487        	bany	a4, a8, 400d49dc <esp32_pin_apply_config+0x14>
400d49d9:	009706        	j	400d4c39 <esp32_pin_apply_config+0x271>
400d49dc:	782c      	movi.n	a8, 39
400d49de:	2f3827        	bltu	a8, a2, 400d4a11 <esp32_pin_apply_config+0x49>
400d49e1:	ee9481        	l32r	a8, 400d0434 <_image_irom_vaddr+0x414> (3f403b98 <rtc_io_num_map>)
400d49e4:	a08280        	addx4	a8, a2, a8
400d49e7:	0888      	l32i.n	a8, a8, 0
400d49e9:	024896        	bltz	a8, 400d4a11 <esp32_pin_apply_config+0x49>
400d49ec:	ee8bb1        	l32r	a11, 400d0418 <_image_irom_vaddr+0x3f8> (3f4037a8 <rtc_io_desc>)
400d49ef:	f09880        	subx8	a9, a8, a8
400d49f2:	b099b0        	addx8	a9, a9, a11
400d49f5:	09a8      	l32i.n	a10, a9, 0
400d49f7:	0020c0        	memw
400d49fa:	0a98      	l32i.n	a9, a10, 0
400d49fc:	f08880        	subx8	a8, a8, a8
400d49ff:	b088b0        	addx8	a8, a8, a11
400d4a02:	1858      	l32i.n	a5, a8, 4
400d4a04:	f87c      	movi.n	a8, -1
400d4a06:	308850        	xor	a8, a8, a5
400d4a09:	108980        	and	a8, a9, a8
400d4a0c:	0020c0        	memw
400d4a0f:	0a89      	s32i.n	a8, a10, 0
400d4a11:	782c      	movi.n	a8, 39
400d4a13:	02b827        	bgeu	a8, a2, 400d4a19 <esp32_pin_apply_config+0x51>
400d4a16:	008906        	j	400d4c3e <esp32_pin_apply_config+0x276>
400d4a19:	ee8881        	l32r	a8, 400d043c <_image_irom_vaddr+0x41c> (3f403708 <GPIO_PIN_MUX_REG>)
400d4a1c:	a08280        	addx4	a8, a2, a8
400d4a1f:	0898      	l32i.n	a9, a8, 0
400d4a21:	0020c0        	memw
400d4a24:	0988      	l32i.n	a8, a9, 0
400d4a26:	ee25a1        	l32r	a10, 400d02bc <_image_irom_vaddr+0x29c> (ffff8fff <_rtc_bss_end+0xafff8fff>)
400d4a29:	1088a0        	and	a8, a8, a10
400d4a2c:	ed8ca1        	l32r	a10, 400d005c <_image_irom_vaddr+0x3c> (2000 <CONFIG_HEAP_MEM_POOL_SIZE+0x1000>)
400d4a2f:	2088a0        	or	a8, a8, a10
400d4a32:	0020c0        	memw
400d4a35:	0989      	s32i.n	a8, a9, 0
400d4a37:	646317        	bbci	a3, 1, 400d4a9f <esp32_pin_apply_config+0xd7>
400d4a3a:	ee7e81        	l32r	a8, 400d0434 <_image_irom_vaddr+0x414> (3f403b98 <rtc_io_num_map>)
400d4a3d:	a08280        	addx4	a8, a2, a8
400d4a40:	0888      	l32i.n	a8, a8, 0
400d4a42:	004896        	bltz	a8, 400d4a4a <esp32_pin_apply_config+0x82>
400d4a45:	180c      	movi.n	a8, 1
400d4a47:	000046        	j	400d4a4c <esp32_pin_apply_config+0x84>
400d4a4a:	080c      	movi.n	a8, 0
400d4a4c:	98ec      	bnez.n	a8, 400d4a79 <esp32_pin_apply_config+0xb1>
400d4a4e:	ee7b81        	l32r	a8, 400d043c <_image_irom_vaddr+0x41c> (3f403708 <GPIO_PIN_MUX_REG>)
400d4a51:	a08280        	addx4	a8, a2, a8
400d4a54:	0888      	l32i.n	a8, a8, 0
400d4a56:	0020c0        	memw
400d4a59:	0898      	l32i.n	a9, a8, 0
400d4a5b:	7faf52        	movi	a5, -129
400d4a5e:	109950        	and	a9, a9, a5
400d4a61:	0020c0        	memw
400d4a64:	0899      	s32i.n	a9, a8, 0
400d4a66:	0020c0        	memw
400d4a69:	0898      	l32i.n	a9, a8, 0
400d4a6b:	00a152        	movi	a5, 0x100
400d4a6e:	209950        	or	a9, a9, a5
400d4a71:	0020c0        	memw
400d4a74:	0899      	s32i.n	a9, a8, 0
400d4a76:	002286        	j	400d4b04 <esp32_pin_apply_config+0x13c>
400d4a79:	ee6e51        	l32r	a5, 400d0434 <_image_irom_vaddr+0x414> (3f403b98 <rtc_io_num_map>)
400d4a7c:	a05250        	addx4	a5, a2, a5
400d4a7f:	002552        	l32i	a5, a5, 0
400d4a82:	20a550        	or	a10, a5, a5
400d4a85:	fff165        	call8	400d499c <rtcio_ll_pulldown_disable>
400d4a88:	f08550        	subx8	a8, a5, a5
400d4a8b:	ee6391        	l32r	a9, 400d0418 <_image_irom_vaddr+0x3f8> (3f4037a8 <rtc_io_desc>)
400d4a8e:	b08890        	addx8	a8, a8, a9
400d4a91:	4888      	l32i.n	a8, a8, 16
400d4a93:	1ac816        	beqz	a8, 400d4c43 <esp32_pin_apply_config+0x27b>
400d4a96:	20a550        	or	a10, a5, a5
400d4a99:	ffe865        	call8	400d4920 <rtcio_ll_pullup_enable>
400d4a9c:	001906        	j	400d4b04 <esp32_pin_apply_config+0x13c>
400d4a9f:	616327        	bbci	a3, 2, 400d4b04 <esp32_pin_apply_config+0x13c>
400d4aa2:	ee6481        	l32r	a8, 400d0434 <_image_irom_vaddr+0x414> (3f403b98 <rtc_io_num_map>)
400d4aa5:	a08280        	addx4	a8, a2, a8
400d4aa8:	0858      	l32i.n	a5, a8, 0
400d4aaa:	004596        	bltz	a5, 400d4ab2 <esp32_pin_apply_config+0xea>
400d4aad:	150c      	movi.n	a5, 1
400d4aaf:	000046        	j	400d4ab4 <esp32_pin_apply_config+0xec>
400d4ab2:	050c      	movi.n	a5, 0
400d4ab4:	95ec      	bnez.n	a5, 400d4ae1 <esp32_pin_apply_config+0x119>
400d4ab6:	ee6151        	l32r	a5, 400d043c <_image_irom_vaddr+0x41c> (3f403708 <GPIO_PIN_MUX_REG>)
400d4ab9:	a05250        	addx4	a5, a2, a5
400d4abc:	0588      	l32i.n	a8, a5, 0
400d4abe:	0020c0        	memw
400d4ac1:	0858      	l32i.n	a5, a8, 0
400d4ac3:	ffae92        	movi	a9, 0xfffffeff
400d4ac6:	105590        	and	a5, a5, a9
400d4ac9:	0020c0        	memw
400d4acc:	0859      	s32i.n	a5, a8, 0
400d4ace:	0020c0        	memw
400d4ad1:	0858      	l32i.n	a5, a8, 0
400d4ad3:	80a092        	movi	a9, 128
400d4ad6:	205590        	or	a5, a5, a9
400d4ad9:	0020c0        	memw
400d4adc:	0859      	s32i.n	a5, a8, 0
400d4ade:	000886        	j	400d4b04 <esp32_pin_apply_config+0x13c>
400d4ae1:	ee5451        	l32r	a5, 400d0434 <_image_irom_vaddr+0x414> (3f403b98 <rtc_io_num_map>)
400d4ae4:	a05250        	addx4	a5, a2, a5
400d4ae7:	002552        	l32i	a5, a5, 0
400d4aea:	20a550        	or	a10, a5, a5
400d4aed:	ffe865        	call8	400d4974 <rtcio_ll_pulldown_enable>
400d4af0:	f08550        	subx8	a8, a5, a5
400d4af3:	ee4991        	l32r	a9, 400d0418 <_image_irom_vaddr+0x3f8> (3f4037a8 <rtc_io_desc>)
400d4af6:	b08890        	addx8	a8, a8, a9
400d4af9:	4888      	l32i.n	a8, a8, 16
400d4afb:	14a816        	beqz	a8, 400d4c49 <esp32_pin_apply_config+0x281>
400d4afe:	20a550        	or	a10, a5, a5
400d4b01:	ffe465        	call8	400d4948 <rtcio_ll_pullup_disable>
400d4b04:	02e367        	bbsi	a3, 6, 400d4b0a <esp32_pin_apply_config+0x142>
400d4b07:	003986        	j	400d4bf1 <esp32_pin_apply_config+0x229>
400d4b0a:	ee4881        	l32r	a8, 400d042c <_image_irom_vaddr+0x40c> (effffff <CONFIG_SYS_CLOCK_HW_CYCLES_PER_SEC+0xb1e3ff>)
400d4b0d:	028487        	bany	a4, a8, 400d4b13 <esp32_pin_apply_config+0x14b>
400d4b10:	004f06        	j	400d4c50 <esp32_pin_apply_config+0x288>
400d4b13:	1a6347        	bbci	a3, 4, 400d4b31 <esp32_pin_apply_config+0x169>
400d4b16:	20c242        	addi	a4, a2, 32
400d4b19:	ee5151        	l32r	a5, 400d0460 <_image_irom_vaddr+0x440> (3ff44000 <GPIO>)
400d4b1c:	a04450        	addx4	a4, a4, a5
400d4b1f:	0020c0        	memw
400d4b22:	2488      	l32i.n	a8, a4, 8
400d4b24:	450c      	movi.n	a5, 4
400d4b26:	208850        	or	a8, a8, a5
400d4b29:	0020c0        	memw
400d4b2c:	2489      	s32i.n	a8, a4, 8
400d4b2e:	0005c6        	j	400d4b49 <esp32_pin_apply_config+0x181>
400d4b31:	20c242        	addi	a4, a2, 32
400d4b34:	ee4b51        	l32r	a5, 400d0460 <_image_irom_vaddr+0x440> (3ff44000 <GPIO>)
400d4b37:	a04450        	addx4	a4, a4, a5
400d4b3a:	0020c0        	memw
400d4b3d:	2488      	l32i.n	a8, a4, 8
400d4b3f:	b57c      	movi.n	a5, -5
400d4b41:	108850        	and	a8, a8, a5
400d4b44:	0020c0        	memw
400d4b47:	2489      	s32i.n	a8, a4, 8
400d4b49:	436377        	bbci	a3, 7, 400d4b90 <esp32_pin_apply_config+0x1c8>
400d4b4c:	f41c      	movi.n	a4, 31
400d4b4e:	122427        	blt	a4, a2, 400d4b64 <esp32_pin_apply_config+0x19c>
400d4b51:	140c      	movi.n	a4, 1
400d4b53:	401200        	ssl	a2
400d4b56:	a14400        	sll	a4, a4
400d4b59:	ee4151        	l32r	a5, 400d0460 <_image_irom_vaddr+0x440> (3ff44000 <GPIO>)
400d4b5c:	0020c0        	memw
400d4b5f:	2549      	s32i.n	a4, a5, 8
400d4b61:	001c06        	j	400d4bd5 <esp32_pin_apply_config+0x20d>
400d4b64:	ee3f51        	l32r	a5, 400d0460 <_image_irom_vaddr+0x440> (3ff44000 <GPIO>)
400d4b67:	0020c0        	memw
400d4b6a:	5548      	l32i.n	a4, a5, 20
400d4b6c:	0020c0        	memw
400d4b6f:	1149      	s32i.n	a4, a1, 4
400d4b71:	140c      	movi.n	a4, 1
400d4b73:	401200        	ssl	a2
400d4b76:	a14400        	sll	a4, a4
400d4b79:	744040        	extui	a4, a4, 0, 8
400d4b7c:	0020c0        	memw
400d4b7f:	044142        	s8i	a4, a1, 4
400d4b82:	0020c0        	memw
400d4b85:	1148      	l32i.n	a4, a1, 4
400d4b87:	0020c0        	memw
400d4b8a:	5549      	s32i.n	a4, a5, 20
400d4b8c:	001146        	j	400d4bd5 <esp32_pin_apply_config+0x20d>
400d4b8f:	00          	.byte 00
400d4b90:	416387        	bbci	a3, 8, 400d4bd5 <esp32_pin_apply_config+0x20d>
400d4b93:	f41c      	movi.n	a4, 31
400d4b95:	132427        	blt	a4, a2, 400d4bac <esp32_pin_apply_config+0x1e4>
400d4b98:	140c      	movi.n	a4, 1
400d4b9a:	401200        	ssl	a2
400d4b9d:	a14400        	sll	a4, a4
400d4ba0:	ee3051        	l32r	a5, 400d0460 <_image_irom_vaddr+0x440> (3ff44000 <GPIO>)
400d4ba3:	0020c0        	memw
400d4ba6:	3549      	s32i.n	a4, a5, 12
400d4ba8:	000a46        	j	400d4bd5 <esp32_pin_apply_config+0x20d>
400d4bab:	00          	.byte 00
400d4bac:	ee2d51        	l32r	a5, 400d0460 <_image_irom_vaddr+0x440> (3ff44000 <GPIO>)
400d4baf:	0020c0        	memw
400d4bb2:	6548      	l32i.n	a4, a5, 24
400d4bb4:	0020c0        	memw
400d4bb7:	0149      	s32i.n	a4, a1, 0
400d4bb9:	140c      	movi.n	a4, 1
400d4bbb:	401200        	ssl	a2
400d4bbe:	a14400        	sll	a4, a4
400d4bc1:	744040        	extui	a4, a4, 0, 8
400d4bc4:	0020c0        	memw
400d4bc7:	004142        	s8i	a4, a1, 0
400d4bca:	0020c0        	memw
400d4bcd:	0148      	l32i.n	a4, a1, 0
400d4bcf:	0020c0        	memw
400d4bd2:	066542        	s32i	a4, a5, 24
400d4bd5:	02bd      	mov.n	a11, a2
400d4bd7:	ee1ea1        	l32r	a10, 400d0450 <_image_irom_vaddr+0x430> (3ff44000 <GPIO>)
400d4bda:	010be5        	call8	400d5c98 <gpio_ll_output_enable>
400d4bdd:	0d0c      	movi.n	a13, 0
400d4bdf:	0dcd      	mov.n	a12, a13
400d4be1:	00a1b2        	movi	a11, 0x100
400d4be4:	02ad      	mov.n	a10, a2
400d4be6:	ee1b81        	l32r	a8, 400d0454 <_image_irom_vaddr+0x434> (40009f0c <esp_rom_gpio_connect_out_signal>)
400d4be9:	0008e0        	callx8	a8
400d4bec:	000286        	j	400d4bfa <esp32_pin_apply_config+0x232>
400d4bef:	00          	.byte 00
400d4bf0:	00          	.byte 00
400d4bf1:	20b220        	or	a11, a2, a2
400d4bf4:	ee17a1        	l32r	a10, 400d0450 <_image_irom_vaddr+0x430> (3ff44000 <GPIO>)
400d4bf7:	ffcda5        	call8	400d48d0 <gpio_ll_output_disable>
400d4bfa:	1e6357        	bbci	a3, 5, 400d4c1c <esp32_pin_apply_config+0x254>
400d4bfd:	ee0f31        	l32r	a3, 400d043c <_image_irom_vaddr+0x41c> (3f403708 <GPIO_PIN_MUX_REG>)
400d4c00:	a03230        	addx4	a3, a2, a3
400d4c03:	002332        	l32i	a3, a3, 0
400d4c06:	0020c0        	memw
400d4c09:	002322        	l32i	a2, a3, 0
400d4c0c:	00a242        	movi	a4, 0x200
400d4c0f:	202240        	or	a2, a2, a4
400d4c12:	0020c0        	memw
400d4c15:	0329      	s32i.n	a2, a3, 0
400d4c17:	020c      	movi.n	a2, 0
400d4c19:	000d46        	j	400d4c52 <esp32_pin_apply_config+0x28a>
400d4c1c:	ee0831        	l32r	a3, 400d043c <_image_irom_vaddr+0x41c> (3f403708 <GPIO_PIN_MUX_REG>)
400d4c1f:	a02230        	addx4	a2, a2, a3
400d4c22:	0238      	l32i.n	a3, a2, 0
400d4c24:	0020c0        	memw
400d4c27:	0328      	l32i.n	a2, a3, 0
400d4c29:	ffad42        	movi	a4, 0xfffffdff
400d4c2c:	102240        	and	a2, a2, a4
400d4c2f:	0020c0        	memw
400d4c32:	0329      	s32i.n	a2, a3, 0
400d4c34:	020c      	movi.n	a2, 0
400d4c36:	000606        	j	400d4c52 <esp32_pin_apply_config+0x28a>
400d4c39:	a26c      	movi.n	a2, -22
400d4c3b:	0004c6        	j	400d4c52 <esp32_pin_apply_config+0x28a>
400d4c3e:	a26c      	movi.n	a2, -22
400d4c40:	000386        	j	400d4c52 <esp32_pin_apply_config+0x28a>
400d4c43:	7aaf22        	movi	a2, -134
400d4c46:	000206        	j	400d4c52 <esp32_pin_apply_config+0x28a>
400d4c49:	7aaf22        	movi	a2, -134
400d4c4c:	000086        	j	400d4c52 <esp32_pin_apply_config+0x28a>
400d4c4f:	00          	.byte 00
400d4c50:	a26c      	movi.n	a2, -22
400d4c52:	f01d      	retw.n

400d4c54 <esp32_pin_configure>:
400d4c54:	004136        	entry	a1, 32
400d4c57:	545020        	extui	a5, a2, 0, 6
400d4c5a:	846620        	extui	a6, a2, 6, 9
400d4c5d:	847f20        	extui	a7, a2, 15, 9
400d4c60:	042c      	movi.n	a4, 32
400d4c62:	102240        	and	a2, a2, a4
400d4c65:	140c      	movi.n	a4, 1
400d4c67:	080c      	movi.n	a8, 0
400d4c69:	834820        	moveqz	a4, a8, a2
400d4c6c:	edfe81        	l32r	a8, 400d0464 <_image_irom_vaddr+0x444> (3f4045cc <esp32_gpio_ports_addrs>)
400d4c6f:	a04480        	addx4	a4, a4, a8
400d4c72:	0448      	l32i.n	a4, a4, 0
400d4c74:	0d9416        	beqz	a4, 400d4d51 <esp32_pin_configure+0xfd>
400d4c77:	144030        	extui	a4, a3, 0, 2
400d4c7a:	0a2426        	beqi	a4, 2, 400d4c88 <esp32_pin_configure+0x34>
400d4c7d:	053466        	bnei	a4, 3, 400d4c86 <esp32_pin_configure+0x32>
400d4c80:	440c      	movi.n	a4, 4
400d4c82:	000086        	j	400d4c88 <esp32_pin_configure+0x34>
400d4c85:	00          	.byte 00
400d4c86:	040c      	movi.n	a4, 0
400d4c88:	148230        	extui	a8, a3, 2, 2
400d4c8b:	051826        	beqi	a8, 1, 400d4c94 <esp32_pin_configure+0x40>
400d4c8e:	0a2826        	beqi	a8, 2, 400d4c9c <esp32_pin_configure+0x48>
400d4c91:	000306        	j	400d4ca1 <esp32_pin_configure+0x4d>
400d4c94:	880c      	movi.n	a8, 8
400d4c96:	204480        	or	a4, a4, a8
400d4c99:	000106        	j	400d4ca1 <esp32_pin_configure+0x4d>
400d4c9c:	081c      	movi.n	a8, 16
400d4c9e:	204480        	or	a4, a4, a8
400d4ca1:	01ae92        	movi	a9, 0xfffffe01
400d4ca4:	c69a      	add.n	a12, a6, a9
400d4ca6:	180c      	movi.n	a8, 1
400d4ca8:	0a0c      	movi.n	a10, 0
400d4caa:	0abd      	mov.n	a11, a10
400d4cac:	83b8c0        	moveqz	a11, a8, a12
400d4caf:	979a      	add.n	a9, a7, a9
400d4cb1:	938a90        	movnez	a8, a10, a9
400d4cb4:	0208b7        	bnone	a8, a11, 400d4cba <esp32_pin_configure+0x66>
400d4cb7:	002746        	j	400d4d58 <esp32_pin_configure+0x104>
400d4cba:	ffa182        	movi	a8, 0x1ff
400d4cbd:	041687        	beq	a6, a8, 400d4cc5 <esp32_pin_configure+0x71>
400d4cc0:	082c      	movi.n	a8, 32
400d4cc2:	204480        	or	a4, a4, a8
400d4cc5:	ffa182        	movi	a8, 0x1ff
400d4cc8:	041787        	beq	a7, a8, 400d4cd0 <esp32_pin_configure+0x7c>
400d4ccb:	084c      	movi.n	a8, 64
400d4ccd:	204480        	or	a4, a4, a8
400d4cd0:	143430        	extui	a3, a3, 4, 2
400d4cd3:	051326        	beqi	a3, 1, 400d4cdc <esp32_pin_configure+0x88>
400d4cd6:	0b2326        	beqi	a3, 2, 400d4ce5 <esp32_pin_configure+0x91>
400d4cd9:	000386        	j	400d4ceb <esp32_pin_configure+0x97>
400d4cdc:	80a032        	movi	a3, 128
400d4cdf:	204430        	or	a4, a4, a3
400d4ce2:	000146        	j	400d4ceb <esp32_pin_configure+0x97>
400d4ce5:	00a132        	movi	a3, 0x100
400d4ce8:	204430        	or	a4, a4, a3
400d4ceb:	196477        	bbci	a4, 7, 400d4d08 <esp32_pin_configure+0xb4>
400d4cee:	a2cc      	bnez.n	a2, 400d4cfc <esp32_pin_configure+0xa8>
400d4cf0:	eddc31        	l32r	a3, 400d0460 <_image_irom_vaddr+0x440> (3ff44000 <GPIO>)
400d4cf3:	0020c0        	memw
400d4cf6:	2359      	s32i.n	a5, a3, 8
400d4cf8:	000306        	j	400d4d08 <esp32_pin_configure+0xb4>
400d4cfb:	00          	.byte 00
400d4cfc:	743050        	extui	a3, a5, 0, 8
400d4cff:	edda81        	l32r	a8, 400d0468 <_image_irom_vaddr+0x448> (3ff44800 <GPIO+0x800>)
400d4d02:	0020c0        	memw
400d4d05:	144832        	s8i	a3, a8, 20
400d4d08:	186487        	bbci	a4, 8, 400d4d24 <esp32_pin_configure+0xd0>
400d4d0b:	92cc      	bnez.n	a2, 400d4d18 <esp32_pin_configure+0xc4>
400d4d0d:	edd421        	l32r	a2, 400d0460 <_image_irom_vaddr+0x440> (3ff44000 <GPIO>)
400d4d10:	0020c0        	memw
400d4d13:	3259      	s32i.n	a5, a2, 12
400d4d15:	0002c6        	j	400d4d24 <esp32_pin_configure+0xd0>
400d4d18:	742050        	extui	a2, a5, 0, 8
400d4d1b:	edd331        	l32r	a3, 400d0468 <_image_irom_vaddr+0x448> (3ff44800 <GPIO+0x800>)
400d4d1e:	0020c0        	memw
400d4d21:	184322        	s8i	a2, a3, 24
400d4d24:	04bd      	mov.n	a11, a4
400d4d26:	20a550        	or	a10, a5, a5
400d4d29:	ffc9e5        	call8	400d49c8 <esp32_pin_apply_config>
400d4d2c:	0d6467        	bbci	a4, 6, 400d4d3d <esp32_pin_configure+0xe9>
400d4d2f:	0d0c      	movi.n	a13, 0
400d4d31:	0dcd      	mov.n	a12, a13
400d4d33:	07bd      	mov.n	a11, a7
400d4d35:	05ad      	mov.n	a10, a5
400d4d37:	edc781        	l32r	a8, 400d0454 <_image_irom_vaddr+0x434> (40009f0c <esp_rom_gpio_connect_out_signal>)
400d4d3a:	0008e0        	callx8	a8
400d4d3d:	1d6457        	bbci	a4, 5, 400d4d5e <esp32_pin_configure+0x10a>
400d4d40:	0c0c      	movi.n	a12, 0
400d4d42:	06bd      	mov.n	a11, a6
400d4d44:	05ad      	mov.n	a10, a5
400d4d46:	edc981        	l32r	a8, 400d046c <_image_irom_vaddr+0x44c> (40009edc <esp_rom_gpio_connect_in_signal>)
400d4d49:	0008e0        	callx8	a8
400d4d4c:	020c      	movi.n	a2, 0
400d4d4e:	000386        	j	400d4d60 <esp32_pin_configure+0x10c>
400d4d51:	a26c      	movi.n	a2, -22
400d4d53:	000246        	j	400d4d60 <esp32_pin_configure+0x10c>
400d4d56:	00          	.byte 00
400d4d57:	00          	.byte 00
400d4d58:	7aaf22        	movi	a2, -134
400d4d5b:	000046        	j	400d4d60 <esp32_pin_configure+0x10c>
400d4d5e:	020c      	movi.n	a2, 0
400d4d60:	f01d      	retw.n
	...

400d4d64 <pinctrl_configure_pins>:
400d4d64:	004136        	entry	a1, 32
400d4d67:	743030        	extui	a3, a3, 0, 8
400d4d6a:	040c      	movi.n	a4, 0
400d4d6c:	000546        	j	400d4d85 <pinctrl_configure_pins+0x21>
400d4d6f:	00          	.byte 00
400d4d70:	b08420        	addx8	a8, a4, a2
400d4d73:	0128b2        	l32i	a11, a8, 4
400d4d76:	0028a2        	l32i	a10, a8, 0
400d4d79:	ffeda5        	call8	400d4c54 <esp32_pin_configure>
400d4d7c:	00aa96        	bltz	a10, 400d4d8a <pinctrl_configure_pins+0x26>
400d4d7f:	01c442        	addi	a4, a4, 1
400d4d82:	744040        	extui	a4, a4, 0, 8
400d4d85:	e73437        	bltu	a4, a3, 400d4d70 <pinctrl_configure_pins+0xc>
400d4d88:	0a0c      	movi.n	a10, 0
400d4d8a:	0a2d      	mov.n	a2, a10
400d4d8c:	f01d      	retw.n
	...

400d4d90 <uart_esp32_config_get>:
400d4d90:	006136        	entry	a1, 48
400d4d93:	042222        	l32i	a2, a2, 16
400d4d96:	002282        	l32i	a8, a2, 0
400d4d99:	006382        	s32i	a8, a3, 0
400d4d9c:	228b      	addi.n	a2, a2, 8
400d4d9e:	01bd      	mov.n	a11, a1
400d4da0:	02ad      	mov.n	a10, a2
400d4da2:	00b5e5        	call8	400d5900 <uart_hal_get_parity>
400d4da5:	0188      	l32i.n	a8, a1, 0
400d4da7:	0b2826        	beqi	a8, 2, 400d4db6 <uart_esp32_config_get+0x26>
400d4daa:	103826        	beqi	a8, 3, 400d4dbe <uart_esp32_config_get+0x2e>
400d4dad:	0af856        	bnez	a8, 400d4e60 <uart_esp32_config_get+0xd0>
400d4db0:	044382        	s8i	a8, a3, 4
400d4db3:	000346        	j	400d4dc4 <uart_esp32_config_get+0x34>
400d4db6:	280c      	movi.n	a8, 2
400d4db8:	044382        	s8i	a8, a3, 4
400d4dbb:	000146        	j	400d4dc4 <uart_esp32_config_get+0x34>
400d4dbe:	01a082        	movi	a8, 1
400d4dc1:	044382        	s8i	a8, a3, 4
400d4dc4:	04c1b2        	addi	a11, a1, 4
400d4dc7:	20a220        	or	a10, a2, a2
400d4dca:	00a9e5        	call8	400d5868 <uart_hal_get_stop_bits>
400d4dcd:	1188      	l32i.n	a8, a1, 4
400d4dcf:	0e2826        	beqi	a8, 2, 400d4de1 <uart_esp32_config_get+0x51>
400d4dd2:	133826        	beqi	a8, 3, 400d4de9 <uart_esp32_config_get+0x59>
400d4dd5:	021826        	beqi	a8, 1, 400d4ddb <uart_esp32_config_get+0x4b>
400d4dd8:	002306        	j	400d4e68 <uart_esp32_config_get+0xd8>
400d4ddb:	054382        	s8i	a8, a3, 5
400d4dde:	000346        	j	400d4def <uart_esp32_config_get+0x5f>
400d4de1:	280c      	movi.n	a8, 2
400d4de3:	054382        	s8i	a8, a3, 5
400d4de6:	000146        	j	400d4def <uart_esp32_config_get+0x5f>
400d4de9:	03a082        	movi	a8, 3
400d4dec:	054382        	s8i	a8, a3, 5
400d4def:	08c1b2        	addi	a11, a1, 8
400d4df2:	20a220        	or	a10, a2, a2
400d4df5:	00abe5        	call8	400d58b4 <uart_hal_get_data_bit_num>
400d4df8:	2188      	l32i.n	a8, a1, 8
400d4dfa:	272826        	beqi	a8, 2, 400d4e25 <uart_esp32_config_get+0x95>
400d4dfd:	0b38f6        	bgeui	a8, 3, 400d4e0c <uart_esp32_config_get+0x7c>
400d4e00:	189c      	beqz.n	a8, 400d4e15 <uart_esp32_config_get+0x85>
400d4e02:	171826        	beqi	a8, 1, 400d4e1d <uart_esp32_config_get+0x8d>
400d4e05:	7aaf22        	movi	a2, -134
400d4e08:	0017c6        	j	400d4e6b <uart_esp32_config_get+0xdb>
400d4e0b:	00          	.byte 00
400d4e0c:	1d3826        	beqi	a8, 3, 400d4e2d <uart_esp32_config_get+0x9d>
400d4e0f:	7aaf22        	movi	a2, -134
400d4e12:	001546        	j	400d4e6b <uart_esp32_config_get+0xdb>
400d4e15:	080c      	movi.n	a8, 0
400d4e17:	064382        	s8i	a8, a3, 6
400d4e1a:	000546        	j	400d4e33 <uart_esp32_config_get+0xa3>
400d4e1d:	180c      	movi.n	a8, 1
400d4e1f:	064382        	s8i	a8, a3, 6
400d4e22:	000346        	j	400d4e33 <uart_esp32_config_get+0xa3>
400d4e25:	280c      	movi.n	a8, 2
400d4e27:	064382        	s8i	a8, a3, 6
400d4e2a:	000146        	j	400d4e33 <uart_esp32_config_get+0xa3>
400d4e2d:	03a082        	movi	a8, 3
400d4e30:	064382        	s8i	a8, a3, 6
400d4e33:	0cc1b2        	addi	a11, a1, 12
400d4e36:	20a220        	or	a10, a2, a2
400d4e39:	00aee5        	call8	400d5928 <uart_hal_get_hw_flow_ctrl>
400d4e3c:	3128      	l32i.n	a2, a1, 12
400d4e3e:	728c      	beqz.n	a2, 400d4e49 <uart_esp32_config_get+0xb9>
400d4e40:	103226        	beqi	a2, 3, 400d4e54 <uart_esp32_config_get+0xc4>
400d4e43:	7aaf22        	movi	a2, -134
400d4e46:	000846        	j	400d4e6b <uart_esp32_config_get+0xdb>
400d4e49:	020c      	movi.n	a2, 0
400d4e4b:	074322        	s8i	a2, a3, 7
400d4e4e:	020c      	movi.n	a2, 0
400d4e50:	0005c6        	j	400d4e6b <uart_esp32_config_get+0xdb>
400d4e53:	00          	.byte 00
400d4e54:	120c      	movi.n	a2, 1
400d4e56:	074322        	s8i	a2, a3, 7
400d4e59:	020c      	movi.n	a2, 0
400d4e5b:	000306        	j	400d4e6b <uart_esp32_config_get+0xdb>
400d4e5e:	00          	.byte 00
400d4e5f:	00          	.byte 00
400d4e60:	7aaf22        	movi	a2, -134
400d4e63:	000106        	j	400d4e6b <uart_esp32_config_get+0xdb>
400d4e66:	00          	.byte 00
400d4e67:	00          	.byte 00
400d4e68:	7aaf22        	movi	a2, -134
400d4e6b:	f01d      	retw.n
400d4e6d:	000000        	ill

400d4e70 <pinctrl_apply_state>:
400d4e70:	006136        	entry	a1, 48
400d4e73:	20c110        	or	a12, a1, a1
400d4e76:	20b330        	or	a11, a3, a3
400d4e79:	20a220        	or	a10, a2, a2
400d4e7c:	00dea5        	call8	400d5c68 <pinctrl_lookup_state>
400d4e7f:	00ba96        	bltz	a10, 400d4e8e <pinctrl_apply_state+0x1e>
400d4e82:	0188      	l32i.n	a8, a1, 0
400d4e84:	0c0c      	movi.n	a12, 0
400d4e86:	0408b2        	l8ui	a11, a8, 4
400d4e89:	08a8      	l32i.n	a10, a8, 0
400d4e8b:	ffeda5        	call8	400d4d64 <pinctrl_configure_pins>
400d4e8e:	0a2d      	mov.n	a2, a10
400d4e90:	f01d      	retw.n
	...

400d4e94 <uart_esp32_configure>:
400d4e94:	004136        	entry	a1, 32
400d4e97:	012252        	l32i	a5, a2, 4
400d4e9a:	4248      	l32i.n	a4, a2, 16
400d4e9c:	0b0c      	movi.n	a11, 0
400d4e9e:	15a8      	l32i.n	a10, a5, 4
400d4ea0:	fffce5        	call8	400d4e70 <pinctrl_apply_state>
400d4ea3:	202aa0        	or	a2, a10, a10
400d4ea6:	126a96        	bltz	a10, 400d4fd0 <uart_esp32_configure+0x13c>
400d4ea9:	0025a2        	l32i	a10, a5, 0
400d4eac:	ae2325        	call8	400830e0 <z_device_is_ready>
400d4eaf:	10aa16        	beqz	a10, 400d4fbd <uart_esp32_configure+0x129>
400d4eb2:	05a8      	l32i.n	a10, a5, 0
400d4eb4:	2a28      	l32i.n	a2, a10, 8
400d4eb6:	0228      	l32i.n	a2, a2, 0
400d4eb8:	25b8      	l32i.n	a11, a5, 8
400d4eba:	0002e0        	callx8	a2
400d4ebd:	248b      	addi.n	a2, a4, 8
400d4ebf:	0b0c      	movi.n	a11, 0
400d4ec1:	02ad      	mov.n	a10, a2
400d4ec3:	fc6e65        	call8	400d15a8 <uart_hal_set_sclk>
400d4ec6:	6b1c      	movi.n	a11, 22
400d4ec8:	02ad      	mov.n	a10, a2
400d4eca:	00a865        	call8	400d5950 <uart_hal_set_rxfifo_full_thr>
400d4ecd:	1b0c      	movi.n	a11, 1
400d4ecf:	02ad      	mov.n	a10, a2
400d4ed1:	fc7c25        	call8	400d1694 <uart_hal_set_txfifo_empty_thr>
400d4ed4:	02ad      	mov.n	a10, a2
400d4ed6:	fc84e5        	call8	400d1724 <uart_hal_rxfifo_rst>
400d4ed9:	040342        	l8ui	a4, a3, 4
400d4edc:	1e1426        	beqi	a4, 1, 400d4efe <uart_esp32_configure+0x6a>
400d4edf:	0f2426        	beqi	a4, 2, 400d4ef2 <uart_esp32_configure+0x5e>
400d4ee2:	0de456        	bnez	a4, 400d4fc4 <uart_esp32_configure+0x130>
400d4ee5:	0b0c      	movi.n	a11, 0
400d4ee7:	02ad      	mov.n	a10, a2
400d4ee9:	009de5        	call8	400d58c8 <uart_hal_set_parity>
400d4eec:	0005c6        	j	400d4f07 <uart_esp32_configure+0x73>
400d4eef:	00          	.byte 00
400d4ef0:	00          	.byte 00
400d4ef1:	00          	.byte 00
400d4ef2:	2b0c      	movi.n	a11, 2
400d4ef4:	02ad      	mov.n	a10, a2
400d4ef6:	009d25        	call8	400d58c8 <uart_hal_set_parity>
400d4ef9:	000286        	j	400d4f07 <uart_esp32_configure+0x73>
400d4efc:	00          	.byte 00
400d4efd:	00          	.byte 00
400d4efe:	03a0b2        	movi	a11, 3
400d4f01:	20a220        	or	a10, a2, a2
400d4f04:	009c25        	call8	400d58c8 <uart_hal_set_parity>
400d4f07:	050342        	l8ui	a4, a3, 5
400d4f0a:	142426        	beqi	a4, 2, 400d4f22 <uart_esp32_configure+0x8e>
400d4f0d:	1d3426        	beqi	a4, 3, 400d4f2e <uart_esp32_configure+0x9a>
400d4f10:	021426        	beqi	a4, 1, 400d4f16 <uart_esp32_configure+0x82>
400d4f13:	002d86        	j	400d4fcd <uart_esp32_configure+0x139>
400d4f16:	1b0c      	movi.n	a11, 1
400d4f18:	02ad      	mov.n	a10, a2
400d4f1a:	008ee5        	call8	400d5808 <uart_hal_set_stop_bits>
400d4f1d:	000586        	j	400d4f37 <uart_esp32_configure+0xa3>
400d4f20:	00          	.byte 00
400d4f21:	00          	.byte 00
400d4f22:	2b0c      	movi.n	a11, 2
400d4f24:	02ad      	mov.n	a10, a2
400d4f26:	008e25        	call8	400d5808 <uart_hal_set_stop_bits>
400d4f29:	000286        	j	400d4f37 <uart_esp32_configure+0xa3>
400d4f2c:	00          	.byte 00
400d4f2d:	00          	.byte 00
400d4f2e:	03a0b2        	movi	a11, 3
400d4f31:	20a220        	or	a10, a2, a2
400d4f34:	008d25        	call8	400d5808 <uart_hal_set_stop_bits>
400d4f37:	060342        	l8ui	a4, a3, 6
400d4f3a:	302426        	beqi	a4, 2, 400d4f6e <uart_esp32_configure+0xda>
400d4f3d:	0b34f6        	bgeui	a4, 3, 400d4f4c <uart_esp32_configure+0xb8>
400d4f40:	011416        	beqz	a4, 400d4f55 <uart_esp32_configure+0xc1>
400d4f43:	1b1426        	beqi	a4, 1, 400d4f62 <uart_esp32_configure+0xce>
400d4f46:	7aaf22        	movi	a2, -134
400d4f49:	0020c6        	j	400d4fd0 <uart_esp32_configure+0x13c>
400d4f4c:	2a3426        	beqi	a4, 3, 400d4f7a <uart_esp32_configure+0xe6>
400d4f4f:	7aaf22        	movi	a2, -134
400d4f52:	001e86        	j	400d4fd0 <uart_esp32_configure+0x13c>
400d4f55:	0b0c      	movi.n	a11, 0
400d4f57:	02ad      	mov.n	a10, a2
400d4f59:	0093a5        	call8	400d5894 <uart_hal_set_data_bit_num>
400d4f5c:	0008c6        	j	400d4f83 <uart_esp32_configure+0xef>
400d4f5f:	00          	.byte 00
400d4f60:	00          	.byte 00
400d4f61:	00          	.byte 00
400d4f62:	1b0c      	movi.n	a11, 1
400d4f64:	02ad      	mov.n	a10, a2
400d4f66:	0092e5        	call8	400d5894 <uart_hal_set_data_bit_num>
400d4f69:	000586        	j	400d4f83 <uart_esp32_configure+0xef>
400d4f6c:	00          	.byte 00
400d4f6d:	00          	.byte 00
400d4f6e:	2b0c      	movi.n	a11, 2
400d4f70:	02ad      	mov.n	a10, a2
400d4f72:	009225        	call8	400d5894 <uart_hal_set_data_bit_num>
400d4f75:	000286        	j	400d4f83 <uart_esp32_configure+0xef>
400d4f78:	00          	.byte 00
400d4f79:	00          	.byte 00
400d4f7a:	03a0b2        	movi	a11, 3
400d4f7d:	20a220        	or	a10, a2, a2
400d4f80:	009125        	call8	400d5894 <uart_hal_set_data_bit_num>
400d4f83:	070342        	l8ui	a4, a3, 7
400d4f86:	008416        	beqz	a4, 400d4f92 <uart_esp32_configure+0xfe>
400d4f89:	131426        	beqi	a4, 1, 400d4fa0 <uart_esp32_configure+0x10c>
400d4f8c:	7aaf22        	movi	a2, -134
400d4f8f:	000f46        	j	400d4fd0 <uart_esp32_configure+0x13c>
400d4f92:	0c0c      	movi.n	a12, 0
400d4f94:	0cbd      	mov.n	a11, a12
400d4f96:	20a220        	or	a10, a2, a2
400d4f99:	fc6865        	call8	400d1620 <uart_hal_set_hw_flow_ctrl>
400d4f9c:	000286        	j	400d4faa <uart_esp32_configure+0x116>
400d4f9f:	00          	.byte 00
400d4fa0:	0aa0c2        	movi	a12, 10
400d4fa3:	3b0c      	movi.n	a11, 3
400d4fa5:	02ad      	mov.n	a10, a2
400d4fa7:	fc67a5        	call8	400d1620 <uart_hal_set_hw_flow_ctrl>
400d4faa:	03b8      	l32i.n	a11, a3, 0
400d4fac:	02ad      	mov.n	a10, a2
400d4fae:	fc61e5        	call8	400d15cc <uart_hal_set_baudrate>
400d4fb1:	6b1c      	movi.n	a11, 22
400d4fb3:	02ad      	mov.n	a10, a2
400d4fb5:	fc6fe5        	call8	400d16b4 <uart_hal_set_rx_timeout>
400d4fb8:	020c      	movi.n	a2, 0
400d4fba:	000486        	j	400d4fd0 <uart_esp32_configure+0x13c>
400d4fbd:	d26c      	movi.n	a2, -19
400d4fbf:	000346        	j	400d4fd0 <uart_esp32_configure+0x13c>
400d4fc2:	00          	.byte 00
400d4fc3:	00          	.byte 00
400d4fc4:	7aaf22        	movi	a2, -134
400d4fc7:	000146        	j	400d4fd0 <uart_esp32_configure+0x13c>
400d4fca:	00          	.byte 00
400d4fcb:	00          	.byte 00
400d4fcc:	00          	.byte 00
400d4fcd:	7aaf22        	movi	a2, -134
400d4fd0:	f01d      	retw.n
	...

400d4fd4 <uart_esp32_init>:
400d4fd4:	004136        	entry	a1, 32
400d4fd7:	20a220        	or	a10, a2, a2
400d4fda:	0422b2        	l32i	a11, a2, 16
400d4fdd:	ffeb65        	call8	400d4e94 <uart_esp32_configure>
400d4fe0:	202aa0        	or	a2, a10, a10
400d4fe3:	f01d      	retw.n
400d4fe5:	000000        	ill

400d4fe8 <uart_esp32_poll_out>:
400d4fe8:	008136        	entry	a1, 64
400d4feb:	104132        	s8i	a3, a1, 16
400d4fee:	42a8      	l32i.n	a10, a2, 16
400d4ff0:	022a82        	l32i	a8, a10, 8
400d4ff3:	0020c0        	memw
400d4ff6:	072882        	l32i	a8, a8, 28
400d4ff9:	0020c0        	memw
400d4ffc:	016182        	s32i	a8, a1, 4
400d4fff:	0020c0        	memw
400d5002:	060182        	l8ui	a8, a1, 6
400d5005:	748080        	extui	a8, a8, 0, 8
400d5008:	80a092        	movi	a9, 128
400d500b:	e11897        	beq	a8, a9, 400d4ff0 <uart_esp32_poll_out+0x8>
400d500e:	01dd      	mov.n	a13, a1
400d5010:	1c0c      	movi.n	a12, 1
400d5012:	10c1b2        	addi	a11, a1, 16
400d5015:	aa8b      	addi.n	a10, a10, 8
400d5017:	fc7725        	call8	400d1788 <uart_hal_write_txfifo>
400d501a:	f01d      	retw.n

400d501c <uart_esp32_poll_in>:
400d501c:	006136        	entry	a1, 48
400d501f:	42a8      	l32i.n	a10, a2, 16
400d5021:	180c      	movi.n	a8, 1
400d5023:	0189      	s32i.n	a8, a1, 0
400d5025:	2a98      	l32i.n	a9, a10, 8
400d5027:	0020c0        	memw
400d502a:	7988      	l32i.n	a8, a9, 28
400d502c:	0020c0        	memw
400d502f:	1189      	s32i.n	a8, a1, 4
400d5031:	0020c0        	memw
400d5034:	040182        	l8ui	a8, a1, 4
400d5037:	74b080        	extui	a11, a8, 0, 8
400d503a:	0020c0        	memw
400d503d:	182982        	l32i	a8, a9, 96
400d5040:	0020c0        	memw
400d5043:	2189      	s32i.n	a8, a1, 8
400d5045:	0020c0        	memw
400d5048:	2188      	l32i.n	a8, a1, 8
400d504a:	a48d80        	extui	a8, a8, 13, 11
400d504d:	0020c0        	memw
400d5050:	2198      	l32i.n	a9, a1, 8
400d5052:	a49290        	extui	a9, a9, 2, 11
400d5055:	17b987        	bgeu	a9, a8, 400d5070 <uart_esp32_poll_in+0x54>
400d5058:	0020c0        	memw
400d505b:	2188      	l32i.n	a8, a1, 8
400d505d:	a48d80        	extui	a8, a8, 13, 11
400d5060:	0020c0        	memw
400d5063:	2198      	l32i.n	a9, a1, 8
400d5065:	a49290        	extui	a9, a9, 2, 11
400d5068:	c08890        	sub	a8, a8, a9
400d506b:	000dc6        	j	400d50a6 <uart_esp32_poll_in+0x8a>
400d506e:	00          	.byte 00
400d506f:	00          	.byte 00
400d5070:	0020c0        	memw
400d5073:	2198      	l32i.n	a9, a1, 8
400d5075:	a49d90        	extui	a9, a9, 13, 11
400d5078:	0020c0        	memw
400d507b:	2188      	l32i.n	a8, a1, 8
400d507d:	a48280        	extui	a8, a8, 2, 11
400d5080:	1ab987        	bgeu	a9, a8, 400d509e <uart_esp32_poll_in+0x82>
400d5083:	0020c0        	memw
400d5086:	2188      	l32i.n	a8, a1, 8
400d5088:	a48d80        	extui	a8, a8, 13, 11
400d508b:	80a022        	movi	a2, 128
400d508e:	882a      	add.n	a8, a8, a2
400d5090:	0020c0        	memw
400d5093:	2128      	l32i.n	a2, a1, 8
400d5095:	a42220        	extui	a2, a2, 2, 11
400d5098:	c08820        	sub	a8, a8, a2
400d509b:	0001c6        	j	400d50a6 <uart_esp32_poll_in+0x8a>
400d509e:	6bcc      	bnez.n	a11, 400d50a8 <uart_esp32_poll_in+0x8c>
400d50a0:	f27c      	movi.n	a2, -1
400d50a2:	000546        	j	400d50bb <uart_esp32_poll_in+0x9f>
400d50a5:	00          	.byte 00
400d50a6:	f88c      	beqz.n	a8, 400d50b9 <uart_esp32_poll_in+0x9d>
400d50a8:	20c110        	or	a12, a1, a1
400d50ab:	20b330        	or	a11, a3, a3
400d50ae:	08caa2        	addi	a10, a10, 8
400d50b1:	fc73e5        	call8	400d17f0 <uart_hal_read_rxfifo>
400d50b4:	020c      	movi.n	a2, 0
400d50b6:	000046        	j	400d50bb <uart_esp32_poll_in+0x9f>
400d50b9:	f27c      	movi.n	a2, -1
400d50bb:	f01d      	retw.n
400d50bd:	000000        	ill

400d50c0 <z_impl_gpio_pin_configure>:
400d50c0:	004136        	entry	a1, 32
400d50c3:	02ad      	mov.n	a10, a2
400d50c5:	03bd      	mov.n	a11, a3
400d50c7:	022292        	l32i	a9, a2, 8
400d50ca:	042282        	l32i	a8, a2, 16
400d50cd:	0b7447        	bbci	a4, 20, 400d50dc <z_impl_gpio_pin_configure+0x1c>
400d50d0:	ebd7c1        	l32r	a12, 400d002c <_image_irom_vaddr+0xc> (c0000 <_image_irom_start+0xa670c>)
400d50d3:	0504c7        	bnone	a4, a12, 400d50dc <z_impl_gpio_pin_configure+0x1c>
400d50d6:	026407        	bbci	a4, 0, 400d50dc <z_impl_gpio_pin_configure+0x1c>
400d50d9:	3044c0        	xor	a4, a4, a12
400d50dc:	ebd5c1        	l32r	a12, 400d0030 <_image_irom_vaddr+0x10> (ffefffff <_rtc_bss_end+0xafefffff>)
400d50df:	10c4c0        	and	a12, a4, a12
400d50e2:	126407        	bbci	a4, 0, 400d50f8 <z_impl_gpio_pin_configure+0x38>
400d50e5:	0848      	l32i.n	a4, a8, 0
400d50e7:	1d0c      	movi.n	a13, 1
400d50e9:	401b00        	ssl	a11
400d50ec:	a1dd00        	sll	a13, a13
400d50ef:	2044d0        	or	a4, a4, a13
400d50f2:	0849      	s32i.n	a4, a8, 0
400d50f4:	000506        	j	400d510c <z_impl_gpio_pin_configure+0x4c>
400d50f7:	00          	.byte 00
400d50f8:	0848      	l32i.n	a4, a8, 0
400d50fa:	1e0c      	movi.n	a14, 1
400d50fc:	401b00        	ssl	a11
400d50ff:	a1ee00        	sll	a14, a14
400d5102:	fd7c      	movi.n	a13, -1
400d5104:	30dde0        	xor	a13, a13, a14
400d5107:	1044d0        	and	a4, a4, a13
400d510a:	0849      	s32i.n	a4, a8, 0
400d510c:	0948      	l32i.n	a4, a9, 0
400d510e:	0004e0        	callx8	a4
400d5111:	0a2d      	mov.n	a2, a10
400d5113:	f01d      	retw.n
400d5115:	000000        	ill

400d5118 <gpio_pin_configure_dt>:
400d5118:	004136        	entry	a1, 32
400d511b:	0022a2        	l32i	a10, a2, 0
400d511e:	0402b2        	l8ui	a11, a2, 4
400d5121:	0312c2        	l16ui	a12, a2, 6
400d5124:	20cc30        	or	a12, a12, a3
400d5127:	fff9a5        	call8	400d50c0 <z_impl_gpio_pin_configure>
400d512a:	202aa0        	or	a2, a10, a10
400d512d:	000090        	retw

400d5130 <gpio_pin_set>:
400d5130:	004136        	entry	a1, 32
400d5133:	02ad      	mov.n	a10, a2
400d5135:	04cd      	mov.n	a12, a4
400d5137:	03bd      	mov.n	a11, a3
400d5139:	4288      	l32i.n	a8, a2, 16
400d513b:	0888      	l32i.n	a8, a8, 0
400d513d:	0b5837        	bbc	a8, a3, 400d514c <gpio_pin_set+0x1c>
400d5140:	01a082        	movi	a8, 1
400d5143:	00a092        	movi	a9, 0
400d5146:	938940        	movnez	a8, a9, a4
400d5149:	74c080        	extui	a12, a8, 0, 8
400d514c:	00b9e5        	call8	400d5cec <gpio_pin_set_raw>
400d514f:	0a2d      	mov.n	a2, a10
400d5151:	f01d      	retw.n
	...

400d5154 <spi_context_buffers_setup>:
400d5154:	004136        	entry	a1, 32
400d5157:	338c      	beqz.n	a3, 400d515e <spi_context_buffers_setup+0xa>
400d5159:	0388      	l32i.n	a8, a3, 0
400d515b:	000046        	j	400d5160 <spi_context_buffers_setup+0xc>
400d515e:	038d      	mov.n	a8, a3
400d5160:	146282        	s32i	a8, a2, 80
400d5163:	388c      	beqz.n	a8, 400d516a <spi_context_buffers_setup+0x16>
400d5165:	1338      	l32i.n	a3, a3, 4
400d5167:	000086        	j	400d516d <spi_context_buffers_setup+0x19>
400d516a:	00a032        	movi	a3, 0
400d516d:	156232        	s32i	a3, a2, 84
400d5170:	20d550        	or	a13, a5, a5
400d5173:	64c2c2        	addi	a12, a2, 100
400d5176:	54c2b2        	addi	a11, a2, 84
400d5179:	50c2a2        	addi	a10, a2, 80
400d517c:	00b9e5        	call8	400d5d1c <spi_context_get_next_buf>
400d517f:	1862a2        	s32i	a10, a2, 96
400d5182:	004416        	beqz	a4, 400d518a <spi_context_buffers_setup+0x36>
400d5185:	0438      	l32i.n	a3, a4, 0
400d5187:	000046        	j	400d518c <spi_context_buffers_setup+0x38>
400d518a:	043d      	mov.n	a3, a4
400d518c:	166232        	s32i	a3, a2, 88
400d518f:	338c      	beqz.n	a3, 400d5196 <spi_context_buffers_setup+0x42>
400d5191:	1438      	l32i.n	a3, a4, 4
400d5193:	000086        	j	400d5199 <spi_context_buffers_setup+0x45>
400d5196:	00a032        	movi	a3, 0
400d5199:	176232        	s32i	a3, a2, 92
400d519c:	20d550        	or	a13, a5, a5
400d519f:	6cc2c2        	addi	a12, a2, 108
400d51a2:	5cc2b2        	addi	a11, a2, 92
400d51a5:	58c2a2        	addi	a10, a2, 88
400d51a8:	00b725        	call8	400d5d1c <spi_context_get_next_buf>
400d51ab:	1a62a2        	s32i	a10, a2, 104
400d51ae:	00a032        	movi	a3, 0
400d51b1:	106232        	s32i	a3, a2, 64
400d51b4:	f01d      	retw.n
	...

400d51b8 <_spi_context_cs_control>:
400d51b8:	004136        	entry	a1, 32
400d51bb:	002282        	l32i	a8, a2, 0
400d51be:	03b816        	beqz	a8, 400d51fd <_spi_context_cs_control+0x45>
400d51c1:	022892        	l32i	a9, a8, 8
400d51c4:	59bc      	beqz.n	a9, 400d51fd <_spi_context_cs_control+0x45>
400d51c6:	09a8      	l32i.n	a10, a9, 0
400d51c8:	1abc      	beqz.n	a10, 400d51fd <_spi_context_cs_control+0x45>
400d51ca:	239c      	beqz.n	a3, 400d51e0 <_spi_context_cs_control+0x28>
400d51cc:	1c0c      	movi.n	a12, 1
400d51ce:	0409b2        	l8ui	a11, a9, 4
400d51d1:	fff5e5        	call8	400d5130 <gpio_pin_set>
400d51d4:	0228      	l32i.n	a2, a2, 0
400d51d6:	2228      	l32i.n	a2, a2, 8
400d51d8:	22a8      	l32i.n	a10, a2, 8
400d51da:	ad9f65        	call8	40082bd0 <z_impl_k_busy_wait>
400d51dd:	000706        	j	400d51fd <_spi_context_cs_control+0x45>
400d51e0:	44cc      	bnez.n	a4, 400d51e8 <_spi_context_cs_control+0x30>
400d51e2:	021832        	l16ui	a3, a8, 4
400d51e5:	14e3c7        	bbsi	a3, 12, 400d51fd <_spi_context_cs_control+0x45>
400d51e8:	0229a2        	l32i	a10, a9, 8
400d51eb:	ad9e65        	call8	40082bd0 <z_impl_k_busy_wait>
400d51ee:	002222        	l32i	a2, a2, 0
400d51f1:	2228      	l32i.n	a2, a2, 8
400d51f3:	0c0c      	movi.n	a12, 0
400d51f5:	0402b2        	l8ui	a11, a2, 4
400d51f8:	02a8      	l32i.n	a10, a2, 0
400d51fa:	fff365        	call8	400d5130 <gpio_pin_set>
400d51fd:	f01d      	retw.n
	...

400d5200 <spi_context_unlock_unconditionally>:
400d5200:	004136        	entry	a1, 32
400d5203:	1c0c      	movi.n	a12, 1
400d5205:	0b0c      	movi.n	a11, 0
400d5207:	02ad      	mov.n	a10, a2
400d5209:	fffae5        	call8	400d51b8 <_spi_context_cs_control>
400d520c:	6288      	l32i.n	a8, a2, 24
400d520e:	68cc      	bnez.n	a8, 400d5218 <spi_context_unlock_unconditionally+0x18>
400d5210:	1289      	s32i.n	a8, a2, 4
400d5212:	10c2a2        	addi	a10, a2, 16
400d5215:	acc325        	call8	40081e48 <z_impl_k_sem_give>
400d5218:	f01d      	retw.n
	...

400d521c <spi_esp32_release>:
400d521c:	004136        	entry	a1, 32
400d521f:	42a8      	l32i.n	a10, a2, 16
400d5221:	fffde5        	call8	400d5200 <spi_context_unlock_unconditionally>
400d5224:	020c      	movi.n	a2, 0
400d5226:	f01d      	retw.n

400d5228 <spi_context_release>:
400d5228:	004136        	entry	a1, 32
400d522b:	4c0282        	l8ui	a8, a2, 76
400d522e:	002816        	beqz	a8, 400d5234 <spi_context_release+0xc>
400d5231:	00b3d6        	bgez	a3, 400d5240 <spi_context_release+0x18>
400d5234:	00a032        	movi	a3, 0
400d5237:	016232        	s32i	a3, a2, 4
400d523a:	10c2a2        	addi	a10, a2, 16
400d523d:	acc0a5        	call8	40081e48 <z_impl_k_sem_give>
400d5240:	000090        	retw
	...

400d5244 <spi_context_complete>:
400d5244:	004136        	entry	a1, 32
400d5247:	4c0282        	l8ui	a8, a2, 76
400d524a:	b8cc      	bnez.n	a8, 400d5259 <spi_context_complete+0x15>
400d524c:	106242        	s32i	a4, a2, 64
400d524f:	28c2a2        	addi	a10, a2, 40
400d5252:	acbf65        	call8	40081e48 <z_impl_k_sem_give>
400d5255:	000906        	j	400d527d <spi_context_complete+0x39>
400d5258:	00          	.byte 00
400d5259:	112282        	l32i	a8, a2, 68
400d525c:	888c      	beqz.n	a8, 400d5268 <spi_context_complete+0x24>
400d525e:	1222c2        	l32i	a12, a2, 72
400d5261:	04bd      	mov.n	a11, a4
400d5263:	03ad      	mov.n	a10, a3
400d5265:	0008e0        	callx8	a8
400d5268:	002232        	l32i	a3, a2, 0
400d526b:	021332        	l16ui	a3, a3, 4
400d526e:	0be3d7        	bbsi	a3, 13, 400d527d <spi_context_complete+0x39>
400d5271:	00a032        	movi	a3, 0
400d5274:	016232        	s32i	a3, a2, 4
400d5277:	10c2a2        	addi	a10, a2, 16
400d527a:	acbce5        	call8	40081e48 <z_impl_k_sem_give>
400d527d:	f01d      	retw.n
	...

400d5280 <spi_esp32_complete>:
400d5280:	004136        	entry	a1, 32
400d5283:	0020c0        	memw
400d5286:	0e2482        	l32i	a8, a4, 56
400d5289:	ffad92        	movi	a9, 0xfffffdff
400d528c:	108890        	and	a8, a8, a9
400d528f:	0020c0        	memw
400d5292:	0e6482        	s32i	a8, a4, 56
400d5295:	0020c0        	memw
400d5298:	e488      	l32i.n	a8, a4, 56
400d529a:	f96c      	movi.n	a9, -17
400d529c:	108890        	and	a8, a8, a9
400d529f:	0020c0        	memw
400d52a2:	e489      	s32i.n	a8, a4, 56
400d52a4:	0c0c      	movi.n	a12, 0
400d52a6:	0cbd      	mov.n	a11, a12
400d52a8:	03ad      	mov.n	a10, a3
400d52aa:	fff0e5        	call8	400d51b8 <_spi_context_cs_control>
400d52ad:	05cd      	mov.n	a12, a5
400d52af:	02bd      	mov.n	a11, a2
400d52b1:	03ad      	mov.n	a10, a3
400d52b3:	fff925        	call8	400d5244 <spi_context_complete>
400d52b6:	f01d      	retw.n

400d52b8 <spi_context_lock>:
400d52b8:	004136        	entry	a1, 32
400d52bb:	021682        	l16ui	a8, a6, 4
400d52be:	0a68d7        	bbci	a8, 13, 400d52cc <spi_context_lock+0x14>
400d52c1:	062282        	l32i	a8, a2, 24
400d52c4:	48cc      	bnez.n	a8, 400d52cc <spi_context_lock+0x14>
400d52c6:	012282        	l32i	a8, a2, 4
400d52c9:	171867        	beq	a8, a6, 400d52e4 <spi_context_lock+0x2c>
400d52cc:	10c2a2        	addi	a10, a2, 16
400d52cf:	ffafd2        	movi	a13, -1
400d52d2:	20cdd0        	or	a12, a13, a13
400d52d5:	acbb65        	call8	40081e8c <z_impl_k_sem_take>
400d52d8:	016262        	s32i	a6, a2, 4
400d52db:	4c4232        	s8i	a3, a2, 76
400d52de:	116242        	s32i	a4, a2, 68
400d52e1:	126252        	s32i	a5, a2, 72
400d52e4:	f01d      	retw.n
	...

400d52e8 <spi_esp32_get_frame_size>:
400d52e8:	004136        	entry	a1, 32
400d52eb:	021222        	l16ui	a2, a2, 4
400d52ee:	242820        	extui	a2, a2, 8, 3
400d52f1:	ffc282        	addi	a8, a2, -1
400d52f4:	748080        	extui	a8, a8, 0, 8
400d52f7:	0b48b6        	bltui	a8, 4, 400d5306 <spi_esp32_get_frame_size+0x1e>
400d52fa:	57a0b2        	movi	a11, 87
400d52fd:	ec5ca1        	l32r	a10, 400d0470 <_image_irom_vaddr+0x450> (3f4045d4 <esp32_gpio_ports_addrs+0x8>)
400d5300:	fb6065        	call8	400d0908 <z_log_minimal_printk>
400d5303:	01a022        	movi	a2, 1
400d5306:	f01d      	retw.n

400d5308 <spi_context_cs_configure_all>:
400d5308:	004136        	entry	a1, 32
400d530b:	2238      	l32i.n	a3, a2, 8
400d530d:	000ac6        	j	400d533c <spi_context_cs_configure_all+0x34>
400d5310:	0023a2        	l32i	a10, a3, 0
400d5313:	addce5        	call8	400830e0 <z_device_is_ready>
400d5316:	013a56        	bnez	a10, 400d532d <spi_context_cs_configure_all+0x25>
400d5319:	0328      	l32i.n	a2, a3, 0
400d531b:	0403d2        	l8ui	a13, a3, 4
400d531e:	02c8      	l32i.n	a12, a2, 0
400d5320:	5b4c      	movi.n	a11, 69
400d5322:	ec54a1        	l32r	a10, 400d0474 <_image_irom_vaddr+0x454> (3f404604 <esp32_gpio_ports_addrs+0x38>)
400d5325:	fb5e25        	call8	400d0908 <z_log_minimal_printk>
400d5328:	da6c      	movi.n	a10, -19
400d532a:	0006c6        	j	400d5349 <spi_context_cs_configure_all+0x41>
400d532d:	eb45b1        	l32r	a11, 400d0044 <_image_irom_vaddr+0x24> (160000 <_image_irom_start+0x14670c>)
400d5330:	20a330        	or	a10, a3, a3
400d5333:	ffde65        	call8	400d5118 <gpio_pin_configure_dt>
400d5336:	00fa96        	bltz	a10, 400d5349 <spi_context_cs_configure_all+0x41>
400d5339:	08c332        	addi	a3, a3, 8
400d533c:	022292        	l32i	a9, a2, 8
400d533f:	3288      	l32i.n	a8, a2, 12
400d5341:	b08890        	addx8	a8, a8, a9
400d5344:	c83387        	bltu	a3, a8, 400d5310 <spi_context_cs_configure_all+0x8>
400d5347:	0a0c      	movi.n	a10, 0
400d5349:	0a2d      	mov.n	a2, a10
400d534b:	f01d      	retw.n
400d534d:	000000        	ill

400d5350 <pinctrl_apply_state>:
400d5350:	006136        	entry	a1, 48
400d5353:	20c110        	or	a12, a1, a1
400d5356:	20b330        	or	a11, a3, a3
400d5359:	20a220        	or	a10, a2, a2
400d535c:	0090a5        	call8	400d5c68 <pinctrl_lookup_state>
400d535f:	00ba96        	bltz	a10, 400d536e <pinctrl_apply_state+0x1e>
400d5362:	0188      	l32i.n	a8, a1, 0
400d5364:	0c0c      	movi.n	a12, 0
400d5366:	0408b2        	l8ui	a11, a8, 4
400d5369:	08a8      	l32i.n	a10, a8, 0
400d536b:	ff9fa5        	call8	400d4d64 <pinctrl_configure_pins>
400d536e:	0a2d      	mov.n	a2, a10
400d5370:	f01d      	retw.n
	...

400d5374 <transceive>:
400d5374:	004136        	entry	a1, 32
400d5377:	07cd      	mov.n	a12, a7
400d5379:	06bd      	mov.n	a11, a6
400d537b:	1268      	l32i.n	a6, a2, 4
400d537d:	4278      	l32i.n	a7, a2, 16
400d537f:	180c      	movi.n	a8, 1
400d5381:	090c      	movi.n	a9, 0
400d5383:	09ad      	mov.n	a10, a9
400d5385:	83a840        	moveqz	a10, a8, a4
400d5388:	938950        	movnez	a8, a9, a5
400d538b:	6188a7        	bany	a8, a10, 400d53f0 <transceive+0x7c>
400d538e:	03ed      	mov.n	a14, a3
400d5390:	81d8      	l32i.n	a13, a1, 32
400d5392:	07ad      	mov.n	a10, a7
400d5394:	fff225        	call8	400d52b8 <spi_context_lock>
400d5397:	03bd      	mov.n	a11, a3
400d5399:	02ad      	mov.n	a10, a2
400d539b:	ab67e5        	call8	40080a18 <spi_esp32_configure>
400d539e:	0a2d      	mov.n	a2, a10
400d53a0:	041a56        	bnez	a10, 400d53e5 <transceive+0x71>
400d53a3:	03ad      	mov.n	a10, a3
400d53a5:	fff425        	call8	400d52e8 <spi_esp32_get_frame_size>
400d53a8:	01d732        	addmi	a3, a7, 0x100
400d53ab:	4843a2        	s8i	a10, a3, 72
400d53ae:	0add      	mov.n	a13, a10
400d53b0:	05cd      	mov.n	a12, a5
400d53b2:	04bd      	mov.n	a11, a4
400d53b4:	07ad      	mov.n	a10, a7
400d53b6:	ffd9e5        	call8	400d5154 <spi_context_buffers_setup>
400d53b9:	0c0c      	movi.n	a12, 0
400d53bb:	1b0c      	movi.n	a11, 1
400d53bd:	07ad      	mov.n	a10, a7
400d53bf:	ffdfa5        	call8	400d51b8 <_spi_context_cs_control>
400d53c2:	0648      	l32i.n	a4, a6, 0
400d53c4:	0020c0        	memw
400d53c7:	e438      	l32i.n	a3, a4, 56
400d53c9:	00a252        	movi	a5, 0x200
400d53cc:	203350        	or	a3, a3, a5
400d53cf:	0020c0        	memw
400d53d2:	e439      	s32i.n	a3, a4, 56
400d53d4:	0648      	l32i.n	a4, a6, 0
400d53d6:	0020c0        	memw
400d53d9:	e438      	l32i.n	a3, a4, 56
400d53db:	051c      	movi.n	a5, 16
400d53dd:	203350        	or	a3, a3, a5
400d53e0:	0020c0        	memw
400d53e3:	e439      	s32i.n	a3, a4, 56
400d53e5:	02bd      	mov.n	a11, a2
400d53e7:	07ad      	mov.n	a10, a7
400d53e9:	ffe3e5        	call8	400d5228 <spi_context_release>
400d53ec:	000086        	j	400d53f2 <transceive+0x7e>
400d53ef:	00          	.byte 00
400d53f0:	020c      	movi.n	a2, 0
400d53f2:	f01d      	retw.n

400d53f4 <spi_esp32_transceive_async>:
400d53f4:	006136        	entry	a1, 48
400d53f7:	0179      	s32i.n	a7, a1, 0
400d53f9:	06fd      	mov.n	a15, a6
400d53fb:	1e0c      	movi.n	a14, 1
400d53fd:	05dd      	mov.n	a13, a5
400d53ff:	04cd      	mov.n	a12, a4
400d5401:	03bd      	mov.n	a11, a3
400d5403:	02ad      	mov.n	a10, a2
400d5405:	fff6e5        	call8	400d5374 <transceive>
400d5408:	0a2d      	mov.n	a2, a10
400d540a:	f01d      	retw.n

400d540c <spi_esp32_transceive>:
400d540c:	006136        	entry	a1, 48
400d540f:	0e0c      	movi.n	a14, 0
400d5411:	01e9      	s32i.n	a14, a1, 0
400d5413:	0efd      	mov.n	a15, a14
400d5415:	05dd      	mov.n	a13, a5
400d5417:	04cd      	mov.n	a12, a4
400d5419:	03bd      	mov.n	a11, a3
400d541b:	02ad      	mov.n	a10, a2
400d541d:	fff565        	call8	400d5374 <transceive>
400d5420:	0a2d      	mov.n	a2, a10
400d5422:	f01d      	retw.n

400d5424 <spi_esp32_init_dma>:
400d5424:	004136        	entry	a1, 32
400d5427:	012242        	l32i	a4, a2, 4
400d542a:	042232        	l32i	a3, a2, 16
400d542d:	0124a2        	l32i	a10, a4, 4
400d5430:	2a28      	l32i.n	a2, a10, 8
400d5432:	0228      	l32i.n	a2, a2, 0
400d5434:	84b8      	l32i.n	a11, a4, 32
400d5436:	0002e0        	callx8	a2
400d5439:	0a2d      	mov.n	a2, a10
400d543b:	ea8c      	beqz.n	a10, 400d544d <spi_esp32_init_dma+0x29>
400d543d:	5b4c      	movi.n	a11, 69
400d543f:	ec0ea1        	l32r	a10, 400d0478 <_image_irom_vaddr+0x458> (3f404778 <esp32_gpio_ports_addrs+0x1ac>)
400d5442:	fb4c65        	call8	400d0908 <z_log_minimal_printk>
400d5445:	b27c      	movi.n	a2, -5
400d5447:	002246        	j	400d54d4 <spi_esp32_init_dma+0xb0>
400d544a:	00          	.byte 00
400d544b:	00          	.byte 00
400d544c:	00          	.byte 00
400d544d:	ec0bc1        	l32r	a12, 400d047c <_image_irom_vaddr+0x45c> (3ff005a8 <__font_entry_end+0xafbab0>)
400d5450:	0020c0        	memw
400d5453:	0c98      	l32i.n	a9, a12, 0
400d5455:	9488      	l32i.n	a8, a4, 36
400d5457:	881b      	addi.n	a8, a8, 1
400d5459:	d88a      	add.n	a13, a8, a8
400d545b:	3b0c      	movi.n	a11, 3
400d545d:	401d00        	ssl	a13
400d5460:	a1bb00        	sll	a11, a11
400d5463:	fa7c      	movi.n	a10, -1
400d5465:	30aab0        	xor	a10, a10, a11
400d5468:	1099a0        	and	a9, a9, a10
400d546b:	148080        	extui	a8, a8, 0, 2
400d546e:	401d00        	ssl	a13
400d5471:	a18800        	sll	a8, a8
400d5474:	208980        	or	a8, a9, a8
400d5477:	0020c0        	memw
400d547a:	0c89      	s32i.n	a8, a12, 0
400d547c:	0488      	l32i.n	a8, a4, 0
400d547e:	326382        	s32i	a8, a3, 200
400d5481:	336382        	s32i	a8, a3, 204
400d5484:	180c      	movi.n	a8, 1
400d5486:	d04382        	s8i	a8, a3, 208
400d5489:	9488      	l32i.n	a8, a4, 36
400d548b:	881b      	addi.n	a8, a8, 1
400d548d:	376382        	s32i	a8, a3, 220
400d5490:	9488      	l32i.n	a8, a4, 36
400d5492:	881b      	addi.n	a8, a8, 1
400d5494:	386382        	s32i	a8, a3, 224
400d5497:	180c      	movi.n	a8, 1
400d5499:	396382        	s32i	a8, a3, 228
400d549c:	5ca182        	movi	a8, 0x15c
400d549f:	838a      	add.n	a8, a3, a8
400d54a1:	366382        	s32i	a8, a3, 216
400d54a4:	50a1a2        	movi	a10, 0x150
400d54a7:	a3aa      	add.n	a10, a3, a10
400d54a9:	3563a2        	s32i	a10, a3, 212
400d54ac:	1a8c      	beqz.n	a10, 400d54b1 <spi_esp32_init_dma+0x8d>
400d54ae:	010856        	bnez	a8, 400d54c2 <spi_esp32_init_dma+0x9e>
400d54b1:	ad8f25        	call8	40082da4 <k_free>
400d54b4:	3623a2        	l32i	a10, a3, 216
400d54b7:	ad8ee5        	call8	40082da4 <k_free>
400d54ba:	427c      	movi.n	a2, -12
400d54bc:	000506        	j	400d54d4 <spi_esp32_init_dma+0xb0>
400d54bf:	00          	.byte 00
400d54c0:	00          	.byte 00
400d54c1:	00          	.byte 00
400d54c2:	0924b2        	l32i	a11, a4, 36
400d54c5:	c8a0c2        	movi	a12, 200
400d54c8:	80c3c0        	add	a12, a3, a12
400d54cb:	01cbb2        	addi	a11, a11, 1
400d54ce:	70c3a2        	addi	a10, a3, 112
400d54d1:	fb60a5        	call8	400d0adc <spi_hal_init>
400d54d4:	f01d      	retw.n
	...

400d54d8 <spi_esp32_init>:
400d54d8:	004136        	entry	a1, 32
400d54db:	012232        	l32i	a3, a2, 4
400d54de:	042242        	l32i	a4, a2, 16
400d54e1:	012382        	l32i	a8, a3, 4
400d54e4:	e8ac      	beqz.n	a8, 400d5516 <spi_esp32_init+0x3e>
400d54e6:	1d0382        	l8ui	a8, a3, 29
400d54e9:	388c      	beqz.n	a8, 400d54f0 <spi_esp32_init+0x18>
400d54eb:	02ad      	mov.n	a10, a2
400d54ed:	fff365        	call8	400d5424 <spi_esp32_init_dma>
400d54f0:	00a0e2        	movi	a14, 0
400d54f3:	02dd      	mov.n	a13, a2
400d54f5:	ebe2c1        	l32r	a12, 400d0480 <_image_irom_vaddr+0x460> (40080d9c <spi_esp32_isr>)
400d54f8:	0ebd      	mov.n	a11, a14
400d54fa:	43a8      	l32i.n	a10, a3, 16
400d54fc:	fe4465        	call8	400d3944 <esp_intr_alloc>
400d54ff:	5364a2        	s32i	a10, a4, 0x14c
400d5502:	04ad      	mov.n	a10, a4
400d5504:	ffe025        	call8	400d5308 <spi_context_cs_configure_all>
400d5507:	0a2d      	mov.n	a2, a10
400d5509:	00ba96        	bltz	a10, 400d5518 <spi_esp32_init+0x40>
400d550c:	04ad      	mov.n	a10, a4
400d550e:	ffcf25        	call8	400d5200 <spi_context_unlock_unconditionally>
400d5511:	020c      	movi.n	a2, 0
400d5513:	000046        	j	400d5518 <spi_esp32_init+0x40>
400d5516:	a26c      	movi.n	a2, -22
400d5518:	f01d      	retw.n
	...

400d551c <_OffsetAbsSyms>:
400d551c:	004136        	entry	a1, 32
400d551f:	f01d      	retw.n
400d5521:	000000        	ill

400d5524 <gpio_pin_set_raw>:
400d5524:	004136        	entry	a1, 32
400d5527:	02ad      	mov.n	a10, a2
400d5529:	449c      	beqz.n	a4, 400d5541 <gpio_pin_set_raw+0x1d>
400d552b:	1b0c      	movi.n	a11, 1
400d552d:	401300        	ssl	a3
400d5530:	a1bb00        	sll	a11, a11
400d5533:	022232        	l32i	a3, a2, 8
400d5536:	032332        	l32i	a3, a3, 12
400d5539:	0003e0        	callx8	a3
400d553c:	000406        	j	400d5550 <gpio_pin_set_raw+0x2c>
400d553f:	00          	.byte 00
400d5540:	00          	.byte 00
400d5541:	180c      	movi.n	a8, 1
400d5543:	401300        	ssl	a3
400d5546:	a1b800        	sll	a11, a8
400d5549:	2238      	l32i.n	a3, a2, 8
400d554b:	4338      	l32i.n	a3, a3, 16
400d554d:	0003e0        	callx8	a3
400d5550:	0a2d      	mov.n	a2, a10
400d5552:	f01d      	retw.n

400d5554 <user_display_swap_bytes>:
400d5554:	004136        	entry	a1, 32
400d5557:	0a0c      	movi.n	a10, 0
400d5559:	000646        	j	400d5576 <user_display_swap_bytes+0x22>
400d555c:	90ba20        	addx2	a11, a10, a2
400d555f:	001b82        	l16ui	a8, a11, 0
400d5562:	419880        	srli	a9, a8, 8
400d5565:	005b92        	s16i	a9, a11, 0
400d5568:	118880        	slli	a8, a8, 8
400d556b:	f48080        	extui	a8, a8, 0, 16
400d556e:	209980        	or	a9, a9, a8
400d5571:	005b92        	s16i	a9, a11, 0
400d5574:	aa1b      	addi.n	a10, a10, 1
400d5576:	e23a37        	bltu	a10, a3, 400d555c <user_display_swap_bytes+0x8>
400d5579:	f01d      	retw.n
	...

400d557c <hex2char>:
400d557c:	004136        	entry	a1, 32
400d557f:	742020        	extui	a2, a2, 0, 8
400d5582:	980c      	movi.n	a8, 9
400d5584:	0a3827        	bltu	a8, a2, 400d5592 <hex2char+0x16>
400d5587:	30c222        	addi	a2, a2, 48
400d558a:	004322        	s8i	a2, a3, 0
400d558d:	020c      	movi.n	a2, 0
400d558f:	000446        	j	400d55a4 <hex2char+0x28>
400d5592:	f80c      	movi.n	a8, 15
400d5594:	0a3827        	bltu	a8, a2, 400d55a2 <hex2char+0x26>
400d5597:	57c222        	addi	a2, a2, 87
400d559a:	004322        	s8i	a2, a3, 0
400d559d:	020c      	movi.n	a2, 0
400d559f:	000046        	j	400d55a4 <hex2char+0x28>
400d55a2:	a26c      	movi.n	a2, -22
400d55a4:	f01d      	retw.n
	...

400d55a8 <chunk_mem>:
400d55a8:	004136        	entry	a1, 32
400d55ab:	1133d0        	slli	a3, a3, 3
400d55ae:	334b      	addi.n	a3, a3, 4
400d55b0:	223a      	add.n	a2, a2, a3
400d55b2:	f01d      	retw.n

400d55b4 <free_list_remove_bidx>:
400d55b4:	004136        	entry	a1, 32
400d55b7:	1193d0        	slli	a9, a3, 3
400d55ba:	b08320        	addx8	a8, a3, a2
400d55bd:	031882        	l16ui	a8, a8, 6
400d55c0:	209387        	bne	a3, a8, 400d55e4 <free_list_remove_bidx+0x30>
400d55c3:	3238      	l32i.n	a3, a2, 12
400d55c5:	190c      	movi.n	a9, 1
400d55c7:	401400        	ssl	a4
400d55ca:	a19900        	sll	a9, a9
400d55cd:	f87c      	movi.n	a8, -1
400d55cf:	308890        	xor	a8, a8, a9
400d55d2:	103380        	and	a3, a3, a8
400d55d5:	3239      	s32i.n	a3, a2, 12
400d55d7:	444b      	addi.n	a4, a4, 4
400d55d9:	a04420        	addx4	a4, a4, a2
400d55dc:	020c      	movi.n	a2, 0
400d55de:	0429      	s32i.n	a2, a4, 0
400d55e0:	000806        	j	400d5604 <free_list_remove_bidx+0x50>
400d55e3:	00          	.byte 00
400d55e4:	929a      	add.n	a9, a2, a9
400d55e6:	021992        	l16ui	a9, a9, 4
400d55e9:	444b      	addi.n	a4, a4, 4
400d55eb:	a04420        	addx4	a4, a4, a2
400d55ee:	0489      	s32i.n	a8, a4, 0
400d55f0:	1139d0        	slli	a3, a9, 3
400d55f3:	336b      	addi.n	a3, a3, 6
400d55f5:	323a      	add.n	a3, a2, a3
400d55f7:	005382        	s16i	a8, a3, 0
400d55fa:	1188d0        	slli	a8, a8, 3
400d55fd:	884b      	addi.n	a8, a8, 4
400d55ff:	228a      	add.n	a2, a2, a8
400d5601:	005292        	s16i	a9, a2, 0
400d5604:	f01d      	retw.n
	...

400d5608 <free_list_add_bidx>:
400d5608:	004136        	entry	a1, 32
400d560b:	844b      	addi.n	a8, a4, 4
400d560d:	a08820        	addx4	a8, a8, a2
400d5610:	08a8      	l32i.n	a10, a8, 0
400d5612:	baec      	bnez.n	a10, 400d5641 <free_list_add_bidx+0x39>
400d5614:	3288      	l32i.n	a8, a2, 12
400d5616:	190c      	movi.n	a9, 1
400d5618:	401400        	ssl	a4
400d561b:	a19900        	sll	a9, a9
400d561e:	208890        	or	a8, a8, a9
400d5621:	3289      	s32i.n	a8, a2, 12
400d5623:	444b      	addi.n	a4, a4, 4
400d5625:	a04420        	addx4	a4, a4, a2
400d5628:	0439      	s32i.n	a3, a4, 0
400d562a:	1143d0        	slli	a4, a3, 3
400d562d:	844b      	addi.n	a8, a4, 4
400d562f:	828a      	add.n	a8, a2, a8
400d5631:	f43030        	extui	a3, a3, 0, 16
400d5634:	005832        	s16i	a3, a8, 0
400d5637:	446b      	addi.n	a4, a4, 6
400d5639:	424a      	add.n	a4, a2, a4
400d563b:	005432        	s16i	a3, a4, 0
400d563e:	000a86        	j	400d566c <free_list_add_bidx+0x64>
400d5641:	114ad0        	slli	a4, a10, 3
400d5644:	444b      	addi.n	a4, a4, 4
400d5646:	424a      	add.n	a4, a2, a4
400d5648:	001482        	l16ui	a8, a4, 0
400d564b:	1193d0        	slli	a9, a3, 3
400d564e:	b94b      	addi.n	a11, a9, 4
400d5650:	b2ba      	add.n	a11, a2, a11
400d5652:	005b82        	s16i	a8, a11, 0
400d5655:	996b      	addi.n	a9, a9, 6
400d5657:	929a      	add.n	a9, a2, a9
400d5659:	0059a2        	s16i	a10, a9, 0
400d565c:	1188d0        	slli	a8, a8, 3
400d565f:	886b      	addi.n	a8, a8, 6
400d5661:	228a      	add.n	a2, a2, a8
400d5663:	f43030        	extui	a3, a3, 0, 16
400d5666:	005232        	s16i	a3, a2, 0
400d5669:	005432        	s16i	a3, a4, 0
400d566c:	f01d      	retw.n
	...

400d5670 <split_chunks>:
400d5670:	004136        	entry	a1, 32
400d5673:	1183d0        	slli	a8, a3, 3
400d5676:	882b      	addi.n	a8, a8, 2
400d5678:	828a      	add.n	a8, a2, a8
400d567a:	001892        	l16ui	a9, a8, 0
400d567d:	419190        	srli	a9, a9, 1
400d5680:	c0a430        	sub	a10, a4, a3
400d5683:	c03340        	sub	a3, a3, a4
400d5686:	339a      	add.n	a3, a3, a9
400d5688:	9aaa      	add.n	a9, a10, a10
400d568a:	005892        	s16i	a9, a8, 0
400d568d:	b33a      	add.n	a11, a3, a3
400d568f:	1194d0        	slli	a9, a4, 3
400d5692:	892b      	addi.n	a8, a9, 2
400d5694:	828a      	add.n	a8, a2, a8
400d5696:	0058b2        	s16i	a11, a8, 0
400d5699:	929a      	add.n	a9, a2, a9
400d569b:	0059a2        	s16i	a10, a9, 0
400d569e:	001882        	l16ui	a8, a8, 0
400d56a1:	418180        	srli	a8, a8, 1
400d56a4:	448a      	add.n	a4, a4, a8
400d56a6:	b04420        	addx8	a4, a4, a2
400d56a9:	005432        	s16i	a3, a4, 0
400d56ac:	f01d      	retw.n
	...

400d56b0 <merge_chunks>:
400d56b0:	004136        	entry	a1, 32
400d56b3:	1133d0        	slli	a3, a3, 3
400d56b6:	332b      	addi.n	a3, a3, 2
400d56b8:	323a      	add.n	a3, a2, a3
400d56ba:	0013a2        	l16ui	a10, a3, 0
400d56bd:	41a1a0        	srli	a10, a10, 1
400d56c0:	1194d0        	slli	a9, a4, 3
400d56c3:	992b      	addi.n	a9, a9, 2
400d56c5:	929a      	add.n	a9, a2, a9
400d56c7:	001982        	l16ui	a8, a9, 0
400d56ca:	418180        	srli	a8, a8, 1
400d56cd:	88aa      	add.n	a8, a8, a10
400d56cf:	a88a      	add.n	a10, a8, a8
400d56d1:	0053a2        	s16i	a10, a3, 0
400d56d4:	001932        	l16ui	a3, a9, 0
400d56d7:	413130        	srli	a3, a3, 1
400d56da:	443a      	add.n	a4, a4, a3
400d56dc:	b04420        	addx8	a4, a4, a2
400d56df:	005482        	s16i	a8, a4, 0
400d56e2:	f01d      	retw.n

400d56e4 <mem_to_chunkid>:
400d56e4:	004136        	entry	a1, 32
400d56e7:	fcc332        	addi	a3, a3, -4
400d56ea:	c02320        	sub	a2, a3, a2
400d56ed:	412320        	srli	a2, a2, 3
400d56f0:	f01d      	retw.n
	...

400d56f4 <_ConfigAbsSyms>:
400d56f4:	004136        	entry	a1, 32
400d56f7:	f01d      	retw.n
400d56f9:	000000        	ill

400d56fc <sys_trace_idle>:
400d56fc:	004136        	entry	a1, 32
400d56ff:	f01d      	retw.n
400d5701:	000000        	ill

400d5704 <spi_ll_set_command>:
400d5704:	006136        	entry	a1, 48
400d5707:	d59c      	beqz.n	a5, 400d5728 <spi_ll_set_command+0x24>
400d5709:	0020c0        	memw
400d570c:	9248      	l32i.n	a4, a2, 36
400d570e:	0020c0        	memw
400d5711:	1149      	s32i.n	a4, a1, 4
400d5713:	0020c0        	memw
400d5716:	025132        	s16i	a3, a1, 4
400d5719:	0020c0        	memw
400d571c:	1138      	l32i.n	a3, a1, 4
400d571e:	0020c0        	memw
400d5721:	9239      	s32i.n	a3, a2, 36
400d5723:	000e06        	j	400d575f <spi_ll_set_command+0x5b>
400d5726:	00          	.byte 00
400d5727:	00          	.byte 00
400d5728:	0020c0        	memw
400d572b:	9288      	l32i.n	a8, a2, 36
400d572d:	0020c0        	memw
400d5730:	0189      	s32i.n	a8, a1, 0
400d5732:	082c      	movi.n	a8, 32
400d5734:	c08840        	sub	a8, a8, a4
400d5737:	401800        	ssl	a8
400d573a:	a13300        	sll	a3, a3
400d573d:	404800        	ssai	8
400d5740:	f58030        	extui	a8, a3, 16, 16
400d5743:	818830        	src	a8, a8, a3
400d5746:	818880        	src	a8, a8, a8
400d5749:	818380        	src	a8, a3, a8
400d574c:	f43080        	extui	a3, a8, 0, 16
400d574f:	0020c0        	memw
400d5752:	005132        	s16i	a3, a1, 0
400d5755:	0020c0        	memw
400d5758:	0138      	l32i.n	a3, a1, 0
400d575a:	0020c0        	memw
400d575d:	9239      	s32i.n	a3, a2, 36
400d575f:	f01d      	retw.n
400d5761:	000000        	ill

400d5764 <spi_ll_set_address>:
400d5764:	004136        	entry	a1, 32
400d5767:	67ac      	beqz.n	a7, 400d5791 <spi_ll_set_address+0x2d>
400d5769:	404800        	ssai	8
400d576c:	f58050        	extui	a8, a5, 16, 16
400d576f:	818850        	src	a8, a8, a5
400d5772:	818880        	src	a8, a8, a8
400d5775:	818580        	src	a8, a5, a8
400d5778:	f59040        	extui	a9, a4, 16, 16
400d577b:	819940        	src	a9, a9, a4
400d577e:	819990        	src	a9, a9, a9
400d5781:	819490        	src	a9, a4, a9
400d5784:	0020c0        	memw
400d5787:	1299      	s32i.n	a9, a2, 4
400d5789:	0020c0        	memw
400d578c:	c289      	s32i.n	a8, a2, 48
400d578e:	0018c6        	j	400d57f5 <spi_ll_set_address+0x91>
400d5791:	072c      	movi.n	a7, 32
400d5793:	46a767        	bge	a7, a6, 400d57dd <spi_ll_set_address+0x79>
400d5796:	e0c672        	addi	a7, a6, -32
400d5799:	092c      	movi.n	a9, 32
400d579b:	10b790        	and	a11, a7, a9
400d579e:	a55a      	add.n	a10, a5, a5
400d57a0:	f87c      	movi.n	a8, -1
400d57a2:	308780        	xor	a8, a7, a8
400d57a5:	401800        	ssl	a8
400d57a8:	a1aa00        	sll	a10, a10
400d57ab:	400700        	ssr	a7
400d57ae:	918040        	srl	a8, a4
400d57b1:	208a80        	or	a8, a10, a8
400d57b4:	400700        	ssr	a7
400d57b7:	917050        	srl	a7, a5
400d57ba:	9387b0        	movnez	a8, a7, a11
400d57bd:	0020c0        	memw
400d57c0:	1289      	s32i.n	a8, a2, 4
400d57c2:	054c      	movi.n	a5, 64
400d57c4:	c05560        	sub	a5, a5, a6
400d57c7:	109590        	and	a9, a5, a9
400d57ca:	401500        	ssl	a5
400d57cd:	a14400        	sll	a4, a4
400d57d0:	050c      	movi.n	a5, 0
400d57d2:	934590        	movnez	a4, a5, a9
400d57d5:	0020c0        	memw
400d57d8:	c249      	s32i.n	a4, a2, 48
400d57da:	0005c6        	j	400d57f5 <spi_ll_set_address+0x91>
400d57dd:	052c      	movi.n	a5, 32
400d57df:	c06560        	sub	a6, a5, a6
400d57e2:	105650        	and	a5, a6, a5
400d57e5:	401600        	ssl	a6
400d57e8:	a14400        	sll	a4, a4
400d57eb:	060c      	movi.n	a6, 0
400d57ed:	934650        	movnez	a4, a6, a5
400d57f0:	0020c0        	memw
400d57f3:	1249      	s32i.n	a4, a2, 4
400d57f5:	f01d      	retw.n
	...

400d57f8 <spi_hal_usr_is_done>:
400d57f8:	004136        	entry	a1, 32
400d57fb:	2228      	l32i.n	a2, a2, 8
400d57fd:	0020c0        	memw
400d5800:	e228      	l32i.n	a2, a2, 56
400d5802:	042420        	extui	a2, a2, 4, 1
400d5805:	f01d      	retw.n
	...

400d5808 <uart_hal_set_stop_bits>:
400d5808:	004136        	entry	a1, 32
400d580b:	0288      	l32i.n	a8, a2, 0
400d580d:	283366        	bnei	a3, 3, 400d5839 <uart_hal_set_stop_bits+0x31>
400d5810:	0020c0        	memw
400d5813:	112832        	l32i	a3, a8, 68
400d5816:	490c      	movi.n	a9, 4
400d5818:	203390        	or	a3, a3, a9
400d581b:	0020c0        	memw
400d581e:	116832        	s32i	a3, a8, 68
400d5821:	0020c0        	memw
400d5824:	8838      	l32i.n	a3, a8, 32
400d5826:	cfaf92        	movi	a9, -49
400d5829:	103390        	and	a3, a3, a9
400d582c:	091c      	movi.n	a9, 16
400d582e:	203390        	or	a3, a3, a9
400d5831:	0020c0        	memw
400d5834:	8839      	s32i.n	a3, a8, 32
400d5836:	000a46        	j	400d5863 <uart_hal_set_stop_bits+0x5b>
400d5839:	0020c0        	memw
400d583c:	112892        	l32i	a9, a8, 68
400d583f:	ba7c      	movi.n	a10, -5
400d5841:	1099a0        	and	a9, a9, a10
400d5844:	0020c0        	memw
400d5847:	116892        	s32i	a9, a8, 68
400d584a:	143030        	extui	a3, a3, 0, 2
400d584d:	1133c0        	slli	a3, a3, 4
400d5850:	0020c0        	memw
400d5853:	8898      	l32i.n	a9, a8, 32
400d5855:	cfafa2        	movi	a10, -49
400d5858:	1099a0        	and	a9, a9, a10
400d585b:	203930        	or	a3, a9, a3
400d585e:	0020c0        	memw
400d5861:	8839      	s32i.n	a3, a8, 32
400d5863:	f01d      	retw.n
400d5865:	000000        	ill

400d5868 <uart_hal_get_stop_bits>:
400d5868:	004136        	entry	a1, 32
400d586b:	0288      	l32i.n	a8, a2, 0
400d586d:	0020c0        	memw
400d5870:	112892        	l32i	a9, a8, 68
400d5873:	116927        	bbci	a9, 2, 400d5888 <uart_hal_get_stop_bits+0x20>
400d5876:	0020c0        	memw
400d5879:	8898      	l32i.n	a9, a8, 32
400d587b:	149490        	extui	a9, a9, 4, 2
400d587e:	061966        	bnei	a9, 1, 400d5888 <uart_hal_get_stop_bits+0x20>
400d5881:	380c      	movi.n	a8, 3
400d5883:	0389      	s32i.n	a8, a3, 0
400d5885:	000246        	j	400d5892 <uart_hal_get_stop_bits+0x2a>
400d5888:	0020c0        	memw
400d588b:	8888      	l32i.n	a8, a8, 32
400d588d:	148480        	extui	a8, a8, 4, 2
400d5890:	0389      	s32i.n	a8, a3, 0
400d5892:	f01d      	retw.n

400d5894 <uart_hal_set_data_bit_num>:
400d5894:	004136        	entry	a1, 32
400d5897:	0298      	l32i.n	a9, a2, 0
400d5899:	143030        	extui	a3, a3, 0, 2
400d589c:	1133e0        	slli	a3, a3, 2
400d589f:	0020c0        	memw
400d58a2:	8988      	l32i.n	a8, a9, 32
400d58a4:	3a7c      	movi.n	a10, -13
400d58a6:	1088a0        	and	a8, a8, a10
400d58a9:	208830        	or	a8, a8, a3
400d58ac:	0020c0        	memw
400d58af:	8989      	s32i.n	a8, a9, 32
400d58b1:	f01d      	retw.n
	...

400d58b4 <uart_hal_get_data_bit_num>:
400d58b4:	004136        	entry	a1, 32
400d58b7:	0288      	l32i.n	a8, a2, 0
400d58b9:	0020c0        	memw
400d58bc:	8888      	l32i.n	a8, a8, 32
400d58be:	148280        	extui	a8, a8, 2, 2
400d58c1:	0389      	s32i.n	a8, a3, 0
400d58c3:	f01d      	retw.n
400d58c5:	000000        	ill

400d58c8 <uart_hal_set_parity>:
400d58c8:	004136        	entry	a1, 32
400d58cb:	0298      	l32i.n	a9, a2, 0
400d58cd:	339c      	beqz.n	a3, 400d58e4 <uart_hal_set_parity+0x1c>
400d58cf:	04a030        	extui	a10, a3, 0, 1
400d58d2:	0020c0        	memw
400d58d5:	8988      	l32i.n	a8, a9, 32
400d58d7:	eb7c      	movi.n	a11, -2
400d58d9:	1088b0        	and	a8, a8, a11
400d58dc:	2088a0        	or	a8, a8, a10
400d58df:	0020c0        	memw
400d58e2:	8989      	s32i.n	a8, a9, 32
400d58e4:	043130        	extui	a3, a3, 1, 1
400d58e7:	333a      	add.n	a3, a3, a3
400d58e9:	0020c0        	memw
400d58ec:	8988      	l32i.n	a8, a9, 32
400d58ee:	da7c      	movi.n	a10, -3
400d58f0:	1088a0        	and	a8, a8, a10
400d58f3:	203830        	or	a3, a8, a3
400d58f6:	0020c0        	memw
400d58f9:	8939      	s32i.n	a3, a9, 32
400d58fb:	f01d      	retw.n
400d58fd:	000000        	ill

400d5900 <uart_hal_get_parity>:
400d5900:	004136        	entry	a1, 32
400d5903:	0288      	l32i.n	a8, a2, 0
400d5905:	0020c0        	memw
400d5908:	8898      	l32i.n	a9, a8, 32
400d590a:	126917        	bbci	a9, 1, 400d5920 <uart_hal_get_parity+0x20>
400d590d:	0020c0        	memw
400d5910:	8888      	l32i.n	a8, a8, 32
400d5912:	048080        	extui	a8, a8, 0, 1
400d5915:	290c      	movi.n	a9, 2
400d5917:	208890        	or	a8, a8, a9
400d591a:	0389      	s32i.n	a8, a3, 0
400d591c:	000106        	j	400d5924 <uart_hal_get_parity+0x24>
400d591f:	00          	.byte 00
400d5920:	080c      	movi.n	a8, 0
400d5922:	0389      	s32i.n	a8, a3, 0
400d5924:	f01d      	retw.n
	...

400d5928 <uart_hal_get_hw_flow_ctrl>:
400d5928:	004136        	entry	a1, 32
400d592b:	0288      	l32i.n	a8, a2, 0
400d592d:	090c      	movi.n	a9, 0
400d592f:	0399      	s32i.n	a9, a3, 0
400d5931:	0020c0        	memw
400d5934:	9898      	l32i.n	a9, a8, 36
400d5936:	037977        	bbci	a9, 23, 400d593d <uart_hal_get_hw_flow_ctrl+0x15>
400d5939:	190c      	movi.n	a9, 1
400d593b:	0399      	s32i.n	a9, a3, 0
400d593d:	0020c0        	memw
400d5940:	8888      	l32i.n	a8, a8, 32
400d5942:	0868f7        	bbci	a8, 15, 400d594e <uart_hal_get_hw_flow_ctrl+0x26>
400d5945:	0388      	l32i.n	a8, a3, 0
400d5947:	290c      	movi.n	a9, 2
400d5949:	208890        	or	a8, a8, a9
400d594c:	0389      	s32i.n	a8, a3, 0
400d594e:	f01d      	retw.n

400d5950 <uart_hal_set_rxfifo_full_thr>:
400d5950:	004136        	entry	a1, 32
400d5953:	0298      	l32i.n	a9, a2, 0
400d5955:	643030        	extui	a3, a3, 0, 7
400d5958:	0020c0        	memw
400d595b:	9988      	l32i.n	a8, a9, 36
400d595d:	80afa2        	movi	a10, -128
400d5960:	1088a0        	and	a8, a8, a10
400d5963:	208830        	or	a8, a8, a3
400d5966:	0020c0        	memw
400d5969:	9989      	s32i.n	a8, a9, 36
400d596b:	f01d      	retw.n
400d596d:	000000        	ill

400d5970 <uart_hal_get_symb_len>:
400d5970:	004136        	entry	a1, 32
400d5973:	0288      	l32i.n	a8, a2, 0
400d5975:	0020c0        	memw
400d5978:	8828      	l32i.n	a2, a8, 32
400d597a:	142220        	extui	a2, a2, 2, 2
400d597d:	0020c0        	memw
400d5980:	112892        	l32i	a9, a8, 68
400d5983:	0a6927        	bbci	a9, 2, 400d5991 <uart_hal_get_symb_len+0x21>
400d5986:	0020c0        	memw
400d5989:	8898      	l32i.n	a9, a8, 32
400d598b:	149490        	extui	a9, a9, 4, 2
400d598e:	0a1926        	beqi	a9, 1, 400d599c <uart_hal_get_symb_len+0x2c>
400d5991:	0020c0        	memw
400d5994:	88a8      	l32i.n	a10, a8, 32
400d5996:	14a4a0        	extui	a10, a10, 4, 2
400d5999:	000046        	j	400d599e <uart_hal_get_symb_len+0x2e>
400d599c:	3a0c      	movi.n	a10, 3
400d599e:	0020c0        	memw
400d59a1:	8898      	l32i.n	a9, a8, 32
400d59a3:	0f6917        	bbci	a9, 1, 400d59b6 <uart_hal_get_symb_len+0x46>
400d59a6:	0020c0        	memw
400d59a9:	8898      	l32i.n	a9, a8, 32
400d59ab:	049090        	extui	a9, a9, 0, 1
400d59ae:	280c      	movi.n	a8, 2
400d59b0:	209980        	or	a9, a9, a8
400d59b3:	000046        	j	400d59b8 <uart_hal_get_symb_len+0x48>
400d59b6:	090c      	movi.n	a9, 0
400d59b8:	226b      	addi.n	a2, a2, 6
400d59ba:	042ab6        	bltui	a10, 2, 400d59c2 <uart_hal_get_symb_len+0x52>
400d59bd:	280c      	movi.n	a8, 2
400d59bf:	000046        	j	400d59c4 <uart_hal_get_symb_len+0x54>
400d59c2:	180c      	movi.n	a8, 1
400d59c4:	882a      	add.n	a8, a8, a2
400d59c6:	748080        	extui	a8, a8, 0, 8
400d59c9:	120c      	movi.n	a2, 1
400d59cb:	0a0c      	movi.n	a10, 0
400d59cd:	832a90        	moveqz	a2, a10, a9
400d59d0:	228a      	add.n	a2, a2, a8
400d59d2:	742020        	extui	a2, a2, 0, 8
400d59d5:	f01d      	retw.n
	...

400d59d8 <_stdout_hook_default>:
400d59d8:	004136        	entry	a1, 32
400d59db:	f27c      	movi.n	a2, -1
400d59dd:	f01d      	retw.n
	...

400d59e0 <clock_control_esp32_async_on>:
400d59e0:	004136        	entry	a1, 32
400d59e3:	7aaf22        	movi	a2, -134
400d59e6:	f01d      	retw.n

400d59e8 <gpio_pin_set_raw>:
400d59e8:	004136        	entry	a1, 32
400d59eb:	02ad      	mov.n	a10, a2
400d59ed:	449c      	beqz.n	a4, 400d5a05 <gpio_pin_set_raw+0x1d>
400d59ef:	1b0c      	movi.n	a11, 1
400d59f1:	401300        	ssl	a3
400d59f4:	a1bb00        	sll	a11, a11
400d59f7:	022232        	l32i	a3, a2, 8
400d59fa:	032332        	l32i	a3, a3, 12
400d59fd:	0003e0        	callx8	a3
400d5a00:	000406        	j	400d5a14 <gpio_pin_set_raw+0x2c>
400d5a03:	00          	.byte 00
400d5a04:	00          	.byte 00
400d5a05:	180c      	movi.n	a8, 1
400d5a07:	401300        	ssl	a3
400d5a0a:	a1b800        	sll	a11, a8
400d5a0d:	2238      	l32i.n	a3, a2, 8
400d5a0f:	4338      	l32i.n	a3, a3, 16
400d5a11:	0003e0        	callx8	a3
400d5a14:	0a2d      	mov.n	a2, a10
400d5a16:	f01d      	retw.n

400d5a18 <spi_write_dt>:
400d5a18:	004136        	entry	a1, 32
400d5a1b:	03cd      	mov.n	a12, a3
400d5a1d:	02a8      	l32i.n	a10, a2, 0
400d5a1f:	b24b      	addi.n	a11, a2, 4
400d5a21:	2a28      	l32i.n	a2, a10, 8
400d5a23:	0228      	l32i.n	a2, a2, 0
400d5a25:	0d0c      	movi.n	a13, 0
400d5a27:	0002e0        	callx8	a2
400d5a2a:	0a2d      	mov.n	a2, a10
400d5a2c:	f01d      	retw.n
	...

400d5a30 <st7789v_set_lcd_margins>:
400d5a30:	004136        	entry	a1, 32
400d5a33:	4288      	l32i.n	a8, a2, 16
400d5a35:	005832        	s16i	a3, a8, 0
400d5a38:	015842        	s16i	a4, a8, 2
400d5a3b:	f01d      	retw.n
400d5a3d:	000000        	ill

400d5a40 <st7789v_read>:
400d5a40:	004136        	entry	a1, 32
400d5a43:	7aaf22        	movi	a2, -134
400d5a46:	f01d      	retw.n

400d5a48 <st7789v_get_framebuffer>:
400d5a48:	004136        	entry	a1, 32
400d5a4b:	020c      	movi.n	a2, 0
400d5a4d:	f01d      	retw.n
	...

400d5a50 <st7789v_set_brightness>:
400d5a50:	004136        	entry	a1, 32
400d5a53:	7aaf22        	movi	a2, -134
400d5a56:	f01d      	retw.n

400d5a58 <st7789v_set_contrast>:
400d5a58:	004136        	entry	a1, 32
400d5a5b:	7aaf22        	movi	a2, -134
400d5a5e:	f01d      	retw.n

400d5a60 <entropy_esp32_init>:
400d5a60:	004136        	entry	a1, 32
400d5a63:	020c      	movi.n	a2, 0
400d5a65:	f01d      	retw.n
	...

400d5a68 <gpio_ll_output_enable>:
400d5a68:	006136        	entry	a1, 48
400d5a6b:	f81c      	movi.n	a8, 31
400d5a6d:	0f2837        	blt	a8, a3, 400d5a80 <gpio_ll_output_enable+0x18>
400d5a70:	180c      	movi.n	a8, 1
400d5a72:	401300        	ssl	a3
400d5a75:	a18800        	sll	a8, a8
400d5a78:	0020c0        	memw
400d5a7b:	9289      	s32i.n	a8, a2, 36
400d5a7d:	000906        	j	400d5aa5 <gpio_ll_output_enable+0x3d>
400d5a80:	0020c0        	memw
400d5a83:	c288      	l32i.n	a8, a2, 48
400d5a85:	0020c0        	memw
400d5a88:	0189      	s32i.n	a8, a1, 0
400d5a8a:	180c      	movi.n	a8, 1
400d5a8c:	401300        	ssl	a3
400d5a8f:	a18800        	sll	a8, a8
400d5a92:	748080        	extui	a8, a8, 0, 8
400d5a95:	0020c0        	memw
400d5a98:	004182        	s8i	a8, a1, 0
400d5a9b:	0020c0        	memw
400d5a9e:	0138      	l32i.n	a3, a1, 0
400d5aa0:	0020c0        	memw
400d5aa3:	c239      	s32i.n	a3, a2, 48
400d5aa5:	f01d      	retw.n
	...

400d5aa8 <sys_slist_remove>:
400d5aa8:	004136        	entry	a1, 32
400d5aab:	e3cc      	bnez.n	a3, 400d5abd <sys_slist_remove+0x15>
400d5aad:	0438      	l32i.n	a3, a4, 0
400d5aaf:	0239      	s32i.n	a3, a2, 0
400d5ab1:	1288      	l32i.n	a8, a2, 4
400d5ab3:	119487        	bne	a4, a8, 400d5ac8 <sys_slist_remove+0x20>
400d5ab6:	1239      	s32i.n	a3, a2, 4
400d5ab8:	000306        	j	400d5ac8 <sys_slist_remove+0x20>
400d5abb:	00          	.byte 00
400d5abc:	00          	.byte 00
400d5abd:	0488      	l32i.n	a8, a4, 0
400d5abf:	0389      	s32i.n	a8, a3, 0
400d5ac1:	1288      	l32i.n	a8, a2, 4
400d5ac3:	019487        	bne	a4, a8, 400d5ac8 <sys_slist_remove+0x20>
400d5ac6:	1239      	s32i.n	a3, a2, 4
400d5ac8:	020c      	movi.n	a2, 0
400d5aca:	0429      	s32i.n	a2, a4, 0
400d5acc:	f01d      	retw.n
	...

400d5ad0 <gpio_fire_callbacks>:
400d5ad0:	004136        	entry	a1, 32
400d5ad3:	02b8      	l32i.n	a11, a2, 0
400d5ad5:	9b8c      	beqz.n	a11, 400d5ae2 <gpio_fire_callbacks+0x12>
400d5ad7:	0b28      	l32i.n	a2, a11, 0
400d5ad9:	c2ac      	beqz.n	a2, 400d5b09 <gpio_fire_callbacks+0x39>
400d5adb:	abec      	bnez.n	a11, 400d5b09 <gpio_fire_callbacks+0x39>
400d5add:	0b2d      	mov.n	a2, a11
400d5adf:	000986        	j	400d5b09 <gpio_fire_callbacks+0x39>
400d5ae2:	0b2d      	mov.n	a2, a11
400d5ae4:	000846        	j	400d5b09 <gpio_fire_callbacks+0x39>
400d5ae7:	00          	.byte 00
400d5ae8:	2bc8      	l32i.n	a12, a11, 8
400d5aea:	10cc40        	and	a12, a12, a4
400d5aed:	5c8c      	beqz.n	a12, 400d5af6 <gpio_fire_callbacks+0x26>
400d5aef:	1b88      	l32i.n	a8, a11, 4
400d5af1:	03ad      	mov.n	a10, a3
400d5af3:	0008e0        	callx8	a8
400d5af6:	928c      	beqz.n	a2, 400d5b03 <gpio_fire_callbacks+0x33>
400d5af8:	0288      	l32i.n	a8, a2, 0
400d5afa:	788c      	beqz.n	a8, 400d5b05 <gpio_fire_callbacks+0x35>
400d5afc:	52cc      	bnez.n	a2, 400d5b05 <gpio_fire_callbacks+0x35>
400d5afe:	028d      	mov.n	a8, a2
400d5b00:	000046        	j	400d5b05 <gpio_fire_callbacks+0x35>
400d5b03:	028d      	mov.n	a8, a2
400d5b05:	02bd      	mov.n	a11, a2
400d5b07:	082d      	mov.n	a2, a8
400d5b09:	fdbb56        	bnez	a11, 400d5ae8 <gpio_fire_callbacks+0x18>
400d5b0c:	f01d      	retw.n
	...

400d5b10 <gpio_esp32_port_get_raw>:
400d5b10:	004136        	entry	a1, 32
400d5b13:	1288      	l32i.n	a8, a2, 4
400d5b15:	3898      	l32i.n	a9, a8, 12
400d5b17:	a9cc      	bnez.n	a9, 400d5b25 <gpio_esp32_port_get_raw+0x15>
400d5b19:	2888      	l32i.n	a8, a8, 8
400d5b1b:	0020c0        	memw
400d5b1e:	f888      	l32i.n	a8, a8, 60
400d5b20:	0389      	s32i.n	a8, a3, 0
400d5b22:	000306        	j	400d5b32 <gpio_esp32_port_get_raw+0x22>
400d5b25:	2888      	l32i.n	a8, a8, 8
400d5b27:	0020c0        	memw
400d5b2a:	400882        	l8ui	a8, a8, 64
400d5b2d:	748080        	extui	a8, a8, 0, 8
400d5b30:	0389      	s32i.n	a8, a3, 0
400d5b32:	020c      	movi.n	a2, 0
400d5b34:	f01d      	retw.n
	...

400d5b38 <gpio_esp32_port_set_masked_raw>:
400d5b38:	004136        	entry	a1, 32
400d5b3b:	1288      	l32i.n	a8, a2, 4
400d5b3d:	006390        	rsil	a9, 3
400d5b40:	38a8      	l32i.n	a10, a8, 12
400d5b42:	6adc      	bnez.n	a10, 400d5b5c <gpio_esp32_port_set_masked_raw+0x24>
400d5b44:	2888      	l32i.n	a8, a8, 8
400d5b46:	0020c0        	memw
400d5b49:	18a8      	l32i.n	a10, a8, 4
400d5b4b:	304a40        	xor	a4, a10, a4
400d5b4e:	104430        	and	a4, a4, a3
400d5b51:	3044a0        	xor	a4, a4, a10
400d5b54:	0020c0        	memw
400d5b57:	1849      	s32i.n	a4, a8, 4
400d5b59:	000846        	j	400d5b7e <gpio_esp32_port_set_masked_raw+0x46>
400d5b5c:	28b8      	l32i.n	a11, a8, 8
400d5b5e:	0020c0        	memw
400d5b61:	100b82        	l8ui	a8, a11, 16
400d5b64:	748080        	extui	a8, a8, 0, 8
400d5b67:	743030        	extui	a3, a3, 0, 8
400d5b6a:	fa7c      	movi.n	a10, -1
400d5b6c:	30aa30        	xor	a10, a10, a3
400d5b6f:	1088a0        	and	a8, a8, a10
400d5b72:	103340        	and	a3, a3, a4
400d5b75:	208830        	or	a8, a8, a3
400d5b78:	0020c0        	memw
400d5b7b:	104b82        	s8i	a8, a11, 16
400d5b7e:	13e690        	wsr.ps	a9
400d5b81:	002010        	rsync
400d5b84:	020c      	movi.n	a2, 0
400d5b86:	f01d      	retw.n

400d5b88 <gpio_esp32_port_set_bits_raw>:
400d5b88:	004136        	entry	a1, 32
400d5b8b:	1288      	l32i.n	a8, a2, 4
400d5b8d:	3898      	l32i.n	a9, a8, 12
400d5b8f:	99cc      	bnez.n	a9, 400d5b9c <gpio_esp32_port_set_bits_raw+0x14>
400d5b91:	2888      	l32i.n	a8, a8, 8
400d5b93:	0020c0        	memw
400d5b96:	2839      	s32i.n	a3, a8, 8
400d5b98:	0002c6        	j	400d5ba7 <gpio_esp32_port_set_bits_raw+0x1f>
400d5b9b:	00          	.byte 00
400d5b9c:	2888      	l32i.n	a8, a8, 8
400d5b9e:	743030        	extui	a3, a3, 0, 8
400d5ba1:	0020c0        	memw
400d5ba4:	144832        	s8i	a3, a8, 20
400d5ba7:	020c      	movi.n	a2, 0
400d5ba9:	f01d      	retw.n
	...

400d5bac <gpio_esp32_port_clear_bits_raw>:
400d5bac:	004136        	entry	a1, 32
400d5baf:	1288      	l32i.n	a8, a2, 4
400d5bb1:	3898      	l32i.n	a9, a8, 12
400d5bb3:	99cc      	bnez.n	a9, 400d5bc0 <gpio_esp32_port_clear_bits_raw+0x14>
400d5bb5:	2888      	l32i.n	a8, a8, 8
400d5bb7:	0020c0        	memw
400d5bba:	3839      	s32i.n	a3, a8, 12
400d5bbc:	0002c6        	j	400d5bcb <gpio_esp32_port_clear_bits_raw+0x1f>
400d5bbf:	00          	.byte 00
400d5bc0:	2888      	l32i.n	a8, a8, 8
400d5bc2:	743030        	extui	a3, a3, 0, 8
400d5bc5:	0020c0        	memw
400d5bc8:	184832        	s8i	a3, a8, 24
400d5bcb:	020c      	movi.n	a2, 0
400d5bcd:	f01d      	retw.n
	...

400d5bd0 <gpio_esp32_port_toggle_bits>:
400d5bd0:	004136        	entry	a1, 32
400d5bd3:	1298      	l32i.n	a9, a2, 4
400d5bd5:	006380        	rsil	a8, 3
400d5bd8:	39a8      	l32i.n	a10, a9, 12
400d5bda:	0adc      	bnez.n	a10, 400d5bee <gpio_esp32_port_toggle_bits+0x1e>
400d5bdc:	29a8      	l32i.n	a10, a9, 8
400d5bde:	0020c0        	memw
400d5be1:	1a98      	l32i.n	a9, a10, 4
400d5be3:	309930        	xor	a9, a9, a3
400d5be6:	0020c0        	memw
400d5be9:	1a99      	s32i.n	a9, a10, 4
400d5beb:	000586        	j	400d5c05 <gpio_esp32_port_toggle_bits+0x35>
400d5bee:	29a8      	l32i.n	a10, a9, 8
400d5bf0:	0020c0        	memw
400d5bf3:	100a92        	l8ui	a9, a10, 16
400d5bf6:	749090        	extui	a9, a9, 0, 8
400d5bf9:	309930        	xor	a9, a9, a3
400d5bfc:	749090        	extui	a9, a9, 0, 8
400d5bff:	0020c0        	memw
400d5c02:	104a92        	s8i	a9, a10, 16
400d5c05:	13e680        	wsr.ps	a8
400d5c08:	002010        	rsync
400d5c0b:	020c      	movi.n	a2, 0
400d5c0d:	f01d      	retw.n
	...

400d5c10 <gpio_esp32_get_pending_int>:
400d5c10:	006136        	entry	a1, 48
400d5c13:	1228      	l32i.n	a2, a2, 4
400d5c15:	03f580        	rsr.misc1	a8
400d5c18:	140882        	l8ui	a8, a8, 20
400d5c1b:	3298      	l32i.n	a9, a2, 12
400d5c1d:	49dc      	bnez.n	a9, 400d5c35 <gpio_esp32_get_pending_int+0x25>
400d5c1f:	1228      	l32i.n	a2, a2, 4
400d5c21:	78cc      	bnez.n	a8, 400d5c2c <gpio_esp32_get_pending_int+0x1c>
400d5c23:	0020c0        	memw
400d5c26:	1a2222        	l32i	a2, a2, 104
400d5c29:	000dc6        	j	400d5c64 <gpio_esp32_get_pending_int+0x54>
400d5c2c:	0020c0        	memw
400d5c2f:	182222        	l32i	a2, a2, 96
400d5c32:	000b86        	j	400d5c64 <gpio_esp32_get_pending_int+0x54>
400d5c35:	1228      	l32i.n	a2, a2, 4
400d5c37:	58dc      	bnez.n	a8, 400d5c50 <gpio_esp32_get_pending_int+0x40>
400d5c39:	0020c0        	memw
400d5c3c:	1f2222        	l32i	a2, a2, 124
400d5c3f:	0020c0        	memw
400d5c42:	1129      	s32i.n	a2, a1, 4
400d5c44:	0020c0        	memw
400d5c47:	040122        	l8ui	a2, a1, 4
400d5c4a:	742020        	extui	a2, a2, 0, 8
400d5c4d:	0004c6        	j	400d5c64 <gpio_esp32_get_pending_int+0x54>
400d5c50:	0020c0        	memw
400d5c53:	1d2222        	l32i	a2, a2, 116
400d5c56:	0020c0        	memw
400d5c59:	0129      	s32i.n	a2, a1, 0
400d5c5b:	0020c0        	memw
400d5c5e:	000122        	l8ui	a2, a1, 0
400d5c61:	742020        	extui	a2, a2, 0, 8
400d5c64:	f01d      	retw.n
	...

400d5c68 <pinctrl_lookup_state>:
400d5c68:	004136        	entry	a1, 32
400d5c6b:	743030        	extui	a3, a3, 0, 8
400d5c6e:	0288      	l32i.n	a8, a2, 0
400d5c70:	0489      	s32i.n	a8, a4, 0
400d5c72:	000246        	j	400d5c7f <pinctrl_lookup_state+0x17>
400d5c75:	050892        	l8ui	a9, a8, 5
400d5c78:	151937        	beq	a9, a3, 400d5c91 <pinctrl_lookup_state+0x29>
400d5c7b:	888b      	addi.n	a8, a8, 8
400d5c7d:	0489      	s32i.n	a8, a4, 0
400d5c7f:	0488      	l32i.n	a8, a4, 0
400d5c81:	02a8      	l32i.n	a10, a2, 0
400d5c83:	040292        	l8ui	a9, a2, 4
400d5c86:	b099a0        	addx8	a9, a9, a10
400d5c89:	e83897        	bltu	a8, a9, 400d5c75 <pinctrl_lookup_state+0xd>
400d5c8c:	e27c      	movi.n	a2, -2
400d5c8e:	000046        	j	400d5c93 <pinctrl_lookup_state+0x2b>
400d5c91:	020c      	movi.n	a2, 0
400d5c93:	f01d      	retw.n
400d5c95:	000000        	ill

400d5c98 <gpio_ll_output_enable>:
400d5c98:	006136        	entry	a1, 48
400d5c9b:	f81c      	movi.n	a8, 31
400d5c9d:	0f2837        	blt	a8, a3, 400d5cb0 <gpio_ll_output_enable+0x18>
400d5ca0:	180c      	movi.n	a8, 1
400d5ca2:	401300        	ssl	a3
400d5ca5:	a18800        	sll	a8, a8
400d5ca8:	0020c0        	memw
400d5cab:	9289      	s32i.n	a8, a2, 36
400d5cad:	000906        	j	400d5cd5 <gpio_ll_output_enable+0x3d>
400d5cb0:	0020c0        	memw
400d5cb3:	c288      	l32i.n	a8, a2, 48
400d5cb5:	0020c0        	memw
400d5cb8:	0189      	s32i.n	a8, a1, 0
400d5cba:	180c      	movi.n	a8, 1
400d5cbc:	401300        	ssl	a3
400d5cbf:	a18800        	sll	a8, a8
400d5cc2:	748080        	extui	a8, a8, 0, 8
400d5cc5:	0020c0        	memw
400d5cc8:	004182        	s8i	a8, a1, 0
400d5ccb:	0020c0        	memw
400d5cce:	0138      	l32i.n	a3, a1, 0
400d5cd0:	0020c0        	memw
400d5cd3:	c239      	s32i.n	a3, a2, 48
400d5cd5:	f01d      	retw.n
	...

400d5cd8 <uart_esp32_err_check>:
400d5cd8:	004136        	entry	a1, 32
400d5cdb:	4228      	l32i.n	a2, a2, 16
400d5cdd:	2228      	l32i.n	a2, a2, 8
400d5cdf:	0020c0        	memw
400d5ce2:	2228      	l32i.n	a2, a2, 8
400d5ce4:	c80c      	movi.n	a8, 12
400d5ce6:	102280        	and	a2, a2, a8
400d5ce9:	f01d      	retw.n
	...

400d5cec <gpio_pin_set_raw>:
400d5cec:	004136        	entry	a1, 32
400d5cef:	02ad      	mov.n	a10, a2
400d5cf1:	449c      	beqz.n	a4, 400d5d09 <gpio_pin_set_raw+0x1d>
400d5cf3:	1b0c      	movi.n	a11, 1
400d5cf5:	401300        	ssl	a3
400d5cf8:	a1bb00        	sll	a11, a11
400d5cfb:	022232        	l32i	a3, a2, 8
400d5cfe:	032332        	l32i	a3, a3, 12
400d5d01:	0003e0        	callx8	a3
400d5d04:	000406        	j	400d5d18 <gpio_pin_set_raw+0x2c>
400d5d07:	00          	.byte 00
400d5d08:	00          	.byte 00
400d5d09:	180c      	movi.n	a8, 1
400d5d0b:	401300        	ssl	a3
400d5d0e:	a1b800        	sll	a11, a8
400d5d11:	2238      	l32i.n	a3, a2, 8
400d5d13:	4338      	l32i.n	a3, a3, 16
400d5d15:	0003e0        	callx8	a3
400d5d18:	0a2d      	mov.n	a2, a10
400d5d1a:	f01d      	retw.n

400d5d1c <spi_context_get_next_buf>:
400d5d1c:	004136        	entry	a1, 32
400d5d1f:	000706        	j	400d5d3f <spi_context_get_next_buf+0x23>
400d5d22:	0288      	l32i.n	a8, a2, 0
400d5d24:	1898      	l32i.n	a9, a8, 4
400d5d26:	0b3957        	bltu	a9, a5, 400d5d35 <spi_context_get_next_buf+0x19>
400d5d29:	c29950        	quou	a9, a9, a5
400d5d2c:	0499      	s32i.n	a9, a4, 0
400d5d2e:	0228      	l32i.n	a2, a2, 0
400d5d30:	0228      	l32i.n	a2, a2, 0
400d5d32:	000486        	j	400d5d48 <spi_context_get_next_buf+0x2c>
400d5d35:	888b      	addi.n	a8, a8, 8
400d5d37:	0289      	s32i.n	a8, a2, 0
400d5d39:	0388      	l32i.n	a8, a3, 0
400d5d3b:	880b      	addi.n	a8, a8, -1
400d5d3d:	0389      	s32i.n	a8, a3, 0
400d5d3f:	0388      	l32i.n	a8, a3, 0
400d5d41:	fdd856        	bnez	a8, 400d5d22 <spi_context_get_next_buf+0x6>
400d5d44:	020c      	movi.n	a2, 0
400d5d46:	0429      	s32i.n	a2, a4, 0
400d5d48:	f01d      	retw.n
	...

400d5d4c <spi_esp32_transfer_ongoing>:
400d5d4c:	004136        	entry	a1, 32
400d5d4f:	192282        	l32i	a8, a2, 100
400d5d52:	68cc      	bnez.n	a8, 400d5d5c <spi_esp32_transfer_ongoing+0x10>
400d5d54:	1b2222        	l32i	a2, a2, 108
400d5d57:	62cc      	bnez.n	a2, 400d5d61 <spi_esp32_transfer_ongoing+0x15>
400d5d59:	000186        	j	400d5d63 <spi_esp32_transfer_ongoing+0x17>
400d5d5c:	120c      	movi.n	a2, 1
400d5d5e:	000046        	j	400d5d63 <spi_esp32_transfer_ongoing+0x17>
400d5d61:	120c      	movi.n	a2, 1
400d5d63:	f01d      	retw.n
400d5d65:	000000        	ill
